# SymbolsHelper-Confirmed: 5.6.0~rc amd64
libQt5MultimediaQuick_p.so.5 libqt5multimediaquick-p5 #MINVER#
 Qt_5_PRIVATE_API@Qt_5_PRIVATE_API 5.6.0~beta
 _ZN12QSGVideoNode23setTexturedRectGeometryERK6QRectFS2_i@Qt_5_PRIVATE_API 5.6.0~beta
 _ZN12QSGVideoNodeC1Ev@Qt_5_PRIVATE_API 5.6.0~beta
 _ZN12QSGVideoNodeC2Ev@Qt_5_PRIVATE_API 5.6.0~beta
 _ZN23QDeclarativeVideoOutput10itemChangeEN10QQuickItem10ItemChangeERKNS0_14ItemChangeDataE@Qt_5_PRIVATE_API 5.6.0~beta
 _ZN23QDeclarativeVideoOutput11qt_metacallEN11QMetaObject4CallEiPPv@Qt_5_PRIVATE_API 5.6.0~beta
 _ZN23QDeclarativeVideoOutput11qt_metacastEPKc@Qt_5_PRIVATE_API 5.6.0~beta
 _ZN23QDeclarativeVideoOutput11setFillModeENS_8FillModeE@Qt_5_PRIVATE_API 5.6.0~beta
 _ZN23QDeclarativeVideoOutput12filter_clearEP16QQmlListPropertyI20QAbstractVideoFilterE@Qt_5_PRIVATE_API 5.6.0~beta
 _ZN23QDeclarativeVideoOutput12filter_countEP16QQmlListPropertyI20QAbstractVideoFilterE@Qt_5_PRIVATE_API 5.6.0~beta
 _ZN23QDeclarativeVideoOutput13createBackendEP13QMediaService@Qt_5_PRIVATE_API 5.6.0~beta
 _ZN23QDeclarativeVideoOutput13filter_appendEP16QQmlListPropertyI20QAbstractVideoFilterEPS1_@Qt_5_PRIVATE_API 5.6.0~beta
 _ZN23QDeclarativeVideoOutput13sourceChangedEv@Qt_5_PRIVATE_API 5.6.0~beta
 _ZN23QDeclarativeVideoOutput14setOrientationEi@Qt_5_PRIVATE_API 5.6.0~beta
 _ZN23QDeclarativeVideoOutput15fillModeChangedENS_8FillModeE@Qt_5_PRIVATE_API 5.6.0~beta
 _ZN23QDeclarativeVideoOutput15geometryChangedERK6QRectFS2_@Qt_5_PRIVATE_API 5.6.0~beta
 _ZN23QDeclarativeVideoOutput15updatePaintNodeEP7QSGNodePN10QQuickItem19UpdatePaintNodeDataE@Qt_5_PRIVATE_API 5.6.0~beta
 _ZN23QDeclarativeVideoOutput16releaseResourcesEv@Qt_5_PRIVATE_API 5.6.0~beta
 _ZN23QDeclarativeVideoOutput16staticMetaObjectE@Qt_5_PRIVATE_API 5.6.0~beta
 _ZN23QDeclarativeVideoOutput17_q_updateGeometryEv@Qt_5_PRIVATE_API 5.6.0~beta
 _ZN23QDeclarativeVideoOutput17sourceRectChangedEv@Qt_5_PRIVATE_API 5.6.0~beta
 _ZN23QDeclarativeVideoOutput18contentRectChangedEv@Qt_5_PRIVATE_API 5.6.0~beta
 _ZN23QDeclarativeVideoOutput18orientationChangedEv@Qt_5_PRIVATE_API 5.6.0~beta
 _ZN23QDeclarativeVideoOutput18setAutoOrientationEb@Qt_5_PRIVATE_API 5.6.0~beta
 _ZN23QDeclarativeVideoOutput19_q_updateCameraInfoEv@Qt_5_PRIVATE_API 5.6.0~beta
 _ZN23QDeclarativeVideoOutput19_q_updateNativeSizeEv@Qt_5_PRIVATE_API 5.6.0~beta
 _ZN23QDeclarativeVideoOutput20_q_updateMediaObjectEv@Qt_5_PRIVATE_API 5.6.0~beta
 _ZN23QDeclarativeVideoOutput22autoOrientationChangedEv@Qt_5_PRIVATE_API 5.6.0~beta
 _ZN23QDeclarativeVideoOutput23_q_invalidateSceneGraphEv@Qt_5_PRIVATE_API 5.6.0~beta
 _ZN23QDeclarativeVideoOutput27_q_screenOrientationChangedEi@Qt_5_PRIVATE_API 5.6.0~beta
 _ZN23QDeclarativeVideoOutput7filtersEv@Qt_5_PRIVATE_API 5.6.0~beta
 _ZN23QDeclarativeVideoOutput9filter_atEP16QQmlListPropertyI20QAbstractVideoFilterEi@Qt_5_PRIVATE_API 5.6.0~beta
 _ZN23QDeclarativeVideoOutput9setSourceEP7QObject@Qt_5_PRIVATE_API 5.6.0~beta
 _ZN23QDeclarativeVideoOutputC1EP10QQuickItem@Qt_5_PRIVATE_API 5.6.0~beta
 _ZN23QDeclarativeVideoOutputC2EP10QQuickItem@Qt_5_PRIVATE_API 5.6.0~beta
 _ZN23QDeclarativeVideoOutputD0Ev@Qt_5_PRIVATE_API 5.6.0~beta
 _ZN23QDeclarativeVideoOutputD1Ev@Qt_5_PRIVATE_API 5.6.0~beta
 _ZN23QDeclarativeVideoOutputD2Ev@Qt_5_PRIVATE_API 5.6.0~beta
 _ZN25QSGVideoNodeFactoryPlugin11qt_metacallEN11QMetaObject4CallEiPPv@Qt_5_PRIVATE_API 5.6.0~beta
 _ZN25QSGVideoNodeFactoryPlugin11qt_metacastEPKc@Qt_5_PRIVATE_API 5.6.0~beta
 _ZN25QSGVideoNodeFactoryPlugin16staticMetaObjectE@Qt_5_PRIVATE_API 5.6.0~beta
 _ZN28QSGVideoNodeFactoryInterfaceD0Ev@Qt_5_PRIVATE_API 5.6.0~rc
 _ZN28QSGVideoNodeFactoryInterfaceD1Ev@Qt_5_PRIVATE_API 5.6.0~rc
 _ZN28QSGVideoNodeFactoryInterfaceD2Ev@Qt_5_PRIVATE_API 5.6.0~rc
 _ZNK23QDeclarativeVideoOutput10metaObjectEv@Qt_5_PRIVATE_API 5.6.0~beta
 _ZNK23QDeclarativeVideoOutput10sourceRectEv@Qt_5_PRIVATE_API 5.6.0~beta
 _ZNK23QDeclarativeVideoOutput10sourceTypeEv@Qt_5_PRIVATE_API 5.6.0~beta
 _ZNK23QDeclarativeVideoOutput11contentRectEv@Qt_5_PRIVATE_API 5.6.0~beta
 _ZNK23QDeclarativeVideoOutput11orientationEv@Qt_5_PRIVATE_API 5.6.0~beta
 _ZNK23QDeclarativeVideoOutput13mapRectToItemERK6QRectF@Qt_5_PRIVATE_API 5.6.0~beta
 _ZNK23QDeclarativeVideoOutput14mapPointToItemERK7QPointF@Qt_5_PRIVATE_API 5.6.0~beta
 _ZNK23QDeclarativeVideoOutput15autoOrientationEv@Qt_5_PRIVATE_API 5.6.0~beta
 _ZNK23QDeclarativeVideoOutput15mapRectToSourceERK6QRectF@Qt_5_PRIVATE_API 5.6.0~beta
 _ZNK23QDeclarativeVideoOutput16mapPointToSourceERK7QPointF@Qt_5_PRIVATE_API 5.6.0~beta
 _ZNK23QDeclarativeVideoOutput23mapNormalizedRectToItemERK6QRectF@Qt_5_PRIVATE_API 5.6.0~beta
 _ZNK23QDeclarativeVideoOutput24mapNormalizedPointToItemERK7QPointF@Qt_5_PRIVATE_API 5.6.0~beta
 _ZNK23QDeclarativeVideoOutput25mapRectToSourceNormalizedERK6QRectF@Qt_5_PRIVATE_API 5.6.0~beta
 _ZNK23QDeclarativeVideoOutput26mapPointToSourceNormalizedERK7QPointF@Qt_5_PRIVATE_API 5.6.0~beta
 _ZNK23QDeclarativeVideoOutput8fillModeEv@Qt_5_PRIVATE_API 5.6.0~beta
 _ZNK25QSGVideoNodeFactoryPlugin10metaObjectEv@Qt_5_PRIVATE_API 5.6.0~beta
 _ZTI12QSGVideoNode@Qt_5_PRIVATE_API 5.6.0~beta
 _ZTI23QDeclarativeVideoOutput@Qt_5_PRIVATE_API 5.6.0~beta
 _ZTI24QDeclarativeVideoBackend@Qt_5_PRIVATE_API 5.6.0~beta
 _ZTI25QSGVideoNodeFactoryPlugin@Qt_5_PRIVATE_API 5.6.0~beta
 _ZTI28QSGVideoNodeFactoryInterface@Qt_5_PRIVATE_API 5.6.0~beta
 _ZTS12QSGVideoNode@Qt_5_PRIVATE_API 5.6.0~beta
 _ZTS23QDeclarativeVideoOutput@Qt_5_PRIVATE_API 5.6.0~beta
 _ZTS24QDeclarativeVideoBackend@Qt_5_PRIVATE_API 5.6.0~beta
 _ZTS25QSGVideoNodeFactoryPlugin@Qt_5_PRIVATE_API 5.6.0~beta
 _ZTS28QSGVideoNodeFactoryInterface@Qt_5_PRIVATE_API 5.6.0~beta
 _ZTV12QSGVideoNode@Qt_5_PRIVATE_API 5.6.0~beta
 _ZTV23QDeclarativeVideoOutput@Qt_5_PRIVATE_API 5.6.0~beta
 _ZTV24QDeclarativeVideoBackend@Qt_5_PRIVATE_API 5.6.0~beta
 _ZTV25QSGVideoNodeFactoryPlugin@Qt_5_PRIVATE_API 5.6.0~beta
 _ZTV28QSGVideoNodeFactoryInterface@Qt_5_PRIVATE_API 5.6.0~rc
 (c++)"non-virtual thunk to QDeclarativeVideoOutput::~QDeclarativeVideoOutput()@Qt_5_PRIVATE_API" 5.6.0~beta
