# SymbolsHelper-Confirmed: 5.6.0~beta amd64
libQt5Multimedia.so.5 libqt5multimedia5 #MINVER#
 Qt_5.0@Qt_5.0 5.6.0~beta
 Qt_5.1@Qt_5.1 5.6.0~beta
 Qt_5.2@Qt_5.2 5.6.0~beta
 Qt_5.3@Qt_5.3 5.6.0~beta
 Qt_5.4@Qt_5.4 5.6.0~beta
 Qt_5.5@Qt_5.5 5.6.0~beta
 Qt_5.6@Qt_5.6 5.6.0~beta
 Qt_5@Qt_5 5.6.0~beta
 Qt_5_PRIVATE_API@Qt_5_PRIVATE_API 5.6.0~beta
 _Z19qt_real_to_fractiondPiS_@Qt_5 5.6.0~beta
 _Z22qt_imageFromVideoFrameRK11QVideoFrame@Qt_5 5.6.0~beta
 _ZN10QRadioData11qt_metacallEN11QMetaObject4CallEiPPv@Qt_5 5.6.0~beta
 _ZN10QRadioData11qt_metacastEPKc@Qt_5 5.6.0~beta
 _ZN10QRadioData14setMediaObjectEP12QMediaObject@Qt_5 5.6.0~beta
 _ZN10QRadioData16radioTextChangedE7QString@Qt_5 5.6.0~beta
 _ZN10QRadioData16staticMetaObjectE@Qt_5 5.6.0~beta
 _ZN10QRadioData16stationIdChangedE7QString@Qt_5 5.6.0~beta
 _ZN10QRadioData18programTypeChangedENS_11ProgramTypeE@Qt_5 5.6.0~beta
 _ZN10QRadioData18stationNameChangedE7QString@Qt_5 5.6.0~beta
 _ZN10QRadioData22programTypeNameChangedE7QString@Qt_5 5.6.0~beta
 _ZN10QRadioData32setAlternativeFrequenciesEnabledEb@Qt_5 5.6.0~beta
 _ZN10QRadioData36alternativeFrequenciesEnabledChangedEb@Qt_5 5.6.0~beta
 _ZN10QRadioData5errorENS_5ErrorE@Qt_5 5.6.0~beta
 _ZN10QRadioDataC1EP12QMediaObjectP7QObject@Qt_5 5.6.0~beta
 _ZN10QRadioDataC2EP12QMediaObjectP7QObject@Qt_5 5.6.0~beta
 _ZN10QRadioDataD0Ev@Qt_5 5.6.0~beta
 _ZN10QRadioDataD1Ev@Qt_5 5.6.0~beta
 _ZN10QRadioDataD2Ev@Qt_5 5.6.0~beta
 _ZN11QAudioInput11qt_metacallEN11QMetaObject4CallEiPPv@Qt_5 5.6.0~beta
 _ZN11QAudioInput11qt_metacastEPKc@Qt_5 5.6.0~beta
 _ZN11QAudioInput12stateChangedEN6QAudio5StateE@Qt_5 5.6.0~beta
 _ZN11QAudioInput13setBufferSizeEi@Qt_5 5.6.0~beta
 _ZN11QAudioInput16staticMetaObjectE@Qt_5 5.6.0~beta
 _ZN11QAudioInput17setNotifyIntervalEi@Qt_5 5.6.0~beta
 _ZN11QAudioInput4stopEv@Qt_5 5.6.0~beta
 _ZN11QAudioInput5resetEv@Qt_5 5.6.0~beta
 _ZN11QAudioInput5startEP9QIODevice@Qt_5 5.6.0~beta
 _ZN11QAudioInput5startEv@Qt_5 5.6.0~beta
 _ZN11QAudioInput6notifyEv@Qt_5 5.6.0~beta
 _ZN11QAudioInput6resumeEv@Qt_5 5.6.0~beta
 _ZN11QAudioInput7suspendEv@Qt_5 5.6.0~beta
 _ZN11QAudioInput9setVolumeEd@Qt_5 5.6.0~beta
 _ZN11QAudioInputC1ERK12QAudioFormatP7QObject@Qt_5 5.6.0~beta
 _ZN11QAudioInputC1ERK16QAudioDeviceInfoRK12QAudioFormatP7QObject@Qt_5 5.6.0~beta
 _ZN11QAudioInputC2ERK12QAudioFormatP7QObject@Qt_5 5.6.0~beta
 _ZN11QAudioInputC2ERK16QAudioDeviceInfoRK12QAudioFormatP7QObject@Qt_5 5.6.0~beta
 _ZN11QAudioInputD0Ev@Qt_5 5.6.0~beta
 _ZN11QAudioInputD1Ev@Qt_5 5.6.0~beta
 _ZN11QAudioInputD2Ev@Qt_5 5.6.0~beta
 _ZN11QAudioProbe11qt_metacallEN11QMetaObject4CallEiPPv@Qt_5 5.6.0~beta
 _ZN11QAudioProbe11qt_metacastEPKc@Qt_5 5.6.0~beta
 _ZN11QAudioProbe16staticMetaObjectE@Qt_5 5.6.0~beta
 _ZN11QAudioProbe17audioBufferProbedERK12QAudioBuffer@Qt_5 5.6.0~beta
 _ZN11QAudioProbe5flushEv@Qt_5 5.6.0~beta
 _ZN11QAudioProbe9setSourceEP12QMediaObject@Qt_5 5.6.0~beta
 _ZN11QAudioProbe9setSourceEP14QMediaRecorder@Qt_5 5.6.0~beta
 _ZN11QAudioProbeC1EP7QObject@Qt_5 5.6.0~beta
 _ZN11QAudioProbeC2EP7QObject@Qt_5 5.6.0~beta
 _ZN11QAudioProbeD0Ev@Qt_5 5.6.0~beta
 _ZN11QAudioProbeD1Ev@Qt_5 5.6.0~beta
 _ZN11QAudioProbeD2Ev@Qt_5 5.6.0~beta
 _ZN11QCameraInfo13defaultCameraEv@Qt_5 5.6.0~beta
 _ZN11QCameraInfo16availableCamerasEN7QCamera8PositionE@Qt_5 5.6.0~beta
 _ZN11QCameraInfoC1ERK10QByteArray@Qt_5 5.6.0~beta
 _ZN11QCameraInfoC1ERK7QCamera@Qt_5 5.6.0~beta
 _ZN11QCameraInfoC1ERKS_@Qt_5 5.6.0~beta
 _ZN11QCameraInfoC2ERK10QByteArray@Qt_5 5.6.0~beta
 _ZN11QCameraInfoC2ERK7QCamera@Qt_5 5.6.0~beta
 _ZN11QCameraInfoC2ERKS_@Qt_5 5.6.0~beta
 _ZN11QCameraInfoD1Ev@Qt_5 5.6.0~beta
 _ZN11QCameraInfoD2Ev@Qt_5 5.6.0~beta
 _ZN11QCameraInfoaSERKS_@Qt_5 5.6.0~beta
 _ZN11QRadioTuner11bandChangedENS_4BandE@Qt_5 5.6.0~beta
 _ZN11QRadioTuner11qt_metacallEN11QMetaObject4CallEiPPv@Qt_5 5.6.0~beta
 _ZN11QRadioTuner11qt_metacastEPKc@Qt_5 5.6.0~beta
 _ZN11QRadioTuner12cancelSearchEv@Qt_5 5.6.0~beta
 _ZN11QRadioTuner12mutedChangedEb@Qt_5 5.6.0~beta
 _ZN11QRadioTuner12setFrequencyEi@Qt_5 5.6.0~beta
 _ZN11QRadioTuner12stateChangedENS_5StateE@Qt_5 5.6.0~beta
 _ZN11QRadioTuner12stationFoundEi7QString@Qt_5 5.6.0~beta
 _ZN11QRadioTuner13searchForwardEv@Qt_5 5.6.0~beta
 _ZN11QRadioTuner13setStereoModeENS_10StereoModeE@Qt_5 5.6.0~beta
 _ZN11QRadioTuner13volumeChangedEi@Qt_5 5.6.0~beta
 _ZN11QRadioTuner14searchBackwardEv@Qt_5 5.6.0~beta
 _ZN11QRadioTuner16frequencyChangedEi@Qt_5 5.6.0~beta
 _ZN11QRadioTuner16searchingChangedEb@Qt_5 5.6.0~beta
 _ZN11QRadioTuner16staticMetaObjectE@Qt_5 5.6.0~beta
 _ZN11QRadioTuner17searchAllStationsENS_10SearchModeE@Qt_5 5.6.0~beta
 _ZN11QRadioTuner19stereoStatusChangedEb@Qt_5 5.6.0~beta
 _ZN11QRadioTuner21signalStrengthChangedEi@Qt_5 5.6.0~beta
 _ZN11QRadioTuner23antennaConnectedChangedEb@Qt_5 5.6.0~beta
 _ZN11QRadioTuner4stopEv@Qt_5 5.6.0~beta
 _ZN11QRadioTuner5errorENS_5ErrorE@Qt_5 5.6.0~beta
 _ZN11QRadioTuner5startEv@Qt_5 5.6.0~beta
 _ZN11QRadioTuner7setBandENS_4BandE@Qt_5 5.6.0~beta
 _ZN11QRadioTuner8setMutedEb@Qt_5 5.6.0~beta
 _ZN11QRadioTuner9setVolumeEi@Qt_5 5.6.0~beta
 _ZN11QRadioTunerC1EP7QObject@Qt_5 5.6.0~beta
 _ZN11QRadioTunerC2EP7QObject@Qt_5 5.6.0~beta
 _ZN11QRadioTunerD0Ev@Qt_5 5.6.0~beta
 _ZN11QRadioTunerD1Ev@Qt_5 5.6.0~beta
 _ZN11QRadioTunerD2Ev@Qt_5 5.6.0~beta
 _ZN11QVideoFrame10setEndTimeEx@Qt_5 5.6.0~beta
 _ZN11QVideoFrame11setMetaDataERK7QStringRK8QVariant@Qt_5 5.6.0~beta
 _ZN11QVideoFrame12setFieldTypeENS_9FieldTypeE@Qt_5 5.6.0~beta
 _ZN11QVideoFrame12setStartTimeEx@Qt_5 5.6.0~beta
 _ZN11QVideoFrame26imageFormatFromPixelFormatENS_11PixelFormatE@Qt_5 5.6.0~beta
 _ZN11QVideoFrame26pixelFormatFromImageFormatEN6QImage6FormatE@Qt_5 5.6.0~beta
 _ZN11QVideoFrame3mapEN20QAbstractVideoBuffer7MapModeE@Qt_5 5.6.0~beta
 _ZN11QVideoFrame4bitsEi@Qt_5 5.6.0~beta
 _ZN11QVideoFrame4bitsEv@Qt_5 5.6.0~beta
 _ZN11QVideoFrame5unmapEv@Qt_5 5.6.0~beta
 _ZN11QVideoFrameC1EP20QAbstractVideoBufferRK5QSizeNS_11PixelFormatE@Qt_5 5.6.0~beta
 _ZN11QVideoFrameC1ERK6QImage@Qt_5 5.6.0~beta
 _ZN11QVideoFrameC1ERKS_@Qt_5 5.6.0~beta
 _ZN11QVideoFrameC1EiRK5QSizeiNS_11PixelFormatE@Qt_5 5.6.0~beta
 _ZN11QVideoFrameC1Ev@Qt_5 5.6.0~beta
 _ZN11QVideoFrameC2EP20QAbstractVideoBufferRK5QSizeNS_11PixelFormatE@Qt_5 5.6.0~beta
 _ZN11QVideoFrameC2ERK6QImage@Qt_5 5.6.0~beta
 _ZN11QVideoFrameC2ERKS_@Qt_5 5.6.0~beta
 _ZN11QVideoFrameC2EiRK5QSizeiNS_11PixelFormatE@Qt_5 5.6.0~beta
 _ZN11QVideoFrameC2Ev@Qt_5 5.6.0~beta
 _ZN11QVideoFrameD1Ev@Qt_5 5.6.0~beta
 _ZN11QVideoFrameD2Ev@Qt_5 5.6.0~beta
 _ZN11QVideoFrameaSERKS_@Qt_5 5.6.0~beta
 _ZN11QVideoProbe11qt_metacallEN11QMetaObject4CallEiPPv@Qt_5 5.6.0~beta
 _ZN11QVideoProbe11qt_metacastEPKc@Qt_5 5.6.0~beta
 _ZN11QVideoProbe16staticMetaObjectE@Qt_5 5.6.0~beta
 _ZN11QVideoProbe16videoFrameProbedERK11QVideoFrame@Qt_5 5.6.0~beta
 _ZN11QVideoProbe5flushEv@Qt_5 5.6.0~beta
 _ZN11QVideoProbe9setSourceEP12QMediaObject@Qt_5 5.6.0~beta
 _ZN11QVideoProbe9setSourceEP14QMediaRecorder@Qt_5 5.6.0~beta
 _ZN11QVideoProbeC1EP7QObject@Qt_5 5.6.0~beta
 _ZN11QVideoProbeC2EP7QObject@Qt_5 5.6.0~beta
 _ZN11QVideoProbeD0Ev@Qt_5 5.6.0~beta
 _ZN11QVideoProbeD1Ev@Qt_5 5.6.0~beta
 _ZN11QVideoProbeD2Ev@Qt_5 5.6.0~beta
 _ZN12QAudioBuffer4dataEv@Qt_5 5.6.0~beta
 _ZN12QAudioBufferC1EP20QAbstractAudioBuffer@Qt_5_PRIVATE_API 5.6.0~beta
 _ZN12QAudioBufferC1ERK10QByteArrayRK12QAudioFormatx@Qt_5 5.6.0~beta
 _ZN12QAudioBufferC1ERKS_@Qt_5 5.6.0~beta
 _ZN12QAudioBufferC1EiRK12QAudioFormatx@Qt_5 5.6.0~beta
 _ZN12QAudioBufferC1Ev@Qt_5 5.6.0~beta
 _ZN12QAudioBufferC2EP20QAbstractAudioBuffer@Qt_5_PRIVATE_API 5.6.0~beta
 _ZN12QAudioBufferC2ERK10QByteArrayRK12QAudioFormatx@Qt_5 5.6.0~beta
 _ZN12QAudioBufferC2ERKS_@Qt_5 5.6.0~beta
 _ZN12QAudioBufferC2EiRK12QAudioFormatx@Qt_5 5.6.0~beta
 _ZN12QAudioBufferC2Ev@Qt_5 5.6.0~beta
 _ZN12QAudioBufferD1Ev@Qt_5 5.6.0~beta
 _ZN12QAudioBufferD2Ev@Qt_5 5.6.0~beta
 _ZN12QAudioBufferaSERKS_@Qt_5 5.6.0~beta
 _ZN12QAudioFormat12setByteOrderENS_6EndianE@Qt_5 5.6.0~beta
 _ZN12QAudioFormat13setSampleRateEi@Qt_5 5.6.0~beta
 _ZN12QAudioFormat13setSampleSizeEi@Qt_5 5.6.0~beta
 _ZN12QAudioFormat13setSampleTypeENS_10SampleTypeE@Qt_5 5.6.0~beta
 _ZN12QAudioFormat15setChannelCountEi@Qt_5 5.6.0~beta
 _ZN12QAudioFormat8setCodecERK7QString@Qt_5 5.6.0~beta
 _ZN12QAudioFormatC1ERKS_@Qt_5 5.6.0~beta
 _ZN12QAudioFormatC1Ev@Qt_5 5.6.0~beta
 _ZN12QAudioFormatC2ERKS_@Qt_5 5.6.0~beta
 _ZN12QAudioFormatC2Ev@Qt_5 5.6.0~beta
 _ZN12QAudioFormatD1Ev@Qt_5 5.6.0~beta
 _ZN12QAudioFormatD2Ev@Qt_5 5.6.0~beta
 _ZN12QAudioFormataSERKS_@Qt_5 5.6.0~beta
 _ZN12QAudioOutput11qt_metacallEN11QMetaObject4CallEiPPv@Qt_5 5.6.0~beta
 _ZN12QAudioOutput11qt_metacastEPKc@Qt_5 5.6.0~beta
 _ZN12QAudioOutput11setCategoryERK7QString@Qt_5 5.6.0~beta
 _ZN12QAudioOutput12stateChangedEN6QAudio5StateE@Qt_5 5.6.0~beta
 _ZN12QAudioOutput13setBufferSizeEi@Qt_5 5.6.0~beta
 _ZN12QAudioOutput16staticMetaObjectE@Qt_5 5.6.0~beta
 _ZN12QAudioOutput17setNotifyIntervalEi@Qt_5 5.6.0~beta
 _ZN12QAudioOutput4stopEv@Qt_5 5.6.0~beta
 _ZN12QAudioOutput5resetEv@Qt_5 5.6.0~beta
 _ZN12QAudioOutput5startEP9QIODevice@Qt_5 5.6.0~beta
 _ZN12QAudioOutput5startEv@Qt_5 5.6.0~beta
 _ZN12QAudioOutput6notifyEv@Qt_5 5.6.0~beta
 _ZN12QAudioOutput6resumeEv@Qt_5 5.6.0~beta
 _ZN12QAudioOutput7suspendEv@Qt_5 5.6.0~beta
 _ZN12QAudioOutput9setVolumeEd@Qt_5 5.6.0~beta
 _ZN12QAudioOutputC1ERK12QAudioFormatP7QObject@Qt_5 5.6.0~beta
 _ZN12QAudioOutputC1ERK16QAudioDeviceInfoRK12QAudioFormatP7QObject@Qt_5 5.6.0~beta
 _ZN12QAudioOutputC2ERK12QAudioFormatP7QObject@Qt_5 5.6.0~beta
 _ZN12QAudioOutputC2ERK16QAudioDeviceInfoRK12QAudioFormatP7QObject@Qt_5 5.6.0~beta
 _ZN12QAudioOutputD0Ev@Qt_5 5.6.0~beta
 _ZN12QAudioOutputD1Ev@Qt_5 5.6.0~beta
 _ZN12QAudioOutputD2Ev@Qt_5 5.6.0~beta
 _ZN12QCameraFocus11qt_metacallEN11QMetaObject4CallEiPPv@Qt_5 5.6.0~beta
 _ZN12QCameraFocus11qt_metacastEPKc@Qt_5 5.6.0~beta
 _ZN12QCameraFocus12setFocusModeE6QFlagsINS_9FocusModeEE@Qt_5 5.6.0~beta
 _ZN12QCameraFocus16staticMetaObjectE@Qt_5 5.6.0~beta
 _ZN12QCameraFocus17focusZonesChangedEv@Qt_5 5.6.0~beta
 _ZN12QCameraFocus17setFocusPointModeENS_14FocusPointModeE@Qt_5 5.6.0~beta
 _ZN12QCameraFocus18digitalZoomChangedEd@Qt_5 5.6.0~beta
 _ZN12QCameraFocus18opticalZoomChangedEd@Qt_5 5.6.0~beta
 _ZN12QCameraFocus19setCustomFocusPointERK7QPointF@Qt_5 5.6.0~beta
 _ZN12QCameraFocus25maximumDigitalZoomChangedEd@Qt_5 5.6.0~beta
 _ZN12QCameraFocus25maximumOpticalZoomChangedEd@Qt_5 5.6.0~beta
 _ZN12QCameraFocus6zoomToEdd@Qt_5 5.6.0~beta
 _ZN12QCameraFocusC1EP7QCamera@Qt_5 5.6.0~beta
 _ZN12QCameraFocusC2EP7QCamera@Qt_5 5.6.0~beta
 _ZN12QCameraFocusD0Ev@Qt_5 5.6.0~beta
 _ZN12QCameraFocusD1Ev@Qt_5 5.6.0~beta
 _ZN12QCameraFocusD2Ev@Qt_5 5.6.0~beta
 _ZN12QMediaObject11qt_metacallEN11QMetaObject4CallEiPPv@Qt_5 5.6.0~beta
 _ZN12QMediaObject11qt_metacastEPKc@Qt_5 5.6.0~beta
 _ZN12QMediaObject13setupControlsEv@Qt_5 5.6.0~beta
 _ZN12QMediaObject15metaDataChangedERK7QStringRK8QVariant@Qt_5 5.6.0~beta
 _ZN12QMediaObject15metaDataChangedEv@Qt_5 5.6.0~beta
 _ZN12QMediaObject16addPropertyWatchERK10QByteArray@Qt_5 5.6.0~beta
 _ZN12QMediaObject16staticMetaObjectE@Qt_5 5.6.0~beta
 _ZN12QMediaObject17setNotifyIntervalEi@Qt_5 5.6.0~beta
 _ZN12QMediaObject19availabilityChangedEN11QMultimedia18AvailabilityStatusE@Qt_5 5.6.0~beta
 _ZN12QMediaObject19availabilityChangedEb@Qt_5 5.6.0~beta
 _ZN12QMediaObject19removePropertyWatchERK10QByteArray@Qt_5 5.6.0~beta
 _ZN12QMediaObject21notifyIntervalChangedEi@Qt_5 5.6.0~beta
 _ZN12QMediaObject24metaDataAvailableChangedEb@Qt_5 5.6.0~beta
 _ZN12QMediaObject4bindEP7QObject@Qt_5 5.6.0~beta
 _ZN12QMediaObject6unbindEP7QObject@Qt_5 5.6.0~beta
 _ZN12QMediaObjectC1EP7QObjectP13QMediaService@Qt_5 5.6.0~beta
 _ZN12QMediaObjectC1ER19QMediaObjectPrivateP7QObjectP13QMediaService@Qt_5 5.6.0~beta
 _ZN12QMediaObjectC2EP7QObjectP13QMediaService@Qt_5 5.6.0~beta
 _ZN12QMediaObjectC2ER19QMediaObjectPrivateP7QObjectP13QMediaService@Qt_5 5.6.0~beta
 _ZN12QMediaObjectD0Ev@Qt_5 5.6.0~beta
 _ZN12QMediaObjectD1Ev@Qt_5 5.6.0~beta
 _ZN12QMediaObjectD2Ev@Qt_5 5.6.0~beta
 _ZN12QMediaPlayer10hasSupportERK7QStringRK11QStringList6QFlagsINS_4FlagEE@Qt_5 5.6.0~beta
 _ZN12QMediaPlayer11qt_metacallEN11QMetaObject4CallEiPPv@Qt_5 5.6.0~beta
 _ZN12QMediaPlayer11qt_metacastEPKc@Qt_5 5.6.0~beta
 _ZN12QMediaPlayer11setPlaylistEP14QMediaPlaylist@Qt_5 5.6.0~beta
 _ZN12QMediaPlayer11setPositionEx@Qt_5 5.6.0~beta
 _ZN12QMediaPlayer12mediaChangedERK13QMediaContent@Qt_5 5.6.0~beta
 _ZN12QMediaPlayer12mutedChangedEb@Qt_5 5.6.0~beta
 _ZN12QMediaPlayer12setAudioRoleEN6QAudio4RoleE@Qt_5 5.6.0~beta
 _ZN12QMediaPlayer12stateChangedENS_5StateE@Qt_5 5.6.0~beta
 _ZN12QMediaPlayer13volumeChangedEi@Qt_5 5.6.0~beta
 _ZN12QMediaPlayer14setVideoOutputEP12QVideoWidget@Qt_5 5.6.0~beta
 _ZN12QMediaPlayer14setVideoOutputEP18QGraphicsVideoItem@Qt_5 5.6.0~beta
 _ZN12QMediaPlayer14setVideoOutputEP21QAbstractVideoSurface@Qt_5 5.6.0~beta
 _ZN12QMediaPlayer15durationChangedEx@Qt_5 5.6.0~beta
 _ZN12QMediaPlayer15positionChangedEx@Qt_5 5.6.0~beta
 _ZN12QMediaPlayer15seekableChangedEb@Qt_5 5.6.0~beta
 _ZN12QMediaPlayer15setPlaybackRateEd@Qt_5 5.6.0~beta
 _ZN12QMediaPlayer16audioRoleChangedEN6QAudio4RoleE@Qt_5 5.6.0~beta
 _ZN12QMediaPlayer16staticMetaObjectE@Qt_5 5.6.0~beta
 _ZN12QMediaPlayer18mediaStatusChangedENS_11MediaStatusE@Qt_5 5.6.0~beta
 _ZN12QMediaPlayer18supportedMimeTypesE6QFlagsINS_4FlagEE@Qt_5 5.6.0~beta
 _ZN12QMediaPlayer19bufferStatusChangedEi@Qt_5 5.6.0~beta
 _ZN12QMediaPlayer19currentMediaChangedERK13QMediaContent@Qt_5 5.6.0~beta
 _ZN12QMediaPlayer19playbackRateChangedEd@Qt_5 5.6.0~beta
 _ZN12QMediaPlayer21audioAvailableChangedEb@Qt_5 5.6.0~beta
 _ZN12QMediaPlayer21videoAvailableChangedEb@Qt_5 5.6.0~beta
 _ZN12QMediaPlayer24setNetworkConfigurationsERK5QListI21QNetworkConfigurationE@Qt_5 5.6.0~beta
 _ZN12QMediaPlayer27networkConfigurationChangedERK21QNetworkConfiguration@Qt_5 5.6.0~beta
 _ZN12QMediaPlayer4bindEP7QObject@Qt_5 5.6.0~beta
 _ZN12QMediaPlayer4playEv@Qt_5 5.6.0~beta
 _ZN12QMediaPlayer4stopEv@Qt_5 5.6.0~beta
 _ZN12QMediaPlayer5errorENS_5ErrorE@Qt_5 5.6.0~beta
 _ZN12QMediaPlayer5pauseEv@Qt_5 5.6.0~beta
 _ZN12QMediaPlayer6unbindEP7QObject@Qt_5 5.6.0~beta
 _ZN12QMediaPlayer8setMediaERK13QMediaContentP9QIODevice@Qt_5 5.6.0~beta
 _ZN12QMediaPlayer8setMutedEb@Qt_5 5.6.0~beta
 _ZN12QMediaPlayer9setVolumeEi@Qt_5 5.6.0~beta
 _ZN12QMediaPlayerC1EP7QObject6QFlagsINS_4FlagEE@Qt_5 5.6.0~beta
 _ZN12QMediaPlayerC2EP7QObject6QFlagsINS_4FlagEE@Qt_5 5.6.0~beta
 _ZN12QMediaPlayerD0Ev@Qt_5 5.6.0~beta
 _ZN12QMediaPlayerD1Ev@Qt_5 5.6.0~beta
 _ZN12QMediaPlayerD2Ev@Qt_5 5.6.0~beta
 _ZN12QSampleCache11qt_metacallEN11QMetaObject4CallEiPPv@Qt_5_PRIVATE_API 5.6.0~beta
 _ZN12QSampleCache11qt_metacastEPKc@Qt_5_PRIVATE_API 5.6.0~beta
 _ZN12QSampleCache11setCapacityEx@Qt_5_PRIVATE_API 5.6.0~beta
 _ZN12QSampleCache12unloadSampleEP7QSample@Qt_5_PRIVATE_API 5.6.0~beta
 _ZN12QSampleCache13requestSampleERK4QUrl@Qt_5_PRIVATE_API 5.6.0~beta
 _ZN12QSampleCache14loadingReleaseEv@Qt_5_PRIVATE_API 5.6.0~beta
 _ZN12QSampleCache16isLoadingChangedEv@Qt_5_PRIVATE_API 5.6.0~beta
 _ZN12QSampleCache16staticMetaObjectE@Qt_5_PRIVATE_API 5.6.0~beta
 _ZN12QSampleCache20networkAccessManagerEv@Qt_5_PRIVATE_API 5.6.0~beta
 _ZN12QSampleCache24notifyUnreferencedSampleEP7QSample@Qt_5_PRIVATE_API 5.6.0~beta
 _ZN12QSampleCache24removeUnreferencedSampleEP7QSample@Qt_5_PRIVATE_API 5.6.0~beta
 _ZN12QSampleCache7refreshEx@Qt_5_PRIVATE_API 5.6.0~beta
 _ZN12QSampleCacheC1EP7QObject@Qt_5_PRIVATE_API 5.6.0~beta
 _ZN12QSampleCacheC2EP7QObject@Qt_5_PRIVATE_API 5.6.0~beta
 _ZN12QSampleCacheD0Ev@Qt_5_PRIVATE_API 5.6.0~beta
 _ZN12QSampleCacheD1Ev@Qt_5_PRIVATE_API 5.6.0~beta
 _ZN12QSampleCacheD2Ev@Qt_5_PRIVATE_API 5.6.0~beta
 _ZN12QSoundEffect11qt_metacallEN11QMetaObject4CallEiPPv@Qt_5 5.6.0~beta
 _ZN12QSoundEffect11qt_metacastEPKc@Qt_5 5.6.0~beta
 _ZN12QSoundEffect11setCategoryERK7QString@Qt_5 5.6.0~beta
 _ZN12QSoundEffect12mutedChangedEv@Qt_5 5.6.0~beta
 _ZN12QSoundEffect12setLoopCountEi@Qt_5 5.6.0~beta
 _ZN12QSoundEffect13loadedChangedEv@Qt_5 5.6.0~beta
 _ZN12QSoundEffect13sourceChangedEv@Qt_5 5.6.0~beta
 _ZN12QSoundEffect13statusChangedEv@Qt_5 5.6.0~beta
 _ZN12QSoundEffect13volumeChangedEv@Qt_5 5.6.0~beta
 _ZN12QSoundEffect14playingChangedEv@Qt_5 5.6.0~beta
 _ZN12QSoundEffect15categoryChangedEv@Qt_5 5.6.0~beta
 _ZN12QSoundEffect16loopCountChangedEv@Qt_5 5.6.0~beta
 _ZN12QSoundEffect16staticMetaObjectE@Qt_5 5.6.0~beta
 _ZN12QSoundEffect18supportedMimeTypesEv@Qt_5 5.6.0~beta
 _ZN12QSoundEffect21loopsRemainingChangedEv@Qt_5 5.6.0~beta
 _ZN12QSoundEffect4playEv@Qt_5 5.6.0~beta
 _ZN12QSoundEffect4stopEv@Qt_5 5.6.0~beta
 _ZN12QSoundEffect8setMutedEb@Qt_5 5.6.0~beta
 _ZN12QSoundEffect9setSourceERK4QUrl@Qt_5 5.6.0~beta
 _ZN12QSoundEffect9setVolumeEd@Qt_5 5.6.0~beta
 _ZN12QSoundEffectC1EP7QObject@Qt_5 5.6.0~beta
 _ZN12QSoundEffectC2EP7QObject@Qt_5 5.6.0~beta
 _ZN12QSoundEffectD0Ev@Qt_5 5.6.0~beta
 _ZN12QSoundEffectD1Ev@Qt_5 5.6.0~beta
 _ZN12QSoundEffectD2Ev@Qt_5 5.6.0~beta
 _ZN13QAudioDecoder10hasSupportERK7QStringRK11QStringList@Qt_5 5.6.0~beta
 _ZN13QAudioDecoder11bufferReadyEv@Qt_5 5.6.0~beta
 _ZN13QAudioDecoder11qt_metacallEN11QMetaObject4CallEiPPv@Qt_5 5.6.0~beta
 _ZN13QAudioDecoder11qt_metacastEPKc@Qt_5 5.6.0~beta
 _ZN13QAudioDecoder12stateChangedENS_5StateE@Qt_5 5.6.0~beta
 _ZN13QAudioDecoder13formatChangedERK12QAudioFormat@Qt_5 5.6.0~beta
 _ZN13QAudioDecoder13sourceChangedEv@Qt_5 5.6.0~beta
 _ZN13QAudioDecoder14setAudioFormatERK12QAudioFormat@Qt_5 5.6.0~beta
 _ZN13QAudioDecoder15durationChangedEx@Qt_5 5.6.0~beta
 _ZN13QAudioDecoder15positionChangedEx@Qt_5 5.6.0~beta
 _ZN13QAudioDecoder15setSourceDeviceEP9QIODevice@Qt_5 5.6.0~beta
 _ZN13QAudioDecoder16staticMetaObjectE@Qt_5 5.6.0~beta
 _ZN13QAudioDecoder17setSourceFilenameERK7QString@Qt_5 5.6.0~beta
 _ZN13QAudioDecoder22bufferAvailableChangedEb@Qt_5 5.6.0~beta
 _ZN13QAudioDecoder4bindEP7QObject@Qt_5 5.6.0~beta
 _ZN13QAudioDecoder4stopEv@Qt_5 5.6.0~beta
 _ZN13QAudioDecoder5errorENS_5ErrorE@Qt_5 5.6.0~beta
 _ZN13QAudioDecoder5startEv@Qt_5 5.6.0~beta
 _ZN13QAudioDecoder6unbindEP7QObject@Qt_5 5.6.0~beta
 _ZN13QAudioDecoder8finishedEv@Qt_5 5.6.0~beta
 _ZN13QAudioDecoderC1EP7QObject@Qt_5 5.6.0~beta
 _ZN13QAudioDecoderC2EP7QObject@Qt_5 5.6.0~beta
 _ZN13QAudioDecoderD0Ev@Qt_5 5.6.0~beta
 _ZN13QAudioDecoderD1Ev@Qt_5 5.6.0~beta
 _ZN13QAudioDecoderD2Ev@Qt_5 5.6.0~beta
 _ZN13QMediaContentC1EP14QMediaPlaylistRK4QUrlb@Qt_5 5.6.0~beta
 _ZN13QMediaContentC1ERK14QMediaResource@Qt_5 5.6.0~beta
 _ZN13QMediaContentC1ERK15QNetworkRequest@Qt_5 5.6.0~beta
 _ZN13QMediaContentC1ERK4QUrl@Qt_5 5.6.0~beta
 _ZN13QMediaContentC1ERK5QListI14QMediaResourceE@Qt_5 5.6.0~beta
 _ZN13QMediaContentC1ERKS_@Qt_5 5.6.0~beta
 _ZN13QMediaContentC1Ev@Qt_5 5.6.0~beta
 _ZN13QMediaContentC2EP14QMediaPlaylistRK4QUrlb@Qt_5 5.6.0~beta
 _ZN13QMediaContentC2ERK14QMediaResource@Qt_5 5.6.0~beta
 _ZN13QMediaContentC2ERK15QNetworkRequest@Qt_5 5.6.0~beta
 _ZN13QMediaContentC2ERK4QUrl@Qt_5 5.6.0~beta
 _ZN13QMediaContentC2ERK5QListI14QMediaResourceE@Qt_5 5.6.0~beta
 _ZN13QMediaContentC2ERKS_@Qt_5 5.6.0~beta
 _ZN13QMediaContentC2Ev@Qt_5 5.6.0~beta
 _ZN13QMediaContentD1Ev@Qt_5 5.6.0~beta
 _ZN13QMediaContentD2Ev@Qt_5 5.6.0~beta
 _ZN13QMediaContentaSERKS_@Qt_5 5.6.0~beta
 _ZN13QMediaControl11qt_metacallEN11QMetaObject4CallEiPPv@Qt_5 5.6.0~beta
 _ZN13QMediaControl11qt_metacastEPKc@Qt_5 5.6.0~beta
 _ZN13QMediaControl16staticMetaObjectE@Qt_5 5.6.0~beta
 _ZN13QMediaControlC1EP7QObject@Qt_5 5.6.0~beta
 _ZN13QMediaControlC1ER20QMediaControlPrivateP7QObject@Qt_5 5.6.0~beta
 _ZN13QMediaControlC2EP7QObject@Qt_5 5.6.0~beta
 _ZN13QMediaControlC2ER20QMediaControlPrivateP7QObject@Qt_5 5.6.0~beta
 _ZN13QMediaControlD0Ev@Qt_5 5.6.0~beta
 _ZN13QMediaControlD1Ev@Qt_5 5.6.0~beta
 _ZN13QMediaControlD2Ev@Qt_5 5.6.0~beta
 _ZN13QMediaService11qt_metacallEN11QMetaObject4CallEiPPv@Qt_5 5.6.0~beta
 _ZN13QMediaService11qt_metacastEPKc@Qt_5 5.6.0~beta
 _ZN13QMediaService16staticMetaObjectE@Qt_5 5.6.0~beta
 _ZN13QMediaServiceC1EP7QObject@Qt_5 5.6.0~beta
 _ZN13QMediaServiceC1ER20QMediaServicePrivateP7QObject@Qt_5 5.6.0~beta
 _ZN13QMediaServiceC2EP7QObject@Qt_5 5.6.0~beta
 _ZN13QMediaServiceC2ER20QMediaServicePrivateP7QObject@Qt_5 5.6.0~beta
 _ZN13QMediaServiceD0Ev@Qt_5 5.6.0~beta
 _ZN13QMediaServiceD1Ev@Qt_5 5.6.0~beta
 _ZN13QMediaServiceD2Ev@Qt_5 5.6.0~beta
 _ZN14QAudioRecorder11qt_metacallEN11QMetaObject4CallEiPPv@Qt_5 5.6.0~beta
 _ZN14QAudioRecorder11qt_metacastEPKc@Qt_5 5.6.0~beta
 _ZN14QAudioRecorder13setAudioInputERK7QString@Qt_5 5.6.0~beta
 _ZN14QAudioRecorder16staticMetaObjectE@Qt_5 5.6.0~beta
 _ZN14QAudioRecorder17audioInputChangedERK7QString@Qt_5 5.6.0~beta
 _ZN14QAudioRecorder27availableAudioInputsChangedEv@Qt_5 5.6.0~beta
 _ZN14QAudioRecorderC1EP7QObject@Qt_5 5.6.0~beta
 _ZN14QAudioRecorderC2EP7QObject@Qt_5 5.6.0~beta
 _ZN14QAudioRecorderD0Ev@Qt_5 5.6.0~beta
 _ZN14QAudioRecorderD1Ev@Qt_5 5.6.0~beta
 _ZN14QAudioRecorderD2Ev@Qt_5 5.6.0~beta
 _ZN14QCameraControl11qt_metacallEN11QMetaObject4CallEiPPv@Qt_5 5.6.0~beta
 _ZN14QCameraControl11qt_metacastEPKc@Qt_5 5.6.0~beta
 _ZN14QCameraControl12stateChangedEN7QCamera5StateE@Qt_5 5.6.0~beta
 _ZN14QCameraControl13statusChangedEN7QCamera6StatusE@Qt_5 5.6.0~beta
 _ZN14QCameraControl16staticMetaObjectE@Qt_5 5.6.0~beta
 _ZN14QCameraControl18captureModeChangedE6QFlagsIN7QCamera11CaptureModeEE@Qt_5 5.6.0~beta
 _ZN14QCameraControl5errorEiRK7QString@Qt_5 5.6.0~beta
 _ZN14QCameraControlC1EP7QObject@Qt_5 5.6.0~beta
 _ZN14QCameraControlC2EP7QObject@Qt_5 5.6.0~beta
 _ZN14QCameraControlD0Ev@Qt_5 5.6.0~beta
 _ZN14QCameraControlD1Ev@Qt_5 5.6.0~beta
 _ZN14QCameraControlD2Ev@Qt_5 5.6.0~beta
 _ZN14QMediaMetaData10AlbumTitleE@Qt_5 5.6.0~beta
 _ZN14QMediaMetaData10AudioCodecE@Qt_5 5.6.0~beta
 _ZN14QMediaMetaData10ResolutionE@Qt_5 5.6.0~beta
 _ZN14QMediaMetaData10SampleRateE@Qt_5 5.6.0~beta
 _ZN14QMediaMetaData10SaturationE@Qt_5 5.6.0~beta
 _ZN14QMediaMetaData10TrackCountE@Qt_5 5.6.0~beta
 _ZN14QMediaMetaData10UserRatingE@Qt_5 5.6.0~beta
 _ZN14QMediaMetaData10VideoCodecE@Qt_5 5.6.0~beta
 _ZN14QMediaMetaData11AlbumArtistE@Qt_5 5.6.0~beta
 _ZN14QMediaMetaData11CameraModelE@Qt_5 5.6.0~beta
 _ZN14QMediaMetaData11DescriptionE@Qt_5 5.6.0~beta
 _ZN14QMediaMetaData11FocalLengthE@Qt_5 5.6.0~beta
 _ZN14QMediaMetaData11GPSAltitudeE@Qt_5 5.6.0~beta
 _ZN14QMediaMetaData11GPSLatitudeE@Qt_5 5.6.0~beta
 _ZN14QMediaMetaData11GPSMapDatumE@Qt_5 5.6.0~beta
 _ZN14QMediaMetaData11GPSTrackRefE@Qt_5 5.6.0~beta
 _ZN14QMediaMetaData11GainControlE@Qt_5 5.6.0~beta
 _ZN14QMediaMetaData11LightSourceE@Qt_5 5.6.0~beta
 _ZN14QMediaMetaData11OrientationE@Qt_5 5.6.0~beta
 _ZN14QMediaMetaData11PosterImageE@Qt_5 5.6.0~beta
 _ZN14QMediaMetaData11TrackNumberE@Qt_5 5.6.0~beta
 _ZN14QMediaMetaData12AudioBitRateE@Qt_5 5.6.0~beta
 _ZN14QMediaMetaData12AverageLevelE@Qt_5 5.6.0~beta
 _ZN14QMediaMetaData12ChannelCountE@Qt_5 5.6.0~beta
 _ZN14QMediaMetaData12ExposureModeE@Qt_5 5.6.0~beta
 _ZN14QMediaMetaData12ExposureTimeE@Qt_5 5.6.0~beta
 _ZN14QMediaMetaData12GPSLongitudeE@Qt_5 5.6.0~beta
 _ZN14QMediaMetaData12GPSTimeStampE@Qt_5 5.6.0~beta
 _ZN14QMediaMetaData12MeteringModeE@Qt_5 5.6.0~beta
 _ZN14QMediaMetaData12VideoBitRateE@Qt_5 5.6.0~beta
 _ZN14QMediaMetaData12WhiteBalanceE@Qt_5 5.6.0~beta
 _ZN14QMediaMetaData13ChapterNumberE@Qt_5 5.6.0~beta
 _ZN14QMediaMetaData13CoverArtImageE@Qt_5 5.6.0~beta
 _ZN14QMediaMetaData13GPSSatellitesE@Qt_5 5.6.0~beta
 _ZN14QMediaMetaData13LeadPerformerE@Qt_5 5.6.0~beta
 _ZN14QMediaMetaData14ParentalRatingE@Qt_5 5.6.0~beta
 _ZN14QMediaMetaData14ThumbnailImageE@Qt_5 5.6.0~beta
 _ZN14QMediaMetaData14VideoFrameRateE@Qt_5 5.6.0~beta
 _ZN14QMediaMetaData15ExposureProgramE@Qt_5 5.6.0~beta
 _ZN14QMediaMetaData15GPSImgDirectionE@Qt_5 5.6.0~beta
 _ZN14QMediaMetaData15ISOSpeedRatingsE@Qt_5 5.6.0~beta
 _ZN14QMediaMetaData15SubjectDistanceE@Qt_5 5.6.0~beta
 _ZN14QMediaMetaData16CoverArtUrlLargeE@Qt_5 5.6.0~beta
 _ZN14QMediaMetaData16CoverArtUrlSmallE@Qt_5 5.6.0~beta
 _ZN14QMediaMetaData16DateTimeOriginalE@Qt_5 5.6.0~beta
 _ZN14QMediaMetaData16DigitalZoomRatioE@Qt_5 5.6.0~beta
 _ZN14QMediaMetaData16PixelAspectRatioE@Qt_5 5.6.0~beta
 _ZN14QMediaMetaData16SceneCaptureTypeE@Qt_5 5.6.0~beta
 _ZN14QMediaMetaData17DateTimeDigitizedE@Qt_5 5.6.0~beta
 _ZN14QMediaMetaData17ExposureBiasValueE@Qt_5 5.6.0~beta
 _ZN14QMediaMetaData18CameraManufacturerE@Qt_5 5.6.0~beta
 _ZN14QMediaMetaData18ContributingArtistE@Qt_5 5.6.0~beta
 _ZN14QMediaMetaData18GPSAreaInformationE@Qt_5 5.6.0~beta
 _ZN14QMediaMetaData18GPSImgDirectionRefE@Qt_5 5.6.0~beta
 _ZN14QMediaMetaData18RatingOrganizationE@Qt_5 5.6.0~beta
 _ZN14QMediaMetaData19GPSProcessingMethodE@Qt_5 5.6.0~beta
 _ZN14QMediaMetaData21FocalLengthIn35mmFilmE@Qt_5 5.6.0~beta
 _ZN14QMediaMetaData24DeviceSettingDescriptionE@Qt_5 5.6.0~beta
 _ZN14QMediaMetaData4DateE@Qt_5 5.6.0~beta
 _ZN14QMediaMetaData4MoodE@Qt_5 5.6.0~beta
 _ZN14QMediaMetaData4SizeE@Qt_5 5.6.0~beta
 _ZN14QMediaMetaData4YearE@Qt_5 5.6.0~beta
 _ZN14QMediaMetaData5EventE@Qt_5 5.6.0~beta
 _ZN14QMediaMetaData5FlashE@Qt_5 5.6.0~beta
 _ZN14QMediaMetaData5GenreE@Qt_5 5.6.0~beta
 _ZN14QMediaMetaData5TitleE@Qt_5 5.6.0~beta
 _ZN14QMediaMetaData6AuthorE@Qt_5 5.6.0~beta
 _ZN14QMediaMetaData6GPSDOPE@Qt_5 5.6.0~beta
 _ZN14QMediaMetaData6LyricsE@Qt_5 5.6.0~beta
 _ZN14QMediaMetaData6WriterE@Qt_5 5.6.0~beta
 _ZN14QMediaMetaData7CommentE@Qt_5 5.6.0~beta
 _ZN14QMediaMetaData7FNumberE@Qt_5 5.6.0~beta
 _ZN14QMediaMetaData7SubjectE@Qt_5 5.6.0~beta
 _ZN14QMediaMetaData8CategoryE@Qt_5 5.6.0~beta
 _ZN14QMediaMetaData8ComposerE@Qt_5 5.6.0~beta
 _ZN14QMediaMetaData8ContrastE@Qt_5 5.6.0~beta
 _ZN14QMediaMetaData8DirectorE@Qt_5 5.6.0~beta
 _ZN14QMediaMetaData8DurationE@Qt_5 5.6.0~beta
 _ZN14QMediaMetaData8GPSSpeedE@Qt_5 5.6.0~beta
 _ZN14QMediaMetaData8GPSTrackE@Qt_5 5.6.0~beta
 _ZN14QMediaMetaData8KeywordsE@Qt_5 5.6.0~beta
 _ZN14QMediaMetaData8LanguageE@Qt_5 5.6.0~beta
 _ZN14QMediaMetaData8SubTitleE@Qt_5 5.6.0~beta
 _ZN14QMediaMetaData9ConductorE@Qt_5 5.6.0~beta
 _ZN14QMediaMetaData9CopyrightE@Qt_5 5.6.0~beta
 _ZN14QMediaMetaData9GPSStatusE@Qt_5 5.6.0~beta
 _ZN14QMediaMetaData9MediaTypeE@Qt_5 5.6.0~beta
 _ZN14QMediaMetaData9PeakValueE@Qt_5 5.6.0~beta
 _ZN14QMediaMetaData9PosterUrlE@Qt_5 5.6.0~beta
 _ZN14QMediaMetaData9PublisherE@Qt_5 5.6.0~beta
 _ZN14QMediaMetaData9SharpnessE@Qt_5 5.6.0~beta
 _ZN14QMediaPlaylist10loadFailedEv@Qt_5 5.6.0~beta
 _ZN14QMediaPlaylist11insertMediaEiRK13QMediaContent@Qt_5 5.6.0~beta
 _ZN14QMediaPlaylist11insertMediaEiRK5QListI13QMediaContentE@Qt_5 5.6.0~beta
 _ZN14QMediaPlaylist11qt_metacallEN11QMetaObject4CallEiPPv@Qt_5 5.6.0~beta
 _ZN14QMediaPlaylist11qt_metacastEPKc@Qt_5 5.6.0~beta
 _ZN14QMediaPlaylist11removeMediaEi@Qt_5 5.6.0~beta
 _ZN14QMediaPlaylist11removeMediaEii@Qt_5 5.6.0~beta
 _ZN14QMediaPlaylist12mediaChangedEii@Qt_5 5.6.0~beta
 _ZN14QMediaPlaylist12mediaRemovedEii@Qt_5 5.6.0~beta
 _ZN14QMediaPlaylist13mediaInsertedEii@Qt_5 5.6.0~beta
 _ZN14QMediaPlaylist14setMediaObjectEP12QMediaObject@Qt_5 5.6.0~beta
 _ZN14QMediaPlaylist15setCurrentIndexEi@Qt_5 5.6.0~beta
 _ZN14QMediaPlaylist15setPlaybackModeENS_12PlaybackModeE@Qt_5 5.6.0~beta
 _ZN14QMediaPlaylist16staticMetaObjectE@Qt_5 5.6.0~beta
 _ZN14QMediaPlaylist19currentIndexChangedEi@Qt_5 5.6.0~beta
 _ZN14QMediaPlaylist19currentMediaChangedERK13QMediaContent@Qt_5 5.6.0~beta
 _ZN14QMediaPlaylist19playbackModeChangedENS_12PlaybackModeE@Qt_5 5.6.0~beta
 _ZN14QMediaPlaylist21mediaAboutToBeRemovedEii@Qt_5 5.6.0~beta
 _ZN14QMediaPlaylist22mediaAboutToBeInsertedEii@Qt_5 5.6.0~beta
 _ZN14QMediaPlaylist4loadEP9QIODevicePKc@Qt_5 5.6.0~beta
 _ZN14QMediaPlaylist4loadERK15QNetworkRequestPKc@Qt_5 5.6.0~beta
 _ZN14QMediaPlaylist4loadERK4QUrlPKc@Qt_5 5.6.0~beta
 _ZN14QMediaPlaylist4nextEv@Qt_5 5.6.0~beta
 _ZN14QMediaPlaylist4saveEP9QIODevicePKc@Qt_5 5.6.0~beta
 _ZN14QMediaPlaylist4saveERK4QUrlPKc@Qt_5 5.6.0~beta
 _ZN14QMediaPlaylist5clearEv@Qt_5 5.6.0~beta
 _ZN14QMediaPlaylist6loadedEv@Qt_5 5.6.0~beta
 _ZN14QMediaPlaylist7shuffleEv@Qt_5 5.6.0~beta
 _ZN14QMediaPlaylist8addMediaERK13QMediaContent@Qt_5 5.6.0~beta
 _ZN14QMediaPlaylist8addMediaERK5QListI13QMediaContentE@Qt_5 5.6.0~beta
 _ZN14QMediaPlaylist8previousEv@Qt_5 5.6.0~beta
 _ZN14QMediaPlaylistC1EP7QObject@Qt_5 5.6.0~beta
 _ZN14QMediaPlaylistC2EP7QObject@Qt_5 5.6.0~beta
 _ZN14QMediaPlaylistD0Ev@Qt_5 5.6.0~beta
 _ZN14QMediaPlaylistD1Ev@Qt_5 5.6.0~beta
 _ZN14QMediaPlaylistD2Ev@Qt_5 5.6.0~beta
 _ZN14QMediaRecorder11qt_metacallEN11QMetaObject4CallEiPPv@Qt_5 5.6.0~beta
 _ZN14QMediaRecorder11qt_metacastEPKc@Qt_5 5.6.0~beta
 _ZN14QMediaRecorder11setMetaDataERK7QStringRK8QVariant@Qt_5 5.6.0~beta
 _ZN14QMediaRecorder12mutedChangedEb@Qt_5 5.6.0~beta
 _ZN14QMediaRecorder12stateChangedENS_5StateE@Qt_5 5.6.0~beta
 _ZN14QMediaRecorder13statusChangedENS_6StatusE@Qt_5 5.6.0~beta
 _ZN14QMediaRecorder13volumeChangedEd@Qt_5 5.6.0~beta
 _ZN14QMediaRecorder14setMediaObjectEP12QMediaObject@Qt_5 5.6.0~beta
 _ZN14QMediaRecorder15durationChangedEx@Qt_5 5.6.0~beta
 _ZN14QMediaRecorder15metaDataChangedERK7QStringRK8QVariant@Qt_5 5.6.0~beta
 _ZN14QMediaRecorder15metaDataChangedEv@Qt_5 5.6.0~beta
 _ZN14QMediaRecorder16setAudioSettingsERK21QAudioEncoderSettings@Qt_5 5.6.0~beta
 _ZN14QMediaRecorder16setVideoSettingsERK21QVideoEncoderSettings@Qt_5 5.6.0~beta
 _ZN14QMediaRecorder16staticMetaObjectE@Qt_5 5.6.0~beta
 _ZN14QMediaRecorder17setOutputLocationERK4QUrl@Qt_5 5.6.0~beta
 _ZN14QMediaRecorder18setContainerFormatERK7QString@Qt_5 5.6.0~beta
 _ZN14QMediaRecorder19availabilityChangedEN11QMultimedia18AvailabilityStatusE@Qt_5 5.6.0~beta
 _ZN14QMediaRecorder19availabilityChangedEb@Qt_5 5.6.0~beta
 _ZN14QMediaRecorder19setEncodingSettingsERK21QAudioEncoderSettingsRK21QVideoEncoderSettingsRK7QString@Qt_5 5.6.0~beta
 _ZN14QMediaRecorder21actualLocationChangedERK4QUrl@Qt_5 5.6.0~beta
 _ZN14QMediaRecorder23metaDataWritableChangedEb@Qt_5 5.6.0~beta
 _ZN14QMediaRecorder24metaDataAvailableChangedEb@Qt_5 5.6.0~beta
 _ZN14QMediaRecorder4stopEv@Qt_5 5.6.0~beta
 _ZN14QMediaRecorder5errorENS_5ErrorE@Qt_5 5.6.0~beta
 _ZN14QMediaRecorder5pauseEv@Qt_5 5.6.0~beta
 _ZN14QMediaRecorder6recordEv@Qt_5 5.6.0~beta
 _ZN14QMediaRecorder8setMutedEb@Qt_5 5.6.0~beta
 _ZN14QMediaRecorder9setVolumeEd@Qt_5 5.6.0~beta
 _ZN14QMediaRecorderC1EP12QMediaObjectP7QObject@Qt_5 5.6.0~beta
 _ZN14QMediaRecorderC1ER21QMediaRecorderPrivateP12QMediaObjectP7QObject@Qt_5 5.6.0~beta
 _ZN14QMediaRecorderC2EP12QMediaObjectP7QObject@Qt_5 5.6.0~beta
 _ZN14QMediaRecorderC2ER21QMediaRecorderPrivateP12QMediaObjectP7QObject@Qt_5 5.6.0~beta
 _ZN14QMediaRecorderD0Ev@Qt_5 5.6.0~beta
 _ZN14QMediaRecorderD1Ev@Qt_5 5.6.0~beta
 _ZN14QMediaRecorderD2Ev@Qt_5 5.6.0~beta
 _ZN14QMediaResource11setDataSizeEx@Qt_5 5.6.0~beta
 _ZN14QMediaResource11setLanguageERK7QString@Qt_5 5.6.0~beta
 _ZN14QMediaResource13setAudioCodecERK7QString@Qt_5 5.6.0~beta
 _ZN14QMediaResource13setResolutionERK5QSize@Qt_5 5.6.0~beta
 _ZN14QMediaResource13setResolutionEii@Qt_5 5.6.0~beta
 _ZN14QMediaResource13setSampleRateEi@Qt_5 5.6.0~beta
 _ZN14QMediaResource13setVideoCodecERK7QString@Qt_5 5.6.0~beta
 _ZN14QMediaResource15setAudioBitRateEi@Qt_5 5.6.0~beta
 _ZN14QMediaResource15setChannelCountEi@Qt_5 5.6.0~beta
 _ZN14QMediaResource15setVideoBitRateEi@Qt_5 5.6.0~beta
 _ZN14QMediaResourceC1ERK15QNetworkRequestRK7QString@Qt_5 5.6.0~beta
 _ZN14QMediaResourceC1ERK4QUrlRK7QString@Qt_5 5.6.0~beta
 _ZN14QMediaResourceC1ERKS_@Qt_5 5.6.0~beta
 _ZN14QMediaResourceC1Ev@Qt_5 5.6.0~beta
 _ZN14QMediaResourceC2ERK15QNetworkRequestRK7QString@Qt_5 5.6.0~beta
 _ZN14QMediaResourceC2ERK4QUrlRK7QString@Qt_5 5.6.0~beta
 _ZN14QMediaResourceC2ERKS_@Qt_5 5.6.0~beta
 _ZN14QMediaResourceC2Ev@Qt_5 5.6.0~beta
 _ZN14QMediaResourceD1Ev@Qt_5 5.6.0~beta
 _ZN14QMediaResourceD2Ev@Qt_5 5.6.0~beta
 _ZN14QMediaResourceaSERKS_@Qt_5 5.6.0~beta
 _ZN15QCameraExposure10flashReadyEb@Qt_5 5.6.0~beta
 _ZN15QCameraExposure11qt_metacallEN11QMetaObject4CallEiPPv@Qt_5 5.6.0~beta
 _ZN15QCameraExposure11qt_metacastEPKc@Qt_5 5.6.0~beta
 _ZN15QCameraExposure12setFlashModeE6QFlagsINS_9FlashModeEE@Qt_5 5.6.0~beta
 _ZN15QCameraExposure15apertureChangedEd@Qt_5 5.6.0~beta
 _ZN15QCameraExposure15setAutoApertureEv@Qt_5 5.6.0~beta
 _ZN15QCameraExposure15setExposureModeENS_12ExposureModeE@Qt_5 5.6.0~beta
 _ZN15QCameraExposure15setMeteringModeENS_12MeteringModeE@Qt_5 5.6.0~beta
 _ZN15QCameraExposure16staticMetaObjectE@Qt_5 5.6.0~beta
 _ZN15QCameraExposure17setManualApertureEd@Qt_5 5.6.0~beta
 _ZN15QCameraExposure19setAutoShutterSpeedEv@Qt_5 5.6.0~beta
 _ZN15QCameraExposure19shutterSpeedChangedEd@Qt_5 5.6.0~beta
 _ZN15QCameraExposure20apertureRangeChangedEv@Qt_5 5.6.0~beta
 _ZN15QCameraExposure20setSpotMeteringPointERK7QPointF@Qt_5 5.6.0~beta
 _ZN15QCameraExposure21isoSensitivityChangedEi@Qt_5 5.6.0~beta
 _ZN15QCameraExposure21setAutoIsoSensitivityEv@Qt_5 5.6.0~beta
 _ZN15QCameraExposure21setManualShutterSpeedEd@Qt_5 5.6.0~beta
 _ZN15QCameraExposure23setExposureCompensationEd@Qt_5 5.6.0~beta
 _ZN15QCameraExposure23setManualIsoSensitivityEi@Qt_5 5.6.0~beta
 _ZN15QCameraExposure24shutterSpeedRangeChangedEv@Qt_5 5.6.0~beta
 _ZN15QCameraExposure27exposureCompensationChangedEd@Qt_5 5.6.0~beta
 _ZN15QCameraExposureC1EP7QCamera@Qt_5 5.6.0~beta
 _ZN15QCameraExposureC2EP7QCamera@Qt_5 5.6.0~beta
 _ZN15QCameraExposureD0Ev@Qt_5 5.6.0~beta
 _ZN15QCameraExposureD1Ev@Qt_5 5.6.0~beta
 _ZN15QCameraExposureD2Ev@Qt_5 5.6.0~beta
 _ZN15QMediaTimeRange11addIntervalERK18QMediaTimeInterval@Qt_5 5.6.0~beta
 _ZN15QMediaTimeRange11addIntervalExx@Qt_5 5.6.0~beta
 _ZN15QMediaTimeRange12addTimeRangeERKS_@Qt_5 5.6.0~beta
 _ZN15QMediaTimeRange14removeIntervalERK18QMediaTimeInterval@Qt_5 5.6.0~beta
 _ZN15QMediaTimeRange14removeIntervalExx@Qt_5 5.6.0~beta
 _ZN15QMediaTimeRange15removeTimeRangeERKS_@Qt_5 5.6.0~beta
 _ZN15QMediaTimeRange5clearEv@Qt_5 5.6.0~beta
 _ZN15QMediaTimeRangeC1ERK18QMediaTimeInterval@Qt_5 5.6.0~beta
 _ZN15QMediaTimeRangeC1ERKS_@Qt_5 5.6.0~beta
 _ZN15QMediaTimeRangeC1Ev@Qt_5 5.6.0~beta
 _ZN15QMediaTimeRangeC1Exx@Qt_5 5.6.0~beta
 _ZN15QMediaTimeRangeC2ERK18QMediaTimeInterval@Qt_5 5.6.0~beta
 _ZN15QMediaTimeRangeC2ERKS_@Qt_5 5.6.0~beta
 _ZN15QMediaTimeRangeC2Ev@Qt_5 5.6.0~beta
 _ZN15QMediaTimeRangeC2Exx@Qt_5 5.6.0~beta
 _ZN15QMediaTimeRangeD1Ev@Qt_5 5.6.0~beta
 _ZN15QMediaTimeRangeD2Ev@Qt_5 5.6.0~beta
 _ZN15QMediaTimeRangeaSERK18QMediaTimeInterval@Qt_5 5.6.0~beta
 _ZN15QMediaTimeRangeaSERKS_@Qt_5 5.6.0~beta
 _ZN15QMediaTimeRangemIERK18QMediaTimeInterval@Qt_5 5.6.0~beta
 _ZN15QMediaTimeRangemIERKS_@Qt_5 5.6.0~beta
 _ZN15QMediaTimeRangepLERK18QMediaTimeInterval@Qt_5 5.6.0~beta
 _ZN15QMediaTimeRangepLERKS_@Qt_5 5.6.0~beta
 _ZN16QAudioDeviceInfo16availableDevicesEN6QAudio4ModeE@Qt_5 5.6.0~beta
 _ZN16QAudioDeviceInfo18defaultInputDeviceEv@Qt_5 5.6.0~beta
 _ZN16QAudioDeviceInfo19defaultOutputDeviceEv@Qt_5 5.6.0~beta
 _ZN16QAudioDeviceInfoC1ERK7QStringRK10QByteArrayN6QAudio4ModeE@Qt_5 5.6.0~beta
 _ZN16QAudioDeviceInfoC1ERKS_@Qt_5 5.6.0~beta
 _ZN16QAudioDeviceInfoC1Ev@Qt_5 5.6.0~beta
 _ZN16QAudioDeviceInfoC2ERK7QStringRK10QByteArrayN6QAudio4ModeE@Qt_5 5.6.0~beta
 _ZN16QAudioDeviceInfoC2ERKS_@Qt_5 5.6.0~beta
 _ZN16QAudioDeviceInfoC2Ev@Qt_5 5.6.0~beta
 _ZN16QAudioDeviceInfoD1Ev@Qt_5 5.6.0~beta
 _ZN16QAudioDeviceInfoD2Ev@Qt_5 5.6.0~beta
 _ZN16QAudioDeviceInfoaSERKS_@Qt_5 5.6.0~beta
 _ZN16QCameraFocusZone9setStatusENS_15FocusZoneStatusE@Qt_5 5.6.0~beta
 _ZN16QCameraFocusZoneC1ERK6QRectFNS_15FocusZoneStatusE@Qt_5 5.6.0~beta
 _ZN16QCameraFocusZoneC1ERKS_@Qt_5 5.6.0~beta
 _ZN16QCameraFocusZoneC1Ev@Qt_5 5.6.0~beta
 _ZN16QCameraFocusZoneC2ERK6QRectFNS_15FocusZoneStatusE@Qt_5 5.6.0~beta
 _ZN16QCameraFocusZoneC2ERKS_@Qt_5 5.6.0~beta
 _ZN16QCameraFocusZoneC2Ev@Qt_5 5.6.0~beta
 _ZN16QCameraFocusZoneD1Ev@Qt_5 5.6.0~beta
 _ZN16QCameraFocusZoneD2Ev@Qt_5 5.6.0~beta
 _ZN16QCameraFocusZoneaSERKS_@Qt_5 5.6.0~beta
 _ZN17QAudioRoleControl11qt_metacallEN11QMetaObject4CallEiPPv@Qt_5 5.6.0~beta
 _ZN17QAudioRoleControl11qt_metacastEPKc@Qt_5 5.6.0~beta
 _ZN17QAudioRoleControl16audioRoleChangedEN6QAudio4RoleE@Qt_5 5.6.0~beta
 _ZN17QAudioRoleControl16staticMetaObjectE@Qt_5 5.6.0~beta
 _ZN17QAudioRoleControlC1EP7QObject@Qt_5 5.6.0~beta
 _ZN17QAudioRoleControlC2EP7QObject@Qt_5 5.6.0~beta
 _ZN17QAudioRoleControlD0Ev@Qt_5 5.6.0~beta
 _ZN17QAudioRoleControlD1Ev@Qt_5 5.6.0~beta
 _ZN17QAudioRoleControlD2Ev@Qt_5 5.6.0~beta
 _ZN17QImageVideoBuffer3mapEN20QAbstractVideoBuffer7MapModeEPiS2_@Qt_5_PRIVATE_API 5.6.0~beta
 _ZN17QImageVideoBuffer5unmapEv@Qt_5_PRIVATE_API 5.6.0~beta
 _ZN17QImageVideoBufferC1ERK6QImage@Qt_5_PRIVATE_API 5.6.0~beta
 _ZN17QImageVideoBufferC2ERK6QImage@Qt_5_PRIVATE_API 5.6.0~beta
 _ZN17QImageVideoBufferD0Ev@Qt_5_PRIVATE_API 5.6.0~beta
 _ZN17QImageVideoBufferD1Ev@Qt_5_PRIVATE_API 5.6.0~beta
 _ZN17QImageVideoBufferD2Ev@Qt_5_PRIVATE_API 5.6.0~beta
 _ZN17QRadioDataControl11qt_metacallEN11QMetaObject4CallEiPPv@Qt_5 5.6.0~beta
 _ZN17QRadioDataControl11qt_metacastEPKc@Qt_5 5.6.0~beta
 _ZN17QRadioDataControl16radioTextChangedE7QString@Qt_5 5.6.0~beta
 _ZN17QRadioDataControl16staticMetaObjectE@Qt_5 5.6.0~beta
 _ZN17QRadioDataControl16stationIdChangedE7QString@Qt_5 5.6.0~beta
 _ZN17QRadioDataControl18programTypeChangedEN10QRadioData11ProgramTypeE@Qt_5 5.6.0~beta
 _ZN17QRadioDataControl18stationNameChangedE7QString@Qt_5 5.6.0~beta
 _ZN17QRadioDataControl22programTypeNameChangedE7QString@Qt_5 5.6.0~beta
 _ZN17QRadioDataControl36alternativeFrequenciesEnabledChangedEb@Qt_5 5.6.0~beta
 _ZN17QRadioDataControl5errorEN10QRadioData5ErrorE@Qt_5 5.6.0~beta
 _ZN17QRadioDataControlC1EP7QObject@Qt_5 5.6.0~beta
 _ZN17QRadioDataControlC2EP7QObject@Qt_5 5.6.0~beta
 _ZN17QRadioDataControlD0Ev@Qt_5 5.6.0~beta
 _ZN17QRadioDataControlD1Ev@Qt_5 5.6.0~beta
 _ZN17QRadioDataControlD2Ev@Qt_5 5.6.0~beta
 _ZN18QAudioSystemPlugin11qt_metacallEN11QMetaObject4CallEiPPv@Qt_5 5.6.0~beta
 _ZN18QAudioSystemPlugin11qt_metacastEPKc@Qt_5 5.6.0~beta
 _ZN18QAudioSystemPlugin16staticMetaObjectE@Qt_5 5.6.0~beta
 _ZN18QAudioSystemPluginC1EP7QObject@Qt_5 5.6.0~beta
 _ZN18QAudioSystemPluginC2EP7QObject@Qt_5 5.6.0~beta
 _ZN18QAudioSystemPluginD0Ev@Qt_5 5.6.0~beta
 _ZN18QAudioSystemPluginD1Ev@Qt_5 5.6.0~beta
 _ZN18QAudioSystemPluginD2Ev@Qt_5 5.6.0~beta
 _ZN18QCameraInfoControl11qt_metacallEN11QMetaObject4CallEiPPv@Qt_5 5.6.0~beta
 _ZN18QCameraInfoControl11qt_metacastEPKc@Qt_5 5.6.0~beta
 _ZN18QCameraInfoControl16staticMetaObjectE@Qt_5 5.6.0~beta
 _ZN18QCameraInfoControlC1EP7QObject@Qt_5 5.6.0~beta
 _ZN18QCameraInfoControlC2EP7QObject@Qt_5 5.6.0~beta
 _ZN18QCameraInfoControlD0Ev@Qt_5 5.6.0~beta
 _ZN18QCameraInfoControlD1Ev@Qt_5 5.6.0~beta
 _ZN18QCameraInfoControlD2Ev@Qt_5 5.6.0~beta
 _ZN18QCameraZoomControl11qt_metacallEN11QMetaObject4CallEiPPv@Qt_5 5.6.0~beta
 _ZN18QCameraZoomControl11qt_metacastEPKc@Qt_5 5.6.0~beta
 _ZN18QCameraZoomControl16staticMetaObjectE@Qt_5 5.6.0~beta
 _ZN18QCameraZoomControl25currentDigitalZoomChangedEd@Qt_5 5.6.0~beta
 _ZN18QCameraZoomControl25currentOpticalZoomChangedEd@Qt_5 5.6.0~beta
 _ZN18QCameraZoomControl25maximumDigitalZoomChangedEd@Qt_5 5.6.0~beta
 _ZN18QCameraZoomControl25maximumOpticalZoomChangedEd@Qt_5 5.6.0~beta
 _ZN18QCameraZoomControl27requestedDigitalZoomChangedEd@Qt_5 5.6.0~beta
 _ZN18QCameraZoomControl27requestedOpticalZoomChangedEd@Qt_5 5.6.0~beta
 _ZN18QCameraZoomControlC1EP7QObject@Qt_5 5.6.0~beta
 _ZN18QCameraZoomControlC2EP7QObject@Qt_5 5.6.0~beta
 _ZN18QCameraZoomControlD0Ev@Qt_5 5.6.0~beta
 _ZN18QCameraZoomControlD1Ev@Qt_5 5.6.0~beta
 _ZN18QCameraZoomControlD2Ev@Qt_5 5.6.0~beta
 _ZN18QMediaPluginLoader12loadMetadataEv@Qt_5_PRIVATE_API 5.6.0~beta
 _ZN18QMediaPluginLoader8instanceERK7QString@Qt_5_PRIVATE_API 5.6.0~beta
 _ZN18QMediaPluginLoader9instancesERK7QString@Qt_5_PRIVATE_API 5.6.0~beta
 _ZN18QMediaPluginLoaderC1EPKcRK7QStringN2Qt15CaseSensitivityE@Qt_5_PRIVATE_API 5.6.0~beta
 _ZN18QMediaPluginLoaderC2EPKcRK7QStringN2Qt15CaseSensitivityE@Qt_5_PRIVATE_API 5.6.0~beta
 _ZN18QMediaPluginLoaderD1Ev@Qt_5_PRIVATE_API 5.6.0~beta
 _ZN18QMediaPluginLoaderD2Ev@Qt_5_PRIVATE_API 5.6.0~beta
 _ZN18QMediaTimeIntervalC1ERKS_@Qt_5 5.6.0~beta
 _ZN18QMediaTimeIntervalC1Ev@Qt_5 5.6.0~beta
 _ZN18QMediaTimeIntervalC1Exx@Qt_5 5.6.0~beta
 _ZN18QMediaTimeIntervalC2ERKS_@Qt_5 5.6.0~beta
 _ZN18QMediaTimeIntervalC2Ev@Qt_5 5.6.0~beta
 _ZN18QMediaTimeIntervalC2Exx@Qt_5 5.6.0~beta
 _ZN18QMemoryVideoBuffer3mapEN20QAbstractVideoBuffer7MapModeEPiS2_@Qt_5_PRIVATE_API 5.6.0~beta
 _ZN18QMemoryVideoBuffer5unmapEv@Qt_5_PRIVATE_API 5.6.0~beta
 _ZN18QMemoryVideoBufferC1ERK10QByteArrayi@Qt_5_PRIVATE_API 5.6.0~beta
 _ZN18QMemoryVideoBufferC2ERK10QByteArrayi@Qt_5_PRIVATE_API 5.6.0~beta
 _ZN18QMemoryVideoBufferD0Ev@Qt_5_PRIVATE_API 5.6.0~beta
 _ZN18QMemoryVideoBufferD1Ev@Qt_5_PRIVATE_API 5.6.0~beta
 _ZN18QMemoryVideoBufferD2Ev@Qt_5_PRIVATE_API 5.6.0~beta
 _ZN18QRadioTunerControl11bandChangedEN11QRadioTuner4BandE@Qt_5 5.6.0~beta
 _ZN18QRadioTunerControl11qt_metacallEN11QMetaObject4CallEiPPv@Qt_5 5.6.0~beta
 _ZN18QRadioTunerControl11qt_metacastEPKc@Qt_5 5.6.0~beta
 _ZN18QRadioTunerControl12mutedChangedEb@Qt_5 5.6.0~beta
 _ZN18QRadioTunerControl12stateChangedEN11QRadioTuner5StateE@Qt_5 5.6.0~beta
 _ZN18QRadioTunerControl12stationFoundEi7QString@Qt_5 5.6.0~beta
 _ZN18QRadioTunerControl13volumeChangedEi@Qt_5 5.6.0~beta
 _ZN18QRadioTunerControl16frequencyChangedEi@Qt_5 5.6.0~beta
 _ZN18QRadioTunerControl16searchingChangedEb@Qt_5 5.6.0~beta
 _ZN18QRadioTunerControl16staticMetaObjectE@Qt_5 5.6.0~beta
 _ZN18QRadioTunerControl19stereoStatusChangedEb@Qt_5 5.6.0~beta
 _ZN18QRadioTunerControl21signalStrengthChangedEi@Qt_5 5.6.0~beta
 _ZN18QRadioTunerControl23antennaConnectedChangedEb@Qt_5 5.6.0~beta
 _ZN18QRadioTunerControl5errorEN11QRadioTuner5ErrorE@Qt_5 5.6.0~beta
 _ZN18QRadioTunerControlC1EP7QObject@Qt_5 5.6.0~beta
 _ZN18QRadioTunerControlC2EP7QObject@Qt_5 5.6.0~beta
 _ZN18QRadioTunerControlD0Ev@Qt_5 5.6.0~beta
 _ZN18QRadioTunerControlD1Ev@Qt_5 5.6.0~beta
 _ZN18QRadioTunerControlD2Ev@Qt_5 5.6.0~beta
 _ZN19QAbstractAudioInput11qt_metacallEN11QMetaObject4CallEiPPv@Qt_5 5.6.0~beta
 _ZN19QAbstractAudioInput11qt_metacastEPKc@Qt_5 5.6.0~beta
 _ZN19QAbstractAudioInput12errorChangedEN6QAudio5ErrorE@Qt_5 5.6.0~beta
 _ZN19QAbstractAudioInput12stateChangedEN6QAudio5StateE@Qt_5 5.6.0~beta
 _ZN19QAbstractAudioInput16staticMetaObjectE@Qt_5 5.6.0~beta
 _ZN19QAbstractAudioInput6notifyEv@Qt_5 5.6.0~beta
 _ZN19QCameraFlashControl10flashReadyEb@Qt_5 5.6.0~beta
 _ZN19QCameraFlashControl11qt_metacallEN11QMetaObject4CallEiPPv@Qt_5 5.6.0~beta
 _ZN19QCameraFlashControl11qt_metacastEPKc@Qt_5 5.6.0~beta
 _ZN19QCameraFlashControl16staticMetaObjectE@Qt_5 5.6.0~beta
 _ZN19QCameraFlashControlC1EP7QObject@Qt_5 5.6.0~beta
 _ZN19QCameraFlashControlC2EP7QObject@Qt_5 5.6.0~beta
 _ZN19QCameraFlashControlD0Ev@Qt_5 5.6.0~beta
 _ZN19QCameraFlashControlD1Ev@Qt_5 5.6.0~beta
 _ZN19QCameraFlashControlD2Ev@Qt_5 5.6.0~beta
 _ZN19QCameraFocusControl11qt_metacallEN11QMetaObject4CallEiPPv@Qt_5 5.6.0~beta
 _ZN19QCameraFocusControl11qt_metacastEPKc@Qt_5 5.6.0~beta
 _ZN19QCameraFocusControl16focusModeChangedE6QFlagsIN12QCameraFocus9FocusModeEE@Qt_5 5.6.0~beta
 _ZN19QCameraFocusControl16staticMetaObjectE@Qt_5 5.6.0~beta
 _ZN19QCameraFocusControl17focusZonesChangedEv@Qt_5 5.6.0~beta
 _ZN19QCameraFocusControl21focusPointModeChangedEN12QCameraFocus14FocusPointModeE@Qt_5 5.6.0~beta
 _ZN19QCameraFocusControl23customFocusPointChangedERK7QPointF@Qt_5 5.6.0~beta
 _ZN19QCameraFocusControlC1EP7QObject@Qt_5 5.6.0~beta
 _ZN19QCameraFocusControlC2EP7QObject@Qt_5 5.6.0~beta
 _ZN19QCameraFocusControlD0Ev@Qt_5 5.6.0~beta
 _ZN19QCameraFocusControlD1Ev@Qt_5 5.6.0~beta
 _ZN19QCameraFocusControlD2Ev@Qt_5 5.6.0~beta
 _ZN19QCameraImageCapture10imageSavedEiRK7QString@Qt_5 5.6.0~beta
 _ZN19QCameraImageCapture11qt_metacallEN11QMetaObject4CallEiPPv@Qt_5 5.6.0~beta
 _ZN19QCameraImageCapture11qt_metacastEPKc@Qt_5 5.6.0~beta
 _ZN19QCameraImageCapture12imageExposedEi@Qt_5 5.6.0~beta
 _ZN19QCameraImageCapture13cancelCaptureEv@Qt_5 5.6.0~beta
 _ZN19QCameraImageCapture13imageCapturedEiRK6QImage@Qt_5 5.6.0~beta
 _ZN19QCameraImageCapture14imageAvailableEiRK11QVideoFrame@Qt_5 5.6.0~beta
 _ZN19QCameraImageCapture14setMediaObjectEP12QMediaObject@Qt_5 5.6.0~beta
 _ZN19QCameraImageCapture15setBufferFormatEN11QVideoFrame11PixelFormatE@Qt_5 5.6.0~beta
 _ZN19QCameraImageCapture16staticMetaObjectE@Qt_5 5.6.0~beta
 _ZN19QCameraImageCapture19bufferFormatChangedEN11QVideoFrame11PixelFormatE@Qt_5 5.6.0~beta
 _ZN19QCameraImageCapture19setEncodingSettingsERK21QImageEncoderSettings@Qt_5 5.6.0~beta
 _ZN19QCameraImageCapture21setCaptureDestinationE6QFlagsINS_18CaptureDestinationEE@Qt_5 5.6.0~beta
 _ZN19QCameraImageCapture22imageMetadataAvailableEiRK7QStringRK8QVariant@Qt_5 5.6.0~beta
 _ZN19QCameraImageCapture22readyForCaptureChangedEb@Qt_5 5.6.0~beta
 _ZN19QCameraImageCapture25captureDestinationChangedE6QFlagsINS_18CaptureDestinationEE@Qt_5 5.6.0~beta
 _ZN19QCameraImageCapture5errorEiNS_5ErrorERK7QString@Qt_5 5.6.0~beta
 _ZN19QCameraImageCapture7captureERK7QString@Qt_5 5.6.0~beta
 _ZN19QCameraImageCaptureC1EP12QMediaObjectP7QObject@Qt_5 5.6.0~beta
 _ZN19QCameraImageCaptureC2EP12QMediaObjectP7QObject@Qt_5 5.6.0~beta
 _ZN19QCameraImageCaptureD0Ev@Qt_5 5.6.0~beta
 _ZN19QCameraImageCaptureD1Ev@Qt_5 5.6.0~beta
 _ZN19QCameraImageCaptureD2Ev@Qt_5 5.6.0~beta
 _ZN19QCameraLocksControl11qt_metacallEN11QMetaObject4CallEiPPv@Qt_5 5.6.0~beta
 _ZN19QCameraLocksControl11qt_metacastEPKc@Qt_5 5.6.0~beta
 _ZN19QCameraLocksControl16staticMetaObjectE@Qt_5 5.6.0~beta
 _ZN19QCameraLocksControl17lockStatusChangedEN7QCamera8LockTypeENS0_10LockStatusENS0_16LockChangeReasonE@Qt_5 5.6.0~beta
 _ZN19QCameraLocksControlC1EP7QObject@Qt_5 5.6.0~beta
 _ZN19QCameraLocksControlC2EP7QObject@Qt_5 5.6.0~beta
 _ZN19QCameraLocksControlD0Ev@Qt_5 5.6.0~beta
 _ZN19QCameraLocksControlD1Ev@Qt_5 5.6.0~beta
 _ZN19QCameraLocksControlD2Ev@Qt_5 5.6.0~beta
 _ZN19QMediaPlayerControl11qt_metacallEN11QMetaObject4CallEiPPv@Qt_5 5.6.0~beta
 _ZN19QMediaPlayerControl11qt_metacastEPKc@Qt_5 5.6.0~beta
 _ZN19QMediaPlayerControl12mediaChangedERK13QMediaContent@Qt_5 5.6.0~beta
 _ZN19QMediaPlayerControl12mutedChangedEb@Qt_5 5.6.0~beta
 _ZN19QMediaPlayerControl12stateChangedEN12QMediaPlayer5StateE@Qt_5 5.6.0~beta
 _ZN19QMediaPlayerControl13volumeChangedEi@Qt_5 5.6.0~beta
 _ZN19QMediaPlayerControl15durationChangedEx@Qt_5 5.6.0~beta
 _ZN19QMediaPlayerControl15positionChangedEx@Qt_5 5.6.0~beta
 _ZN19QMediaPlayerControl15seekableChangedEb@Qt_5 5.6.0~beta
 _ZN19QMediaPlayerControl16staticMetaObjectE@Qt_5 5.6.0~beta
 _ZN19QMediaPlayerControl18mediaStatusChangedEN12QMediaPlayer11MediaStatusE@Qt_5 5.6.0~beta
 _ZN19QMediaPlayerControl19bufferStatusChangedEi@Qt_5 5.6.0~beta
 _ZN19QMediaPlayerControl19playbackRateChangedEd@Qt_5 5.6.0~beta
 _ZN19QMediaPlayerControl21audioAvailableChangedEb@Qt_5 5.6.0~beta
 _ZN19QMediaPlayerControl21videoAvailableChangedEb@Qt_5 5.6.0~beta
 _ZN19QMediaPlayerControl30availablePlaybackRangesChangedERK15QMediaTimeRange@Qt_5 5.6.0~beta
 _ZN19QMediaPlayerControl5errorEiRK7QString@Qt_5 5.6.0~beta
 _ZN19QMediaPlayerControlC1EP7QObject@Qt_5 5.6.0~beta
 _ZN19QMediaPlayerControlC2EP7QObject@Qt_5 5.6.0~beta
 _ZN19QMediaPlayerControlD0Ev@Qt_5 5.6.0~beta
 _ZN19QMediaPlayerControlD1Ev@Qt_5 5.6.0~beta
 _ZN19QMediaPlayerControlD2Ev@Qt_5 5.6.0~beta
 _ZN19QPlaylistFileParser11qt_metacallEN11QMetaObject4CallEiPPv@Qt_5_PRIVATE_API 5.6.0~beta
 _ZN19QPlaylistFileParser11qt_metacastEPKc@Qt_5_PRIVATE_API 5.6.0~beta
 _ZN19QPlaylistFileParser16findPlaylistTypeERK7QStringS2_PKvj@Qt_5_PRIVATE_API 5.6.0~beta
 _ZN19QPlaylistFileParser16staticMetaObjectE@Qt_5_PRIVATE_API 5.6.0~beta
 _ZN19QPlaylistFileParser4stopEv@Qt_5_PRIVATE_API 5.6.0~beta
 _ZN19QPlaylistFileParser5errorENS_11ParserErrorERK7QString@Qt_5_PRIVATE_API 5.6.0~beta
 _ZN19QPlaylistFileParser5startERK15QNetworkRequestb@Qt_5_PRIVATE_API 5.6.0~beta
 _ZN19QPlaylistFileParser7newItemERK8QVariant@Qt_5_PRIVATE_API 5.6.0~beta
 _ZN19QPlaylistFileParser8finishedEv@Qt_5_PRIVATE_API 5.6.0~beta
 _ZN19QPlaylistFileParserC1EP7QObject@Qt_5_PRIVATE_API 5.6.0~beta
 _ZN19QPlaylistFileParserC2EP7QObject@Qt_5_PRIVATE_API 5.6.0~beta
 _ZN19QVideoSurfaceFormat11setPropertyEPKcRK8QVariant@Qt_5 5.6.0~beta
 _ZN19QVideoSurfaceFormat11setViewportERK5QRect@Qt_5 5.6.0~beta
 _ZN19QVideoSurfaceFormat12setFrameRateEd@Qt_5 5.6.0~beta
 _ZN19QVideoSurfaceFormat12setFrameSizeERK5QSize@Qt_5 5.6.0~beta
 _ZN19QVideoSurfaceFormat12setFrameSizeEii@Qt_5 5.6.0~beta
 _ZN19QVideoSurfaceFormat18setYCbCrColorSpaceENS_15YCbCrColorSpaceE@Qt_5 5.6.0~beta
 _ZN19QVideoSurfaceFormat19setPixelAspectRatioERK5QSize@Qt_5 5.6.0~beta
 _ZN19QVideoSurfaceFormat19setPixelAspectRatioEii@Qt_5 5.6.0~beta
 _ZN19QVideoSurfaceFormat20setScanLineDirectionENS_9DirectionE@Qt_5 5.6.0~beta
 _ZN19QVideoSurfaceFormatC1ERK5QSizeN11QVideoFrame11PixelFormatEN20QAbstractVideoBuffer10HandleTypeE@Qt_5 5.6.0~beta
 _ZN19QVideoSurfaceFormatC1ERKS_@Qt_5 5.6.0~beta
 _ZN19QVideoSurfaceFormatC1Ev@Qt_5 5.6.0~beta
 _ZN19QVideoSurfaceFormatC2ERK5QSizeN11QVideoFrame11PixelFormatEN20QAbstractVideoBuffer10HandleTypeE@Qt_5 5.6.0~beta
 _ZN19QVideoSurfaceFormatC2ERKS_@Qt_5 5.6.0~beta
 _ZN19QVideoSurfaceFormatC2Ev@Qt_5 5.6.0~beta
 _ZN19QVideoSurfaceFormatD1Ev@Qt_5 5.6.0~beta
 _ZN19QVideoSurfaceFormatD2Ev@Qt_5 5.6.0~beta
 _ZN19QVideoSurfaceFormataSERKS_@Qt_5 5.6.0~beta
 _ZN19QVideoWindowControl10hueChangedEi@Qt_5 5.6.0~beta
 _ZN19QVideoWindowControl11qt_metacallEN11QMetaObject4CallEiPPv@Qt_5 5.6.0~beta
 _ZN19QVideoWindowControl11qt_metacastEPKc@Qt_5 5.6.0~beta
 _ZN19QVideoWindowControl15contrastChangedEi@Qt_5 5.6.0~beta
 _ZN19QVideoWindowControl16staticMetaObjectE@Qt_5 5.6.0~beta
 _ZN19QVideoWindowControl17brightnessChangedEi@Qt_5 5.6.0~beta
 _ZN19QVideoWindowControl17fullScreenChangedEb@Qt_5 5.6.0~beta
 _ZN19QVideoWindowControl17nativeSizeChangedEv@Qt_5 5.6.0~beta
 _ZN19QVideoWindowControl17saturationChangedEi@Qt_5 5.6.0~beta
 _ZN19QVideoWindowControlC1EP7QObject@Qt_5 5.6.0~beta
 _ZN19QVideoWindowControlC2EP7QObject@Qt_5 5.6.0~beta
 _ZN19QVideoWindowControlD0Ev@Qt_5 5.6.0~beta
 _ZN19QVideoWindowControlD1Ev@Qt_5 5.6.0~beta
 _ZN19QVideoWindowControlD2Ev@Qt_5 5.6.0~beta
 _ZN20QAbstractAudioOutput11qt_metacallEN11QMetaObject4CallEiPPv@Qt_5 5.6.0~beta
 _ZN20QAbstractAudioOutput11qt_metacastEPKc@Qt_5 5.6.0~beta
 _ZN20QAbstractAudioOutput12errorChangedEN6QAudio5ErrorE@Qt_5 5.6.0~beta
 _ZN20QAbstractAudioOutput12stateChangedEN6QAudio5StateE@Qt_5 5.6.0~beta
 _ZN20QAbstractAudioOutput16staticMetaObjectE@Qt_5 5.6.0~beta
 _ZN20QAbstractAudioOutput6notifyEv@Qt_5 5.6.0~beta
 _ZN20QAbstractVideoBuffer7releaseEv@Qt_5 5.6.0~beta
 _ZN20QAbstractVideoBuffer9mapPlanesENS_7MapModeEPiS1_PPh@Qt_5 5.6.0~beta
 _ZN20QAbstractVideoBufferC1ENS_10HandleTypeE@Qt_5 5.6.0~beta
 _ZN20QAbstractVideoBufferC1ER27QAbstractVideoBufferPrivateNS_10HandleTypeE@Qt_5 5.6.0~beta
 _ZN20QAbstractVideoBufferC2ENS_10HandleTypeE@Qt_5 5.6.0~beta
 _ZN20QAbstractVideoBufferC2ER27QAbstractVideoBufferPrivateNS_10HandleTypeE@Qt_5 5.6.0~beta
 _ZN20QAbstractVideoBufferD0Ev@Qt_5 5.6.0~beta
 _ZN20QAbstractVideoBufferD1Ev@Qt_5 5.6.0~beta
 _ZN20QAbstractVideoBufferD2Ev@Qt_5 5.6.0~beta
 _ZN20QAbstractVideoFilter11qt_metacallEN11QMetaObject4CallEiPPv@Qt_5 5.6.0~beta
 _ZN20QAbstractVideoFilter11qt_metacastEPKc@Qt_5 5.6.0~beta
 _ZN20QAbstractVideoFilter13activeChangedEv@Qt_5 5.6.0~beta
 _ZN20QAbstractVideoFilter16staticMetaObjectE@Qt_5 5.6.0~beta
 _ZN20QAbstractVideoFilter9setActiveEb@Qt_5 5.6.0~beta
 _ZN20QAbstractVideoFilterC1EP7QObject@Qt_5 5.6.0~beta
 _ZN20QAbstractVideoFilterC2EP7QObject@Qt_5 5.6.0~beta
 _ZN20QAbstractVideoFilterD0Ev@Qt_5 5.6.0~beta
 _ZN20QAbstractVideoFilterD1Ev@Qt_5 5.6.0~beta
 _ZN20QAbstractVideoFilterD2Ev@Qt_5 5.6.0~beta
 _ZN20QAudioDecoderControl11bufferReadyEv@Qt_5 5.6.0~beta
 _ZN20QAudioDecoderControl11qt_metacallEN11QMetaObject4CallEiPPv@Qt_5 5.6.0~beta
 _ZN20QAudioDecoderControl11qt_metacastEPKc@Qt_5 5.6.0~beta
 _ZN20QAudioDecoderControl12stateChangedEN13QAudioDecoder5StateE@Qt_5 5.6.0~beta
 _ZN20QAudioDecoderControl13formatChangedERK12QAudioFormat@Qt_5 5.6.0~beta
 _ZN20QAudioDecoderControl13sourceChangedEv@Qt_5 5.6.0~beta
 _ZN20QAudioDecoderControl15durationChangedEx@Qt_5 5.6.0~beta
 _ZN20QAudioDecoderControl15positionChangedEx@Qt_5 5.6.0~beta
 _ZN20QAudioDecoderControl16staticMetaObjectE@Qt_5 5.6.0~beta
 _ZN20QAudioDecoderControl22bufferAvailableChangedEb@Qt_5 5.6.0~beta
 _ZN20QAudioDecoderControl5errorEiRK7QString@Qt_5 5.6.0~beta
 _ZN20QAudioDecoderControl8finishedEv@Qt_5 5.6.0~beta
 _ZN20QAudioDecoderControlC1EP7QObject@Qt_5 5.6.0~beta
 _ZN20QAudioDecoderControlC2EP7QObject@Qt_5 5.6.0~beta
 _ZN20QAudioDecoderControlD0Ev@Qt_5 5.6.0~beta
 _ZN20QAudioDecoderControlD1Ev@Qt_5 5.6.0~beta
 _ZN20QAudioDecoderControlD2Ev@Qt_5 5.6.0~beta
 _ZN20QAudioHelperInternal16qMultiplySamplesEdRK12QAudioFormatPKvPvi@Qt_5 5.6.0~beta
 _ZN20QImageEncoderControl11qt_metacallEN11QMetaObject4CallEiPPv@Qt_5 5.6.0~beta
 _ZN20QImageEncoderControl11qt_metacastEPKc@Qt_5 5.6.0~beta
 _ZN20QImageEncoderControl16staticMetaObjectE@Qt_5 5.6.0~beta
 _ZN20QImageEncoderControlC1EP7QObject@Qt_5 5.6.0~beta
 _ZN20QImageEncoderControlC2EP7QObject@Qt_5 5.6.0~beta
 _ZN20QImageEncoderControlD0Ev@Qt_5 5.6.0~beta
 _ZN20QImageEncoderControlD1Ev@Qt_5 5.6.0~beta
 _ZN20QImageEncoderControlD2Ev@Qt_5 5.6.0~beta
 _ZN20QMediaPlaylistReaderD0Ev@Qt_5_PRIVATE_API 5.6.0~beta
 _ZN20QMediaPlaylistReaderD1Ev@Qt_5_PRIVATE_API 5.6.0~beta
 _ZN20QMediaPlaylistReaderD2Ev@Qt_5_PRIVATE_API 5.6.0~beta
 _ZN20QMediaPlaylistWriterD0Ev@Qt_5_PRIVATE_API 5.6.0~beta
 _ZN20QMediaPlaylistWriterD1Ev@Qt_5_PRIVATE_API 5.6.0~beta
 _ZN20QMediaPlaylistWriterD2Ev@Qt_5_PRIVATE_API 5.6.0~beta
 _ZN20QMediaResourcePolicy17createResourceSetERK7QString@Qt_5_PRIVATE_API 5.6.0~beta
 _ZN20QMediaResourcePolicy18destroyResourceSetEP7QObject@Qt_5_PRIVATE_API 5.6.0~beta
 _ZN20QMediaStreamsControl11qt_metacallEN11QMetaObject4CallEiPPv@Qt_5 5.6.0~beta
 _ZN20QMediaStreamsControl11qt_metacastEPKc@Qt_5 5.6.0~beta
 _ZN20QMediaStreamsControl14streamsChangedEv@Qt_5 5.6.0~beta
 _ZN20QMediaStreamsControl16staticMetaObjectE@Qt_5 5.6.0~beta
 _ZN20QMediaStreamsControl20activeStreamsChangedEv@Qt_5 5.6.0~beta
 _ZN20QMediaStreamsControlC1EP7QObject@Qt_5 5.6.0~beta
 _ZN20QMediaStreamsControlC2EP7QObject@Qt_5 5.6.0~beta
 _ZN20QMediaStreamsControlD0Ev@Qt_5 5.6.0~beta
 _ZN20QMediaStreamsControlD1Ev@Qt_5 5.6.0~beta
 _ZN20QMediaStreamsControlD2Ev@Qt_5 5.6.0~beta
 _ZN20QVideoFilterRunnableD0Ev@Qt_5 5.6.0~beta
 _ZN20QVideoFilterRunnableD1Ev@Qt_5 5.6.0~beta
 _ZN20QVideoFilterRunnableD2Ev@Qt_5 5.6.0~beta
 _ZN21QAbstractVideoSurface11qt_metacallEN11QMetaObject4CallEiPPv@Qt_5 5.6.0~beta
 _ZN21QAbstractVideoSurface11qt_metacastEPKc@Qt_5 5.6.0~beta
 _ZN21QAbstractVideoSurface13activeChangedEb@Qt_5 5.6.0~beta
 _ZN21QAbstractVideoSurface16staticMetaObjectE@Qt_5 5.6.0~beta
 _ZN21QAbstractVideoSurface19setNativeResolutionERK5QSize@Qt_5 5.6.0~beta
 _ZN21QAbstractVideoSurface20surfaceFormatChangedERK19QVideoSurfaceFormat@Qt_5 5.6.0~beta
 _ZN21QAbstractVideoSurface23nativeResolutionChangedERK5QSize@Qt_5 5.6.0~beta
 _ZN21QAbstractVideoSurface23supportedFormatsChangedEv@Qt_5 5.6.0~beta
 _ZN21QAbstractVideoSurface4stopEv@Qt_5 5.6.0~beta
 _ZN21QAbstractVideoSurface5startERK19QVideoSurfaceFormat@Qt_5 5.6.0~beta
 _ZN21QAbstractVideoSurface8setErrorENS_5ErrorE@Qt_5 5.6.0~beta
 _ZN21QAbstractVideoSurfaceC1EP7QObject@Qt_5 5.6.0~beta
 _ZN21QAbstractVideoSurfaceC2EP7QObject@Qt_5 5.6.0~beta
 _ZN21QAbstractVideoSurfaceD0Ev@Qt_5 5.6.0~beta
 _ZN21QAbstractVideoSurfaceD1Ev@Qt_5 5.6.0~beta
 _ZN21QAbstractVideoSurfaceD2Ev@Qt_5 5.6.0~beta
 _ZN21QAudioEncoderSettings10setBitRateEi@Qt_5 5.6.0~beta
 _ZN21QAudioEncoderSettings10setQualityEN11QMultimedia15EncodingQualityE@Qt_5 5.6.0~beta
 _ZN21QAudioEncoderSettings13setSampleRateEi@Qt_5 5.6.0~beta
 _ZN21QAudioEncoderSettings15setChannelCountEi@Qt_5 5.6.0~beta
 _ZN21QAudioEncoderSettings15setEncodingModeEN11QMultimedia12EncodingModeE@Qt_5 5.6.0~beta
 _ZN21QAudioEncoderSettings17setEncodingOptionERK7QStringRK8QVariant@Qt_5 5.6.0~beta
 _ZN21QAudioEncoderSettings18setEncodingOptionsERK4QMapI7QString8QVariantE@Qt_5 5.6.0~beta
 _ZN21QAudioEncoderSettings8setCodecERK7QString@Qt_5 5.6.0~beta
 _ZN21QAudioEncoderSettingsC1ERKS_@Qt_5 5.6.0~beta
 _ZN21QAudioEncoderSettingsC1Ev@Qt_5 5.6.0~beta
 _ZN21QAudioEncoderSettingsC2ERKS_@Qt_5 5.6.0~beta
 _ZN21QAudioEncoderSettingsC2Ev@Qt_5 5.6.0~beta
 _ZN21QAudioEncoderSettingsD1Ev@Qt_5 5.6.0~beta
 _ZN21QAudioEncoderSettingsD2Ev@Qt_5 5.6.0~beta
 _ZN21QAudioEncoderSettingsaSERKS_@Qt_5 5.6.0~beta
 _ZN21QImageEncoderSettings10setQualityEN11QMultimedia15EncodingQualityE@Qt_5 5.6.0~beta
 _ZN21QImageEncoderSettings13setResolutionERK5QSize@Qt_5 5.6.0~beta
 _ZN21QImageEncoderSettings13setResolutionEii@Qt_5 5.6.0~beta
 _ZN21QImageEncoderSettings17setEncodingOptionERK7QStringRK8QVariant@Qt_5 5.6.0~beta
 _ZN21QImageEncoderSettings18setEncodingOptionsERK4QMapI7QString8QVariantE@Qt_5 5.6.0~beta
 _ZN21QImageEncoderSettings8setCodecERK7QString@Qt_5 5.6.0~beta
 _ZN21QImageEncoderSettingsC1ERKS_@Qt_5 5.6.0~beta
 _ZN21QImageEncoderSettingsC1Ev@Qt_5 5.6.0~beta
 _ZN21QImageEncoderSettingsC2ERKS_@Qt_5 5.6.0~beta
 _ZN21QImageEncoderSettingsC2Ev@Qt_5 5.6.0~beta
 _ZN21QImageEncoderSettingsD1Ev@Qt_5 5.6.0~beta
 _ZN21QImageEncoderSettingsD2Ev@Qt_5 5.6.0~beta
 _ZN21QImageEncoderSettingsaSERKS_@Qt_5 5.6.0~beta
 _ZN21QMediaPlaylistControl11qt_metacallEN11QMetaObject4CallEiPPv@Qt_5_PRIVATE_API 5.6.0~beta
 _ZN21QMediaPlaylistControl11qt_metacastEPKc@Qt_5_PRIVATE_API 5.6.0~beta
 _ZN21QMediaPlaylistControl16staticMetaObjectE@Qt_5_PRIVATE_API 5.6.0~beta
 _ZN21QMediaPlaylistControl19currentIndexChangedEi@Qt_5_PRIVATE_API 5.6.0~beta
 _ZN21QMediaPlaylistControl19currentMediaChangedERK13QMediaContent@Qt_5_PRIVATE_API 5.6.0~beta
 _ZN21QMediaPlaylistControl19playbackModeChangedEN14QMediaPlaylist12PlaybackModeE@Qt_5_PRIVATE_API 5.6.0~beta
 _ZN21QMediaPlaylistControl23playlistProviderChangedEv@Qt_5_PRIVATE_API 5.6.0~beta
 _ZN21QMediaPlaylistControlC1EP7QObject@Qt_5_PRIVATE_API 5.6.0~beta
 _ZN21QMediaPlaylistControlC2EP7QObject@Qt_5_PRIVATE_API 5.6.0~beta
 _ZN21QMediaPlaylistControlD0Ev@Qt_5_PRIVATE_API 5.6.0~beta
 _ZN21QMediaPlaylistControlD1Ev@Qt_5_PRIVATE_API 5.6.0~beta
 _ZN21QMediaPlaylistControlD2Ev@Qt_5_PRIVATE_API 5.6.0~beta
 _ZN21QMediaRecorderControl11qt_metacallEN11QMetaObject4CallEiPPv@Qt_5 5.6.0~beta
 _ZN21QMediaRecorderControl11qt_metacastEPKc@Qt_5 5.6.0~beta
 _ZN21QMediaRecorderControl12mutedChangedEb@Qt_5 5.6.0~beta
 _ZN21QMediaRecorderControl12stateChangedEN14QMediaRecorder5StateE@Qt_5 5.6.0~beta
 _ZN21QMediaRecorderControl13statusChangedEN14QMediaRecorder6StatusE@Qt_5 5.6.0~beta
 _ZN21QMediaRecorderControl13volumeChangedEd@Qt_5 5.6.0~beta
 _ZN21QMediaRecorderControl15durationChangedEx@Qt_5 5.6.0~beta
 _ZN21QMediaRecorderControl16staticMetaObjectE@Qt_5 5.6.0~beta
 _ZN21QMediaRecorderControl21actualLocationChangedERK4QUrl@Qt_5 5.6.0~beta
 _ZN21QMediaRecorderControl5errorEiRK7QString@Qt_5 5.6.0~beta
 _ZN21QMediaRecorderControlC1EP7QObject@Qt_5 5.6.0~beta
 _ZN21QMediaRecorderControlC2EP7QObject@Qt_5 5.6.0~beta
 _ZN21QMediaRecorderControlD0Ev@Qt_5 5.6.0~beta
 _ZN21QMediaRecorderControlD1Ev@Qt_5 5.6.0~beta
 _ZN21QMediaRecorderControlD2Ev@Qt_5 5.6.0~beta
 _ZN21QMediaServiceProvider11qt_metacallEN11QMetaObject4CallEiPPv@Qt_5_PRIVATE_API 5.6.0~beta
 _ZN21QMediaServiceProvider11qt_metacastEPKc@Qt_5_PRIVATE_API 5.6.0~beta
 _ZN21QMediaServiceProvider16staticMetaObjectE@Qt_5_PRIVATE_API 5.6.0~beta
 _ZN21QMediaServiceProvider17deviceDescriptionERK10QByteArrayS2_@Qt_5_PRIVATE_API 5.6.0~beta
 _ZN21QMediaServiceProvider22defaultServiceProviderEv@Qt_5_PRIVATE_API 5.6.0~beta
 _ZN21QMediaServiceProvider25setDefaultServiceProviderEPS_@Qt_5_PRIVATE_API 5.6.0~beta
 _ZN21QMediaStorageLocation18addStorageLocationENS_9MediaTypeERK7QString@Qt_5_PRIVATE_API 5.6.0~beta
 _ZN21QMediaStorageLocationC1Ev@Qt_5_PRIVATE_API 5.6.0~beta
 _ZN21QMediaStorageLocationC2Ev@Qt_5_PRIVATE_API 5.6.0~beta
 _ZN21QVideoEncoderSettings10setBitRateEi@Qt_5 5.6.0~beta
 _ZN21QVideoEncoderSettings10setQualityEN11QMultimedia15EncodingQualityE@Qt_5 5.6.0~beta
 _ZN21QVideoEncoderSettings12setFrameRateEd@Qt_5 5.6.0~beta
 _ZN21QVideoEncoderSettings13setResolutionERK5QSize@Qt_5 5.6.0~beta
 _ZN21QVideoEncoderSettings13setResolutionEii@Qt_5 5.6.0~beta
 _ZN21QVideoEncoderSettings15setEncodingModeEN11QMultimedia12EncodingModeE@Qt_5 5.6.0~beta
 _ZN21QVideoEncoderSettings17setEncodingOptionERK7QStringRK8QVariant@Qt_5 5.6.0~beta
 _ZN21QVideoEncoderSettings18setEncodingOptionsERK4QMapI7QString8QVariantE@Qt_5 5.6.0~beta
 _ZN21QVideoEncoderSettings8setCodecERK7QString@Qt_5 5.6.0~beta
 _ZN21QVideoEncoderSettingsC1ERKS_@Qt_5 5.6.0~beta
 _ZN21QVideoEncoderSettingsC1Ev@Qt_5 5.6.0~beta
 _ZN21QVideoEncoderSettingsC2ERKS_@Qt_5 5.6.0~beta
 _ZN21QVideoEncoderSettingsC2Ev@Qt_5 5.6.0~beta
 _ZN21QVideoEncoderSettingsD1Ev@Qt_5 5.6.0~beta
 _ZN21QVideoEncoderSettingsD2Ev@Qt_5 5.6.0~beta
 _ZN21QVideoEncoderSettingsaSERKS_@Qt_5 5.6.0~beta
 _ZN21QVideoRendererControl11qt_metacallEN11QMetaObject4CallEiPPv@Qt_5 5.6.0~beta
 _ZN21QVideoRendererControl11qt_metacastEPKc@Qt_5 5.6.0~beta
 _ZN21QVideoRendererControl16staticMetaObjectE@Qt_5 5.6.0~beta
 _ZN21QVideoRendererControlC1EP7QObject@Qt_5 5.6.0~beta
 _ZN21QVideoRendererControlC2EP7QObject@Qt_5 5.6.0~beta
 _ZN21QVideoRendererControlD0Ev@Qt_5 5.6.0~beta
 _ZN21QVideoRendererControlD1Ev@Qt_5 5.6.0~beta
 _ZN21QVideoRendererControlD2Ev@Qt_5 5.6.0~beta
 _ZN22QCameraExposureControl11qt_metacallEN11QMetaObject4CallEiPPv@Qt_5 5.6.0~beta
 _ZN22QCameraExposureControl11qt_metacastEPKc@Qt_5 5.6.0~beta
 _ZN22QCameraExposureControl16staticMetaObjectE@Qt_5 5.6.0~beta
 _ZN22QCameraExposureControl18actualValueChangedEi@Qt_5 5.6.0~beta
 _ZN22QCameraExposureControl21parameterRangeChangedEi@Qt_5 5.6.0~beta
 _ZN22QCameraExposureControl21requestedValueChangedEi@Qt_5 5.6.0~beta
 _ZN22QCameraExposureControlC1EP7QObject@Qt_5 5.6.0~beta
 _ZN22QCameraExposureControlC2EP7QObject@Qt_5 5.6.0~beta
 _ZN22QCameraExposureControlD0Ev@Qt_5 5.6.0~beta
 _ZN22QCameraExposureControlD1Ev@Qt_5 5.6.0~beta
 _ZN22QCameraExposureControlD2Ev@Qt_5 5.6.0~beta
 _ZN22QCameraFeedbackControl11qt_metacallEN11QMetaObject4CallEiPPv@Qt_5 5.6.0~beta
 _ZN22QCameraFeedbackControl11qt_metacastEPKc@Qt_5 5.6.0~beta
 _ZN22QCameraFeedbackControl16staticMetaObjectE@Qt_5 5.6.0~beta
 _ZN22QCameraFeedbackControlC1EP7QObject@Qt_5 5.6.0~beta
 _ZN22QCameraFeedbackControlC2EP7QObject@Qt_5 5.6.0~beta
 _ZN22QCameraFeedbackControlD0Ev@Qt_5 5.6.0~beta
 _ZN22QCameraFeedbackControlD1Ev@Qt_5 5.6.0~beta
 _ZN22QCameraFeedbackControlD2Ev@Qt_5 5.6.0~beta
 _ZN22QCameraImageProcessing11qt_metacallEN11QMetaObject4CallEiPPv@Qt_5 5.6.0~beta
 _ZN22QCameraImageProcessing11qt_metacastEPKc@Qt_5 5.6.0~beta
 _ZN22QCameraImageProcessing11setContrastEd@Qt_5 5.6.0~beta
 _ZN22QCameraImageProcessing13setSaturationEd@Qt_5 5.6.0~beta
 _ZN22QCameraImageProcessing14setColorFilterENS_11ColorFilterE@Qt_5 5.6.0~beta
 _ZN22QCameraImageProcessing16staticMetaObjectE@Qt_5 5.6.0~beta
 _ZN22QCameraImageProcessing17setDenoisingLevelEd@Qt_5 5.6.0~beta
 _ZN22QCameraImageProcessing18setSharpeningLevelEd@Qt_5 5.6.0~beta
 _ZN22QCameraImageProcessing19setWhiteBalanceModeENS_16WhiteBalanceModeE@Qt_5 5.6.0~beta
 _ZN22QCameraImageProcessing21setManualWhiteBalanceEd@Qt_5 5.6.0~beta
 _ZN22QCameraImageProcessingC1EP7QCamera@Qt_5 5.6.0~beta
 _ZN22QCameraImageProcessingC2EP7QCamera@Qt_5 5.6.0~beta
 _ZN22QCameraImageProcessingD0Ev@Qt_5 5.6.0~beta
 _ZN22QCameraImageProcessingD1Ev@Qt_5 5.6.0~beta
 _ZN22QCameraImageProcessingD2Ev@Qt_5 5.6.0~beta
 _ZN22QMediaContainerControl11qt_metacallEN11QMetaObject4CallEiPPv@Qt_5 5.6.0~beta
 _ZN22QMediaContainerControl11qt_metacastEPKc@Qt_5 5.6.0~beta
 _ZN22QMediaContainerControl16staticMetaObjectE@Qt_5 5.6.0~beta
 _ZN22QMediaContainerControlC1EP7QObject@Qt_5 5.6.0~beta
 _ZN22QMediaContainerControlC2EP7QObject@Qt_5 5.6.0~beta
 _ZN22QMediaContainerControlD0Ev@Qt_5 5.6.0~beta
 _ZN22QMediaContainerControlD1Ev@Qt_5 5.6.0~beta
 _ZN22QMediaContainerControlD2Ev@Qt_5 5.6.0~beta
 _ZN22QMediaPlaylistIOPlugin11qt_metacallEN11QMetaObject4CallEiPPv@Qt_5_PRIVATE_API 5.6.0~beta
 _ZN22QMediaPlaylistIOPlugin11qt_metacastEPKc@Qt_5_PRIVATE_API 5.6.0~beta
 _ZN22QMediaPlaylistIOPlugin16staticMetaObjectE@Qt_5_PRIVATE_API 5.6.0~beta
 _ZN22QMediaPlaylistIOPluginC1EP7QObject@Qt_5_PRIVATE_API 5.6.0~beta
 _ZN22QMediaPlaylistIOPluginC2EP7QObject@Qt_5_PRIVATE_API 5.6.0~beta
 _ZN22QMediaPlaylistIOPluginD0Ev@Qt_5_PRIVATE_API 5.6.0~beta
 _ZN22QMediaPlaylistIOPluginD1Ev@Qt_5_PRIVATE_API 5.6.0~beta
 _ZN22QMediaPlaylistIOPluginD2Ev@Qt_5_PRIVATE_API 5.6.0~beta
 _ZN22QMediaPlaylistProvider10loadFailedEN14QMediaPlaylist5ErrorERK7QString@Qt_5_PRIVATE_API 5.6.0~beta
 _ZN22QMediaPlaylistProvider11insertMediaEiRK13QMediaContent@Qt_5_PRIVATE_API 5.6.0~beta
 _ZN22QMediaPlaylistProvider11insertMediaEiRK5QListI13QMediaContentE@Qt_5_PRIVATE_API 5.6.0~beta
 _ZN22QMediaPlaylistProvider11qt_metacallEN11QMetaObject4CallEiPPv@Qt_5_PRIVATE_API 5.6.0~beta
 _ZN22QMediaPlaylistProvider11qt_metacastEPKc@Qt_5_PRIVATE_API 5.6.0~beta
 _ZN22QMediaPlaylistProvider11removeMediaEi@Qt_5_PRIVATE_API 5.6.0~beta
 _ZN22QMediaPlaylistProvider11removeMediaEii@Qt_5_PRIVATE_API 5.6.0~beta
 _ZN22QMediaPlaylistProvider12mediaChangedEii@Qt_5_PRIVATE_API 5.6.0~beta
 _ZN22QMediaPlaylistProvider12mediaRemovedEii@Qt_5_PRIVATE_API 5.6.0~beta
 _ZN22QMediaPlaylistProvider13mediaInsertedEii@Qt_5_PRIVATE_API 5.6.0~beta
 _ZN22QMediaPlaylistProvider16staticMetaObjectE@Qt_5_PRIVATE_API 5.6.0~beta
 _ZN22QMediaPlaylistProvider21mediaAboutToBeRemovedEii@Qt_5_PRIVATE_API 5.6.0~beta
 _ZN22QMediaPlaylistProvider22mediaAboutToBeInsertedEii@Qt_5_PRIVATE_API 5.6.0~beta
 _ZN22QMediaPlaylistProvider4loadEP9QIODevicePKc@Qt_5_PRIVATE_API 5.6.0~beta
 _ZN22QMediaPlaylistProvider4loadERK15QNetworkRequestPKc@Qt_5_PRIVATE_API 5.6.0~beta
 _ZN22QMediaPlaylistProvider4saveEP9QIODevicePKc@Qt_5_PRIVATE_API 5.6.0~beta
 _ZN22QMediaPlaylistProvider4saveERK4QUrlPKc@Qt_5_PRIVATE_API 5.6.0~beta
 _ZN22QMediaPlaylistProvider5clearEv@Qt_5_PRIVATE_API 5.6.0~beta
 _ZN22QMediaPlaylistProvider6loadedEv@Qt_5_PRIVATE_API 5.6.0~beta
 _ZN22QMediaPlaylistProvider7shuffleEv@Qt_5_PRIVATE_API 5.6.0~beta
 _ZN22QMediaPlaylistProvider8addMediaERK13QMediaContent@Qt_5_PRIVATE_API 5.6.0~beta
 _ZN22QMediaPlaylistProvider8addMediaERK5QListI13QMediaContentE@Qt_5_PRIVATE_API 5.6.0~beta
 _ZN22QMediaPlaylistProviderC1EP7QObject@Qt_5_PRIVATE_API 5.6.0~beta
 _ZN22QMediaPlaylistProviderC1ER29QMediaPlaylistProviderPrivateP7QObject@Qt_5_PRIVATE_API 5.6.0~beta
 _ZN22QMediaPlaylistProviderC2EP7QObject@Qt_5_PRIVATE_API 5.6.0~beta
 _ZN22QMediaPlaylistProviderC2ER29QMediaPlaylistProviderPrivateP7QObject@Qt_5_PRIVATE_API 5.6.0~beta
 _ZN22QMediaPlaylistProviderD0Ev@Qt_5_PRIVATE_API 5.6.0~beta
 _ZN22QMediaPlaylistProviderD1Ev@Qt_5_PRIVATE_API 5.6.0~beta
 _ZN22QMediaPlaylistProviderD2Ev@Qt_5_PRIVATE_API 5.6.0~beta
 _ZN22QMetaDataReaderControl11qt_metacallEN11QMetaObject4CallEiPPv@Qt_5 5.6.0~beta
 _ZN22QMetaDataReaderControl11qt_metacastEPKc@Qt_5 5.6.0~beta
 _ZN22QMetaDataReaderControl15metaDataChangedERK7QStringRK8QVariant@Qt_5 5.6.0~beta
 _ZN22QMetaDataReaderControl15metaDataChangedEv@Qt_5 5.6.0~beta
 _ZN22QMetaDataReaderControl16staticMetaObjectE@Qt_5 5.6.0~beta
 _ZN22QMetaDataReaderControl24metaDataAvailableChangedEb@Qt_5 5.6.0~beta
 _ZN22QMetaDataReaderControlC1EP7QObject@Qt_5 5.6.0~beta
 _ZN22QMetaDataReaderControlC2EP7QObject@Qt_5 5.6.0~beta
 _ZN22QMetaDataReaderControlD0Ev@Qt_5 5.6.0~beta
 _ZN22QMetaDataReaderControlD1Ev@Qt_5 5.6.0~beta
 _ZN22QMetaDataReaderControlD2Ev@Qt_5 5.6.0~beta
 _ZN22QMetaDataWriterControl11qt_metacallEN11QMetaObject4CallEiPPv@Qt_5 5.6.0~beta
 _ZN22QMetaDataWriterControl11qt_metacastEPKc@Qt_5 5.6.0~beta
 _ZN22QMetaDataWriterControl15metaDataChangedERK7QStringRK8QVariant@Qt_5 5.6.0~beta
 _ZN22QMetaDataWriterControl15metaDataChangedEv@Qt_5 5.6.0~beta
 _ZN22QMetaDataWriterControl15writableChangedEb@Qt_5 5.6.0~beta
 _ZN22QMetaDataWriterControl16staticMetaObjectE@Qt_5 5.6.0~beta
 _ZN22QMetaDataWriterControl24metaDataAvailableChangedEb@Qt_5 5.6.0~beta
 _ZN22QMetaDataWriterControlC1EP7QObject@Qt_5 5.6.0~beta
 _ZN22QMetaDataWriterControlC2EP7QObject@Qt_5 5.6.0~beta
 _ZN22QMetaDataWriterControlD0Ev@Qt_5 5.6.0~beta
 _ZN22QMetaDataWriterControlD1Ev@Qt_5 5.6.0~beta
 _ZN22QMetaDataWriterControlD2Ev@Qt_5 5.6.0~beta
 _ZN23QMediaAudioProbeControl11qt_metacallEN11QMetaObject4CallEiPPv@Qt_5 5.6.0~beta
 _ZN23QMediaAudioProbeControl11qt_metacastEPKc@Qt_5 5.6.0~beta
 _ZN23QMediaAudioProbeControl16staticMetaObjectE@Qt_5 5.6.0~beta
 _ZN23QMediaAudioProbeControl17audioBufferProbedERK12QAudioBuffer@Qt_5 5.6.0~beta
 _ZN23QMediaAudioProbeControl5flushEv@Qt_5 5.6.0~beta
 _ZN23QMediaAudioProbeControlC1EP7QObject@Qt_5 5.6.0~beta
 _ZN23QMediaAudioProbeControlC2EP7QObject@Qt_5 5.6.0~beta
 _ZN23QMediaAudioProbeControlD0Ev@Qt_5 5.6.0~beta
 _ZN23QMediaAudioProbeControlD1Ev@Qt_5 5.6.0~beta
 _ZN23QMediaAudioProbeControlD2Ev@Qt_5 5.6.0~beta
 _ZN23QMediaBindableInterfaceD0Ev@Qt_5 5.6.0~beta
 _ZN23QMediaBindableInterfaceD1Ev@Qt_5 5.6.0~beta
 _ZN23QMediaBindableInterfaceD2Ev@Qt_5 5.6.0~beta
 _ZN23QMediaPlaylistNavigator11qt_metacallEN11QMetaObject4CallEiPPv@Qt_5_PRIVATE_API 5.6.0~beta
 _ZN23QMediaPlaylistNavigator11qt_metacastEPKc@Qt_5_PRIVATE_API 5.6.0~beta
 _ZN23QMediaPlaylistNavigator11setPlaylistEP22QMediaPlaylistProvider@Qt_5_PRIVATE_API 5.6.0~beta
 _ZN23QMediaPlaylistNavigator15setPlaybackModeEN14QMediaPlaylist12PlaybackModeE@Qt_5_PRIVATE_API 5.6.0~beta
 _ZN23QMediaPlaylistNavigator16staticMetaObjectE@Qt_5_PRIVATE_API 5.6.0~beta
 _ZN23QMediaPlaylistNavigator19currentIndexChangedEi@Qt_5_PRIVATE_API 5.6.0~beta
 _ZN23QMediaPlaylistNavigator19playbackModeChangedEN14QMediaPlaylist12PlaybackModeE@Qt_5_PRIVATE_API 5.6.0~beta
 _ZN23QMediaPlaylistNavigator23surroundingItemsChangedEv@Qt_5_PRIVATE_API 5.6.0~beta
 _ZN23QMediaPlaylistNavigator4jumpEi@Qt_5_PRIVATE_API 5.6.0~beta
 _ZN23QMediaPlaylistNavigator4nextEv@Qt_5_PRIVATE_API 5.6.0~beta
 _ZN23QMediaPlaylistNavigator8previousEv@Qt_5_PRIVATE_API 5.6.0~beta
 _ZN23QMediaPlaylistNavigator9activatedERK13QMediaContent@Qt_5_PRIVATE_API 5.6.0~beta
 _ZN23QMediaPlaylistNavigatorC1EP22QMediaPlaylistProviderP7QObject@Qt_5_PRIVATE_API 5.6.0~beta
 _ZN23QMediaPlaylistNavigatorC2EP22QMediaPlaylistProviderP7QObject@Qt_5_PRIVATE_API 5.6.0~beta
 _ZN23QMediaPlaylistNavigatorD0Ev@Qt_5_PRIVATE_API 5.6.0~beta
 _ZN23QMediaPlaylistNavigatorD1Ev@Qt_5_PRIVATE_API 5.6.0~beta
 _ZN23QMediaPlaylistNavigatorD2Ev@Qt_5_PRIVATE_API 5.6.0~beta
 _ZN23QMediaVideoProbeControl11qt_metacallEN11QMetaObject4CallEiPPv@Qt_5 5.6.0~beta
 _ZN23QMediaVideoProbeControl11qt_metacastEPKc@Qt_5 5.6.0~beta
 _ZN23QMediaVideoProbeControl16staticMetaObjectE@Qt_5 5.6.0~beta
 _ZN23QMediaVideoProbeControl16videoFrameProbedERK11QVideoFrame@Qt_5 5.6.0~beta
 _ZN23QMediaVideoProbeControl5flushEv@Qt_5 5.6.0~beta
 _ZN23QMediaVideoProbeControlC1EP7QObject@Qt_5 5.6.0~beta
 _ZN23QMediaVideoProbeControlC2EP7QObject@Qt_5 5.6.0~beta
 _ZN23QMediaVideoProbeControlD0Ev@Qt_5 5.6.0~beta
 _ZN23QMediaVideoProbeControlD1Ev@Qt_5 5.6.0~beta
 _ZN23QMediaVideoProbeControlD2Ev@Qt_5 5.6.0~beta
 _ZN24QAbstractAudioDeviceInfo11qt_metacallEN11QMetaObject4CallEiPPv@Qt_5 5.6.0~beta
 _ZN24QAbstractAudioDeviceInfo11qt_metacastEPKc@Qt_5 5.6.0~beta
 _ZN24QAbstractAudioDeviceInfo16staticMetaObjectE@Qt_5 5.6.0~beta
 _ZN25QCameraViewfinderSettings13setResolutionERK5QSize@Qt_5 5.6.0~beta
 _ZN25QCameraViewfinderSettings14setPixelFormatEN11QVideoFrame11PixelFormatE@Qt_5 5.6.0~beta
 _ZN25QCameraViewfinderSettings19setMaximumFrameRateEd@Qt_5 5.6.0~beta
 _ZN25QCameraViewfinderSettings19setMinimumFrameRateEd@Qt_5 5.6.0~beta
 _ZN25QCameraViewfinderSettings19setPixelAspectRatioERK5QSize@Qt_5 5.6.0~beta
 _ZN25QCameraViewfinderSettingsC1ERKS_@Qt_5 5.6.0~beta
 _ZN25QCameraViewfinderSettingsC1Ev@Qt_5 5.6.0~beta
 _ZN25QCameraViewfinderSettingsC2ERKS_@Qt_5 5.6.0~beta
 _ZN25QCameraViewfinderSettingsC2Ev@Qt_5 5.6.0~beta
 _ZN25QCameraViewfinderSettingsD1Ev@Qt_5 5.6.0~beta
 _ZN25QCameraViewfinderSettingsD2Ev@Qt_5 5.6.0~beta
 _ZN25QCameraViewfinderSettingsaSERKS_@Qt_5 5.6.0~beta
 _ZN25QMediaAvailabilityControl11qt_metacallEN11QMetaObject4CallEiPPv@Qt_5 5.6.0~beta
 _ZN25QMediaAvailabilityControl11qt_metacastEPKc@Qt_5 5.6.0~beta
 _ZN25QMediaAvailabilityControl16staticMetaObjectE@Qt_5 5.6.0~beta
 _ZN25QMediaAvailabilityControl19availabilityChangedEN11QMultimedia18AvailabilityStatusE@Qt_5 5.6.0~beta
 _ZN25QMediaAvailabilityControlC1EP7QObject@Qt_5 5.6.0~beta
 _ZN25QMediaAvailabilityControlC2EP7QObject@Qt_5 5.6.0~beta
 _ZN25QMediaAvailabilityControlD0Ev@Qt_5 5.6.0~beta
 _ZN25QMediaAvailabilityControlD1Ev@Qt_5 5.6.0~beta
 _ZN25QMediaAvailabilityControlD2Ev@Qt_5 5.6.0~beta
 _ZN25QMediaServiceProviderHintC1E6QFlagsINS_7FeatureEE@Qt_5 5.6.0~beta
 _ZN25QMediaServiceProviderHintC1EN7QCamera8PositionE@Qt_5 5.6.0~beta
 _ZN25QMediaServiceProviderHintC1ERK10QByteArray@Qt_5 5.6.0~beta
 _ZN25QMediaServiceProviderHintC1ERK7QStringRK11QStringList@Qt_5 5.6.0~beta
 _ZN25QMediaServiceProviderHintC1ERKS_@Qt_5 5.6.0~beta
 _ZN25QMediaServiceProviderHintC1Ev@Qt_5 5.6.0~beta
 _ZN25QMediaServiceProviderHintC2E6QFlagsINS_7FeatureEE@Qt_5 5.6.0~beta
 _ZN25QMediaServiceProviderHintC2EN7QCamera8PositionE@Qt_5 5.6.0~beta
 _ZN25QMediaServiceProviderHintC2ERK10QByteArray@Qt_5 5.6.0~beta
 _ZN25QMediaServiceProviderHintC2ERK7QStringRK11QStringList@Qt_5 5.6.0~beta
 _ZN25QMediaServiceProviderHintC2ERKS_@Qt_5 5.6.0~beta
 _ZN25QMediaServiceProviderHintC2Ev@Qt_5 5.6.0~beta
 _ZN25QMediaServiceProviderHintD1Ev@Qt_5 5.6.0~beta
 _ZN25QMediaServiceProviderHintD2Ev@Qt_5 5.6.0~beta
 _ZN25QMediaServiceProviderHintaSERKS_@Qt_5 5.6.0~beta
 _ZN26QAbstractPlanarVideoBuffer3mapEN20QAbstractVideoBuffer7MapModeEPiS2_@Qt_5 5.6.0~beta
 _ZN26QAbstractPlanarVideoBufferC1EN20QAbstractVideoBuffer10HandleTypeE@Qt_5 5.6.0~beta
 _ZN26QAbstractPlanarVideoBufferC1ER33QAbstractPlanarVideoBufferPrivateN20QAbstractVideoBuffer10HandleTypeE@Qt_5 5.6.0~beta
 _ZN26QAbstractPlanarVideoBufferC2EN20QAbstractVideoBuffer10HandleTypeE@Qt_5 5.6.0~beta
 _ZN26QAbstractPlanarVideoBufferC2ER33QAbstractPlanarVideoBufferPrivateN20QAbstractVideoBuffer10HandleTypeE@Qt_5 5.6.0~beta
 _ZN26QAbstractPlanarVideoBufferD0Ev@Qt_5 5.6.0~beta
 _ZN26QAbstractPlanarVideoBufferD1Ev@Qt_5 5.6.0~beta
 _ZN26QAbstractPlanarVideoBufferD2Ev@Qt_5 5.6.0~beta
 _ZN26QAudioInputSelectorControl11qt_metacallEN11QMetaObject4CallEiPPv@Qt_5 5.6.0~beta
 _ZN26QAudioInputSelectorControl11qt_metacastEPKc@Qt_5 5.6.0~beta
 _ZN26QAudioInputSelectorControl16staticMetaObjectE@Qt_5 5.6.0~beta
 _ZN26QAudioInputSelectorControl18activeInputChangedERK7QString@Qt_5 5.6.0~beta
 _ZN26QAudioInputSelectorControl22availableInputsChangedEv@Qt_5 5.6.0~beta
 _ZN26QAudioInputSelectorControlC1EP7QObject@Qt_5 5.6.0~beta
 _ZN26QAudioInputSelectorControlC2EP7QObject@Qt_5 5.6.0~beta
 _ZN26QAudioInputSelectorControlD0Ev@Qt_5 5.6.0~beta
 _ZN26QAudioInputSelectorControlD1Ev@Qt_5 5.6.0~beta
 _ZN26QAudioInputSelectorControlD2Ev@Qt_5 5.6.0~beta
 _ZN26QCameraImageCaptureControl10imageSavedEiRK7QString@Qt_5 5.6.0~beta
 _ZN26QCameraImageCaptureControl11qt_metacallEN11QMetaObject4CallEiPPv@Qt_5 5.6.0~beta
 _ZN26QCameraImageCaptureControl11qt_metacastEPKc@Qt_5 5.6.0~beta
 _ZN26QCameraImageCaptureControl12imageExposedEi@Qt_5 5.6.0~beta
 _ZN26QCameraImageCaptureControl13imageCapturedEiRK6QImage@Qt_5 5.6.0~beta
 _ZN26QCameraImageCaptureControl14imageAvailableEiRK11QVideoFrame@Qt_5 5.6.0~beta
 _ZN26QCameraImageCaptureControl16staticMetaObjectE@Qt_5 5.6.0~beta
 _ZN26QCameraImageCaptureControl22imageMetadataAvailableEiRK7QStringRK8QVariant@Qt_5 5.6.0~beta
 _ZN26QCameraImageCaptureControl22readyForCaptureChangedEb@Qt_5 5.6.0~beta
 _ZN26QCameraImageCaptureControl5errorEiiRK7QString@Qt_5 5.6.0~beta
 _ZN26QCameraImageCaptureControlC1EP7QObject@Qt_5 5.6.0~beta
 _ZN26QCameraImageCaptureControlC2EP7QObject@Qt_5 5.6.0~beta
 _ZN26QCameraImageCaptureControlD0Ev@Qt_5 5.6.0~beta
 _ZN26QCameraImageCaptureControlD1Ev@Qt_5 5.6.0~beta
 _ZN26QCameraImageCaptureControlD2Ev@Qt_5 5.6.0~beta
 _ZN26QMediaNetworkAccessControl11qt_metacallEN11QMetaObject4CallEiPPv@Qt_5 5.6.0~beta
 _ZN26QMediaNetworkAccessControl11qt_metacastEPKc@Qt_5 5.6.0~beta
 _ZN26QMediaNetworkAccessControl16staticMetaObjectE@Qt_5 5.6.0~beta
 _ZN26QMediaNetworkAccessControl20configurationChangedERK21QNetworkConfiguration@Qt_5 5.6.0~beta
 _ZN26QMediaNetworkAccessControlC1EP7QObject@Qt_5 5.6.0~beta
 _ZN26QMediaNetworkAccessControlC2EP7QObject@Qt_5 5.6.0~beta
 _ZN26QMediaNetworkAccessControlD0Ev@Qt_5 5.6.0~beta
 _ZN26QMediaNetworkAccessControlD1Ev@Qt_5 5.6.0~beta
 _ZN26QMediaNetworkAccessControlD2Ev@Qt_5 5.6.0~beta
 _ZN26QMediaResourcePolicyPlugin11qt_metacallEN11QMetaObject4CallEiPPv@Qt_5_PRIVATE_API 5.6.0~beta
 _ZN26QMediaResourcePolicyPlugin11qt_metacastEPKc@Qt_5_PRIVATE_API 5.6.0~beta
 _ZN26QMediaResourcePolicyPlugin16staticMetaObjectE@Qt_5_PRIVATE_API 5.6.0~beta
 _ZN26QMediaResourcePolicyPluginC1EP7QObject@Qt_5_PRIVATE_API 5.6.0~beta
 _ZN26QMediaResourcePolicyPluginC2EP7QObject@Qt_5_PRIVATE_API 5.6.0~beta
 _ZN26QMediaResourcePolicyPluginD0Ev@Qt_5_PRIVATE_API 5.6.0~beta
 _ZN26QMediaResourcePolicyPluginD1Ev@Qt_5_PRIVATE_API 5.6.0~beta
 _ZN26QMediaResourcePolicyPluginD2Ev@Qt_5_PRIVATE_API 5.6.0~beta
 _ZN27QAudioOutputSelectorControl11qt_metacallEN11QMetaObject4CallEiPPv@Qt_5 5.6.0~beta
 _ZN27QAudioOutputSelectorControl11qt_metacastEPKc@Qt_5 5.6.0~beta
 _ZN27QAudioOutputSelectorControl16staticMetaObjectE@Qt_5 5.6.0~beta
 _ZN27QAudioOutputSelectorControl19activeOutputChangedERK7QString@Qt_5 5.6.0~beta
 _ZN27QAudioOutputSelectorControl23availableOutputsChangedEv@Qt_5 5.6.0~beta
 _ZN27QAudioOutputSelectorControlC1EP7QObject@Qt_5 5.6.0~beta
 _ZN27QAudioOutputSelectorControlC2EP7QObject@Qt_5 5.6.0~beta
 _ZN27QAudioOutputSelectorControlD0Ev@Qt_5 5.6.0~beta
 _ZN27QAudioOutputSelectorControlD1Ev@Qt_5 5.6.0~beta
 _ZN27QAudioOutputSelectorControlD2Ev@Qt_5 5.6.0~beta
 _ZN27QMediaPlaylistSourceControl11qt_metacallEN11QMetaObject4CallEiPPv@Qt_5_PRIVATE_API 5.6.0~beta
 _ZN27QMediaPlaylistSourceControl11qt_metacastEPKc@Qt_5_PRIVATE_API 5.6.0~beta
 _ZN27QMediaPlaylistSourceControl15playlistChangedEP14QMediaPlaylist@Qt_5_PRIVATE_API 5.6.0~beta
 _ZN27QMediaPlaylistSourceControl16staticMetaObjectE@Qt_5_PRIVATE_API 5.6.0~beta
 _ZN27QMediaPlaylistSourceControlC1EP7QObject@Qt_5_PRIVATE_API 5.6.0~beta
 _ZN27QMediaPlaylistSourceControlC2EP7QObject@Qt_5_PRIVATE_API 5.6.0~beta
 _ZN27QMediaPlaylistSourceControlD0Ev@Qt_5_PRIVATE_API 5.6.0~beta
 _ZN27QMediaPlaylistSourceControlD1Ev@Qt_5_PRIVATE_API 5.6.0~beta
 _ZN27QMediaPlaylistSourceControlD2Ev@Qt_5_PRIVATE_API 5.6.0~beta
 _ZN27QMediaServiceProviderPlugin11qt_metacallEN11QMetaObject4CallEiPPv@Qt_5 5.6.0~beta
 _ZN27QMediaServiceProviderPlugin11qt_metacastEPKc@Qt_5 5.6.0~beta
 _ZN27QMediaServiceProviderPlugin16staticMetaObjectE@Qt_5 5.6.0~beta
 _ZN27QVideoDeviceSelectorControl11qt_metacallEN11QMetaObject4CallEiPPv@Qt_5 5.6.0~beta
 _ZN27QVideoDeviceSelectorControl11qt_metacastEPKc@Qt_5 5.6.0~beta
 _ZN27QVideoDeviceSelectorControl14devicesChangedEv@Qt_5 5.6.0~beta
 _ZN27QVideoDeviceSelectorControl16staticMetaObjectE@Qt_5 5.6.0~beta
 _ZN27QVideoDeviceSelectorControl21selectedDeviceChangedERK7QString@Qt_5 5.6.0~beta
 _ZN27QVideoDeviceSelectorControl21selectedDeviceChangedEi@Qt_5 5.6.0~beta
 _ZN27QVideoDeviceSelectorControlC1EP7QObject@Qt_5 5.6.0~beta
 _ZN27QVideoDeviceSelectorControlC2EP7QObject@Qt_5 5.6.0~beta
 _ZN27QVideoDeviceSelectorControlD0Ev@Qt_5 5.6.0~beta
 _ZN27QVideoDeviceSelectorControlD1Ev@Qt_5 5.6.0~beta
 _ZN27QVideoDeviceSelectorControlD2Ev@Qt_5 5.6.0~beta
 _ZN28QAudioEncoderSettingsControl11qt_metacallEN11QMetaObject4CallEiPPv@Qt_5 5.6.0~beta
 _ZN28QAudioEncoderSettingsControl11qt_metacastEPKc@Qt_5 5.6.0~beta
 _ZN28QAudioEncoderSettingsControl16staticMetaObjectE@Qt_5 5.6.0~beta
 _ZN28QAudioEncoderSettingsControlC1EP7QObject@Qt_5 5.6.0~beta
 _ZN28QAudioEncoderSettingsControlC2EP7QObject@Qt_5 5.6.0~beta
 _ZN28QAudioEncoderSettingsControlD0Ev@Qt_5 5.6.0~beta
 _ZN28QAudioEncoderSettingsControlD1Ev@Qt_5 5.6.0~beta
 _ZN28QAudioEncoderSettingsControlD2Ev@Qt_5 5.6.0~beta
 _ZN28QAudioSystemFactoryInterfaceD0Ev@Qt_5 5.6.0~beta
 _ZN28QAudioSystemFactoryInterfaceD1Ev@Qt_5 5.6.0~beta
 _ZN28QAudioSystemFactoryInterfaceD2Ev@Qt_5 5.6.0~beta
 _ZN28QMediaGaplessPlaybackControl11qt_metacallEN11QMetaObject4CallEiPPv@Qt_5 5.6.0~beta
 _ZN28QMediaGaplessPlaybackControl11qt_metacastEPKc@Qt_5 5.6.0~beta
 _ZN28QMediaGaplessPlaybackControl16nextMediaChangedERK13QMediaContent@Qt_5 5.6.0~beta
 _ZN28QMediaGaplessPlaybackControl16staticMetaObjectE@Qt_5 5.6.0~beta
 _ZN28QMediaGaplessPlaybackControl19advancedToNextMediaEv@Qt_5 5.6.0~beta
 _ZN28QMediaGaplessPlaybackControl20crossfadeTimeChangedEd@Qt_5 5.6.0~beta
 _ZN28QMediaGaplessPlaybackControlC1EP7QObject@Qt_5 5.6.0~beta
 _ZN28QMediaGaplessPlaybackControlC2EP7QObject@Qt_5 5.6.0~beta
 _ZN28QMediaGaplessPlaybackControlD0Ev@Qt_5 5.6.0~beta
 _ZN28QMediaGaplessPlaybackControlD1Ev@Qt_5 5.6.0~beta
 _ZN28QMediaGaplessPlaybackControlD2Ev@Qt_5 5.6.0~beta
 _ZN28QVideoEncoderSettingsControl11qt_metacallEN11QMetaObject4CallEiPPv@Qt_5 5.6.0~beta
 _ZN28QVideoEncoderSettingsControl11qt_metacastEPKc@Qt_5 5.6.0~beta
 _ZN28QVideoEncoderSettingsControl16staticMetaObjectE@Qt_5 5.6.0~beta
 _ZN28QVideoEncoderSettingsControlC1EP7QObject@Qt_5 5.6.0~beta
 _ZN28QVideoEncoderSettingsControlC2EP7QObject@Qt_5 5.6.0~beta
 _ZN28QVideoEncoderSettingsControlD0Ev@Qt_5 5.6.0~beta
 _ZN28QVideoEncoderSettingsControlD1Ev@Qt_5 5.6.0~beta
 _ZN28QVideoEncoderSettingsControlD2Ev@Qt_5 5.6.0~beta
 _ZN29QCameraImageProcessingControl11qt_metacallEN11QMetaObject4CallEiPPv@Qt_5 5.6.0~beta
 _ZN29QCameraImageProcessingControl11qt_metacastEPKc@Qt_5 5.6.0~beta
 _ZN29QCameraImageProcessingControl16staticMetaObjectE@Qt_5 5.6.0~beta
 _ZN29QCameraImageProcessingControlC1EP7QObject@Qt_5 5.6.0~beta
 _ZN29QCameraImageProcessingControlC2EP7QObject@Qt_5 5.6.0~beta
 _ZN29QCameraImageProcessingControlD0Ev@Qt_5 5.6.0~beta
 _ZN29QCameraImageProcessingControlD1Ev@Qt_5 5.6.0~beta
 _ZN29QCameraImageProcessingControlD2Ev@Qt_5 5.6.0~beta
 _ZN29QMediaNetworkPlaylistProvider11insertMediaEiRK13QMediaContent@Qt_5_PRIVATE_API 5.6.0~beta
 _ZN29QMediaNetworkPlaylistProvider11insertMediaEiRK5QListI13QMediaContentE@Qt_5_PRIVATE_API 5.6.0~beta
 _ZN29QMediaNetworkPlaylistProvider11qt_metacallEN11QMetaObject4CallEiPPv@Qt_5_PRIVATE_API 5.6.0~beta
 _ZN29QMediaNetworkPlaylistProvider11qt_metacastEPKc@Qt_5_PRIVATE_API 5.6.0~beta
 _ZN29QMediaNetworkPlaylistProvider11removeMediaEi@Qt_5_PRIVATE_API 5.6.0~beta
 _ZN29QMediaNetworkPlaylistProvider11removeMediaEii@Qt_5_PRIVATE_API 5.6.0~beta
 _ZN29QMediaNetworkPlaylistProvider16staticMetaObjectE@Qt_5_PRIVATE_API 5.6.0~beta
 _ZN29QMediaNetworkPlaylistProvider4loadERK15QNetworkRequestPKc@Qt_5_PRIVATE_API 5.6.0~beta
 _ZN29QMediaNetworkPlaylistProvider5clearEv@Qt_5_PRIVATE_API 5.6.0~beta
 _ZN29QMediaNetworkPlaylistProvider7shuffleEv@Qt_5_PRIVATE_API 5.6.0~beta
 _ZN29QMediaNetworkPlaylistProvider8addMediaERK13QMediaContent@Qt_5_PRIVATE_API 5.6.0~beta
 _ZN29QMediaNetworkPlaylistProvider8addMediaERK5QListI13QMediaContentE@Qt_5_PRIVATE_API 5.6.0~beta
 _ZN29QMediaNetworkPlaylistProviderC1EP7QObject@Qt_5_PRIVATE_API 5.6.0~beta
 _ZN29QMediaNetworkPlaylistProviderC2EP7QObject@Qt_5_PRIVATE_API 5.6.0~beta
 _ZN29QMediaNetworkPlaylistProviderD0Ev@Qt_5_PRIVATE_API 5.6.0~beta
 _ZN29QMediaNetworkPlaylistProviderD1Ev@Qt_5_PRIVATE_API 5.6.0~beta
 _ZN29QMediaNetworkPlaylistProviderD2Ev@Qt_5_PRIVATE_API 5.6.0~beta
 _ZN30QVideoOutputOrientationHandler11qt_metacallEN11QMetaObject4CallEiPPv@Qt_5_PRIVATE_API 5.6.0~beta
 _ZN30QVideoOutputOrientationHandler11qt_metacastEPKc@Qt_5_PRIVATE_API 5.6.0~beta
 _ZN30QVideoOutputOrientationHandler16staticMetaObjectE@Qt_5_PRIVATE_API 5.6.0~beta
 _ZN30QVideoOutputOrientationHandler18orientationChangedEi@Qt_5_PRIVATE_API 5.6.0~beta
 _ZN30QVideoOutputOrientationHandler24screenOrientationChangedEN2Qt17ScreenOrientationE@Qt_5_PRIVATE_API 5.6.0~beta
 _ZN30QVideoOutputOrientationHandlerC1EP7QObject@Qt_5_PRIVATE_API 5.6.0~beta
 _ZN30QVideoOutputOrientationHandlerC2EP7QObject@Qt_5_PRIVATE_API 5.6.0~beta
 _ZN32QCameraCaptureDestinationControl11qt_metacallEN11QMetaObject4CallEiPPv@Qt_5 5.6.0~beta
 _ZN32QCameraCaptureDestinationControl11qt_metacastEPKc@Qt_5 5.6.0~beta
 _ZN32QCameraCaptureDestinationControl16staticMetaObjectE@Qt_5 5.6.0~beta
 _ZN32QCameraCaptureDestinationControl25captureDestinationChangedE6QFlagsIN19QCameraImageCapture18CaptureDestinationEE@Qt_5 5.6.0~beta
 _ZN32QCameraCaptureDestinationControlC1EP7QObject@Qt_5 5.6.0~beta
 _ZN32QCameraCaptureDestinationControlC2EP7QObject@Qt_5 5.6.0~beta
 _ZN32QCameraCaptureDestinationControlD0Ev@Qt_5 5.6.0~beta
 _ZN32QCameraCaptureDestinationControlD1Ev@Qt_5 5.6.0~beta
 _ZN32QCameraCaptureDestinationControlD2Ev@Qt_5 5.6.0~beta
 _ZN32QCameraViewfinderSettingsControl11qt_metacallEN11QMetaObject4CallEiPPv@Qt_5 5.6.0~beta
 _ZN32QCameraViewfinderSettingsControl11qt_metacastEPKc@Qt_5 5.6.0~beta
 _ZN32QCameraViewfinderSettingsControl16staticMetaObjectE@Qt_5 5.6.0~beta
 _ZN32QCameraViewfinderSettingsControlC1EP7QObject@Qt_5 5.6.0~beta
 _ZN32QCameraViewfinderSettingsControlC2EP7QObject@Qt_5 5.6.0~beta
 _ZN32QCameraViewfinderSettingsControlD0Ev@Qt_5 5.6.0~beta
 _ZN32QCameraViewfinderSettingsControlD1Ev@Qt_5 5.6.0~beta
 _ZN32QCameraViewfinderSettingsControlD2Ev@Qt_5 5.6.0~beta
 _ZN32QMediaPlayerResourceSetInterface11qt_metacallEN11QMetaObject4CallEiPPv@Qt_5_PRIVATE_API 5.6.0~beta
 _ZN32QMediaPlayerResourceSetInterface11qt_metacastEPKc@Qt_5_PRIVATE_API 5.6.0~beta
 _ZN32QMediaPlayerResourceSetInterface13resourcesLostEv@Qt_5_PRIVATE_API 5.6.0~beta
 _ZN32QMediaPlayerResourceSetInterface15resourcesDeniedEv@Qt_5_PRIVATE_API 5.6.0~beta
 _ZN32QMediaPlayerResourceSetInterface16resourcesGrantedEv@Qt_5_PRIVATE_API 5.6.0~beta
 _ZN32QMediaPlayerResourceSetInterface16staticMetaObjectE@Qt_5_PRIVATE_API 5.6.0~beta
 _ZN32QMediaPlayerResourceSetInterface17resourcesReleasedEv@Qt_5_PRIVATE_API 5.6.0~beta
 _ZN32QMediaPlayerResourceSetInterface19availabilityChangedEb@Qt_5_PRIVATE_API 5.6.0~beta
 _ZN32QMediaPlayerResourceSetInterface3iidEv@Qt_5_PRIVATE_API 5.6.0~beta
 _ZN32QMediaPlayerResourceSetInterfaceC1EP7QObject@Qt_5_PRIVATE_API 5.6.0~beta
 _ZN32QMediaPlayerResourceSetInterfaceC2EP7QObject@Qt_5_PRIVATE_API 5.6.0~beta
 _ZN33QCameraCaptureBufferFormatControl11qt_metacallEN11QMetaObject4CallEiPPv@Qt_5 5.6.0~beta
 _ZN33QCameraCaptureBufferFormatControl11qt_metacastEPKc@Qt_5 5.6.0~beta
 _ZN33QCameraCaptureBufferFormatControl16staticMetaObjectE@Qt_5 5.6.0~beta
 _ZN33QCameraCaptureBufferFormatControl19bufferFormatChangedEN11QVideoFrame11PixelFormatE@Qt_5 5.6.0~beta
 _ZN33QCameraCaptureBufferFormatControlC1EP7QObject@Qt_5 5.6.0~beta
 _ZN33QCameraCaptureBufferFormatControlC2EP7QObject@Qt_5 5.6.0~beta
 _ZN33QCameraCaptureBufferFormatControlD0Ev@Qt_5 5.6.0~beta
 _ZN33QCameraCaptureBufferFormatControlD1Ev@Qt_5 5.6.0~beta
 _ZN33QCameraCaptureBufferFormatControlD2Ev@Qt_5 5.6.0~beta
 _ZN33QCameraViewfinderSettingsControl211qt_metacallEN11QMetaObject4CallEiPPv@Qt_5 5.6.0~beta
 _ZN33QCameraViewfinderSettingsControl211qt_metacastEPKc@Qt_5 5.6.0~beta
 _ZN33QCameraViewfinderSettingsControl216staticMetaObjectE@Qt_5 5.6.0~beta
 _ZN33QCameraViewfinderSettingsControl2C1EP7QObject@Qt_5 5.6.0~beta
 _ZN33QCameraViewfinderSettingsControl2C2EP7QObject@Qt_5 5.6.0~beta
 _ZN33QCameraViewfinderSettingsControl2D0Ev@Qt_5 5.6.0~beta
 _ZN33QCameraViewfinderSettingsControl2D1Ev@Qt_5 5.6.0~beta
 _ZN33QCameraViewfinderSettingsControl2D2Ev@Qt_5 5.6.0~beta
 _ZN37QMediaServiceProviderFactoryInterfaceD0Ev@Qt_5 5.6.0~beta
 _ZN37QMediaServiceProviderFactoryInterfaceD1Ev@Qt_5 5.6.0~beta
 _ZN37QMediaServiceProviderFactoryInterfaceD2Ev@Qt_5 5.6.0~beta
 _ZN6QSound11qt_metacallEN11QMetaObject4CallEiPPv@Qt_5 5.6.0~beta
 _ZN6QSound11qt_metacastEPKc@Qt_5 5.6.0~beta
 _ZN6QSound16deleteOnCompleteEv@Qt_5 5.6.0~beta
 _ZN6QSound16staticMetaObjectE@Qt_5 5.6.0~beta
 _ZN6QSound4playERK7QString@Qt_5 5.6.0~beta
 _ZN6QSound4playEv@Qt_5 5.6.0~beta
 _ZN6QSound4stopEv@Qt_5 5.6.0~beta
 _ZN6QSound8setLoopsEi@Qt_5 5.6.0~beta
 _ZN6QSoundC1ERK7QStringP7QObject@Qt_5 5.6.0~beta
 _ZN6QSoundC2ERK7QStringP7QObject@Qt_5 5.6.0~beta
 _ZN6QSoundD0Ev@Qt_5 5.6.0~beta
 _ZN6QSoundD1Ev@Qt_5 5.6.0~beta
 _ZN6QSoundD2Ev@Qt_5 5.6.0~beta
 _ZN7QCamera10lockFailedEv@Qt_5 5.6.0~beta
 _ZN7QCamera11qt_metacallEN11QMetaObject4CallEiPPv@Qt_5 5.6.0~beta
 _ZN7QCamera11qt_metacastEPKc@Qt_5 5.6.0~beta
 _ZN7QCamera12stateChangedENS_5StateE@Qt_5 5.6.0~beta
 _ZN7QCamera13searchAndLockE6QFlagsINS_8LockTypeEE@Qt_5 5.6.0~beta
 _ZN7QCamera13searchAndLockEv@Qt_5 5.6.0~beta
 _ZN7QCamera13setViewfinderEP12QVideoWidget@Qt_5 5.6.0~beta
 _ZN7QCamera13setViewfinderEP18QGraphicsVideoItem@Qt_5 5.6.0~beta
 _ZN7QCamera13setViewfinderEP21QAbstractVideoSurface@Qt_5 5.6.0~beta
 _ZN7QCamera13statusChangedENS_6StatusE@Qt_5 5.6.0~beta
 _ZN7QCamera14setCaptureModeE6QFlagsINS_11CaptureModeEE@Qt_5 5.6.0~beta
 _ZN7QCamera16availableDevicesEv@Qt_5 5.6.0~beta
 _ZN7QCamera16staticMetaObjectE@Qt_5 5.6.0~beta
 _ZN7QCamera17deviceDescriptionERK10QByteArray@Qt_5 5.6.0~beta
 _ZN7QCamera17lockStatusChangedENS_10LockStatusENS_16LockChangeReasonE@Qt_5 5.6.0~beta
 _ZN7QCamera17lockStatusChangedENS_8LockTypeENS_10LockStatusENS_16LockChangeReasonE@Qt_5 5.6.0~beta
 _ZN7QCamera18captureModeChangedE6QFlagsINS_11CaptureModeEE@Qt_5 5.6.0~beta
 _ZN7QCamera21setViewfinderSettingsERK25QCameraViewfinderSettings@Qt_5 5.6.0~beta
 _ZN7QCamera4loadEv@Qt_5 5.6.0~beta
 _ZN7QCamera4stopEv@Qt_5 5.6.0~beta
 _ZN7QCamera5errorENS_5ErrorE@Qt_5 5.6.0~beta
 _ZN7QCamera5startEv@Qt_5 5.6.0~beta
 _ZN7QCamera6lockedEv@Qt_5 5.6.0~beta
 _ZN7QCamera6unloadEv@Qt_5 5.6.0~beta
 _ZN7QCamera6unlockE6QFlagsINS_8LockTypeEE@Qt_5 5.6.0~beta
 _ZN7QCamera6unlockEv@Qt_5 5.6.0~beta
 _ZN7QCameraC1ENS_8PositionEP7QObject@Qt_5 5.6.0~beta
 _ZN7QCameraC1EP7QObject@Qt_5 5.6.0~beta
 _ZN7QCameraC1ERK10QByteArrayP7QObject@Qt_5 5.6.0~beta
 _ZN7QCameraC1ERK11QCameraInfoP7QObject@Qt_5 5.6.0~beta
 _ZN7QCameraC2ENS_8PositionEP7QObject@Qt_5 5.6.0~beta
 _ZN7QCameraC2EP7QObject@Qt_5 5.6.0~beta
 _ZN7QCameraC2ERK10QByteArrayP7QObject@Qt_5 5.6.0~beta
 _ZN7QCameraC2ERK11QCameraInfoP7QObject@Qt_5 5.6.0~beta
 _ZN7QCameraD0Ev@Qt_5 5.6.0~beta
 _ZN7QCameraD1Ev@Qt_5 5.6.0~beta
 _ZN7QCameraD2Ev@Qt_5 5.6.0~beta
 _ZN7QSample10readSampleEv@Qt_5_PRIVATE_API 5.6.0~beta
 _ZN7QSample11qt_metacallEN11QMetaObject4CallEiPPv@Qt_5_PRIVATE_API 5.6.0~beta
 _ZN7QSample11qt_metacastEPKc@Qt_5_PRIVATE_API 5.6.0~beta
 _ZN7QSample12decoderErrorEv@Qt_5_PRIVATE_API 5.6.0~beta
 _ZN7QSample12decoderReadyEv@Qt_5_PRIVATE_API 5.6.0~beta
 _ZN7QSample15loadIfNecessaryEv@Qt_5_PRIVATE_API 5.6.0~beta
 _ZN7QSample16staticMetaObjectE@Qt_5_PRIVATE_API 5.6.0~beta
 _ZN7QSample4loadEv@Qt_5_PRIVATE_API 5.6.0~beta
 _ZN7QSample5errorEv@Qt_5_PRIVATE_API 5.6.0~beta
 _ZN7QSample5readyEv@Qt_5_PRIVATE_API 5.6.0~beta
 _ZN7QSample6addRefEv@Qt_5_PRIVATE_API 5.6.0~beta
 _ZN7QSample7cleanupEv@Qt_5_PRIVATE_API 5.6.0~beta
 _ZN7QSample7onReadyEv@Qt_5_PRIVATE_API 5.6.0~beta
 _ZN7QSample7releaseEv@Qt_5_PRIVATE_API 5.6.0~beta
 _ZN7QSampleC1ERK4QUrlP12QSampleCache@Qt_5_PRIVATE_API 5.6.0~beta
 _ZN7QSampleC2ERK4QUrlP12QSampleCache@Qt_5_PRIVATE_API 5.6.0~beta
 _ZN7QSampleD0Ev@Qt_5_PRIVATE_API 5.6.0~beta
 _ZN7QSampleD1Ev@Qt_5_PRIVATE_API 5.6.0~beta
 _ZN7QSampleD2Ev@Qt_5_PRIVATE_API 5.6.0~beta
 _ZNK10QRadioData10metaObjectEv@Qt_5 5.6.0~beta
 _ZNK10QRadioData11errorStringEv@Qt_5 5.6.0~beta
 _ZNK10QRadioData11mediaObjectEv@Qt_5 5.6.0~beta
 _ZNK10QRadioData11programTypeEv@Qt_5 5.6.0~beta
 _ZNK10QRadioData11stationNameEv@Qt_5 5.6.0~beta
 _ZNK10QRadioData12availabilityEv@Qt_5 5.6.0~beta
 _ZNK10QRadioData15programTypeNameEv@Qt_5 5.6.0~beta
 _ZNK10QRadioData31isAlternativeFrequenciesEnabledEv@Qt_5 5.6.0~beta
 _ZNK10QRadioData5errorEv@Qt_5 5.6.0~beta
 _ZNK10QRadioData9radioTextEv@Qt_5 5.6.0~beta
 _ZNK10QRadioData9stationIdEv@Qt_5 5.6.0~beta
 _ZNK11QAudioInput10bufferSizeEv@Qt_5 5.6.0~beta
 _ZNK11QAudioInput10bytesReadyEv@Qt_5 5.6.0~beta
 _ZNK11QAudioInput10metaObjectEv@Qt_5 5.6.0~beta
 _ZNK11QAudioInput10periodSizeEv@Qt_5 5.6.0~beta
 _ZNK11QAudioInput12elapsedUSecsEv@Qt_5 5.6.0~beta
 _ZNK11QAudioInput14notifyIntervalEv@Qt_5 5.6.0~beta
 _ZNK11QAudioInput14processedUSecsEv@Qt_5 5.6.0~beta
 _ZNK11QAudioInput5errorEv@Qt_5 5.6.0~beta
 _ZNK11QAudioInput5stateEv@Qt_5 5.6.0~beta
 _ZNK11QAudioInput6formatEv@Qt_5 5.6.0~beta
 _ZNK11QAudioInput6volumeEv@Qt_5 5.6.0~beta
 _ZNK11QAudioProbe10metaObjectEv@Qt_5 5.6.0~beta
 _ZNK11QAudioProbe8isActiveEv@Qt_5 5.6.0~beta
 _ZNK11QCameraInfo10deviceNameEv@Qt_5 5.6.0~beta
 _ZNK11QCameraInfo11descriptionEv@Qt_5 5.6.0~beta
 _ZNK11QCameraInfo11orientationEv@Qt_5 5.6.0~beta
 _ZNK11QCameraInfo6isNullEv@Qt_5 5.6.0~beta
 _ZNK11QCameraInfo8positionEv@Qt_5 5.6.0~beta
 _ZNK11QCameraInfoeqERKS_@Qt_5 5.6.0~beta
 _ZNK11QRadioTuner10metaObjectEv@Qt_5 5.6.0~beta
 _ZNK11QRadioTuner10stereoModeEv@Qt_5 5.6.0~beta
 _ZNK11QRadioTuner11errorStringEv@Qt_5 5.6.0~beta
 _ZNK11QRadioTuner11isSearchingEv@Qt_5 5.6.0~beta
 _ZNK11QRadioTuner12availabilityEv@Qt_5 5.6.0~beta
 _ZNK11QRadioTuner13frequencyStepENS_4BandE@Qt_5 5.6.0~beta
 _ZNK11QRadioTuner14frequencyRangeENS_4BandE@Qt_5 5.6.0~beta
 _ZNK11QRadioTuner14signalStrengthEv@Qt_5 5.6.0~beta
 _ZNK11QRadioTuner15isBandSupportedENS_4BandE@Qt_5 5.6.0~beta
 _ZNK11QRadioTuner18isAntennaConnectedEv@Qt_5 5.6.0~beta
 _ZNK11QRadioTuner4bandEv@Qt_5 5.6.0~beta
 _ZNK11QRadioTuner5errorEv@Qt_5 5.6.0~beta
 _ZNK11QRadioTuner5stateEv@Qt_5 5.6.0~beta
 _ZNK11QRadioTuner6volumeEv@Qt_5 5.6.0~beta
 _ZNK11QRadioTuner7isMutedEv@Qt_5 5.6.0~beta
 _ZNK11QRadioTuner8isStereoEv@Qt_5 5.6.0~beta
 _ZNK11QRadioTuner9frequencyEv@Qt_5 5.6.0~beta
 _ZNK11QRadioTuner9radioDataEv@Qt_5 5.6.0~beta
 _ZNK11QVideoFrame10handleTypeEv@Qt_5 5.6.0~beta
 _ZNK11QVideoFrame10isReadableEv@Qt_5 5.6.0~beta
 _ZNK11QVideoFrame10isWritableEv@Qt_5 5.6.0~beta
 _ZNK11QVideoFrame10planeCountEv@Qt_5 5.6.0~beta
 _ZNK11QVideoFrame11mappedBytesEv@Qt_5 5.6.0~beta
 _ZNK11QVideoFrame11pixelFormatEv@Qt_5 5.6.0~beta
 _ZNK11QVideoFrame12bytesPerLineEi@Qt_5 5.6.0~beta
 _ZNK11QVideoFrame12bytesPerLineEv@Qt_5 5.6.0~beta
 _ZNK11QVideoFrame17availableMetaDataEv@Qt_5 5.6.0~beta
 _ZNK11QVideoFrame4bitsEi@Qt_5 5.6.0~beta
 _ZNK11QVideoFrame4bitsEv@Qt_5 5.6.0~beta
 _ZNK11QVideoFrame4sizeEv@Qt_5 5.6.0~beta
 _ZNK11QVideoFrame5widthEv@Qt_5 5.6.0~beta
 _ZNK11QVideoFrame6handleEv@Qt_5 5.6.0~beta
 _ZNK11QVideoFrame6heightEv@Qt_5 5.6.0~beta
 _ZNK11QVideoFrame7endTimeEv@Qt_5 5.6.0~beta
 _ZNK11QVideoFrame7isValidEv@Qt_5 5.6.0~beta
 _ZNK11QVideoFrame7mapModeEv@Qt_5 5.6.0~beta
 _ZNK11QVideoFrame8isMappedEv@Qt_5 5.6.0~beta
 _ZNK11QVideoFrame8metaDataERK7QString@Qt_5 5.6.0~beta
 _ZNK11QVideoFrame9fieldTypeEv@Qt_5 5.6.0~beta
 _ZNK11QVideoFrame9startTimeEv@Qt_5 5.6.0~beta
 _ZNK11QVideoFrameeqERKS_@Qt_5 5.6.0~beta
 _ZNK11QVideoFrameneERKS_@Qt_5 5.6.0~beta
 _ZNK11QVideoProbe10metaObjectEv@Qt_5 5.6.0~beta
 _ZNK11QVideoProbe8isActiveEv@Qt_5 5.6.0~beta
 _ZNK12QAudioBuffer10frameCountEv@Qt_5 5.6.0~beta
 _ZNK12QAudioBuffer11sampleCountEv@Qt_5 5.6.0~beta
 _ZNK12QAudioBuffer4dataEv@Qt_5 5.6.0~beta
 _ZNK12QAudioBuffer6formatEv@Qt_5 5.6.0~beta
 _ZNK12QAudioBuffer7isValidEv@Qt_5 5.6.0~beta
 _ZNK12QAudioBuffer8durationEv@Qt_5 5.6.0~beta
 _ZNK12QAudioBuffer9byteCountEv@Qt_5 5.6.0~beta
 _ZNK12QAudioBuffer9constDataEv@Qt_5 5.6.0~beta
 _ZNK12QAudioBuffer9startTimeEv@Qt_5 5.6.0~beta
 _ZNK12QAudioFormat10sampleRateEv@Qt_5 5.6.0~beta
 _ZNK12QAudioFormat10sampleSizeEv@Qt_5 5.6.0~beta
 _ZNK12QAudioFormat10sampleTypeEv@Qt_5 5.6.0~beta
 _ZNK12QAudioFormat12channelCountEv@Qt_5 5.6.0~beta
 _ZNK12QAudioFormat13bytesPerFrameEv@Qt_5 5.6.0~beta
 _ZNK12QAudioFormat14bytesForFramesEi@Qt_5 5.6.0~beta
 _ZNK12QAudioFormat14framesForBytesEi@Qt_5 5.6.0~beta
 _ZNK12QAudioFormat16bytesForDurationEx@Qt_5 5.6.0~beta
 _ZNK12QAudioFormat16durationForBytesEi@Qt_5 5.6.0~beta
 _ZNK12QAudioFormat17durationForFramesEi@Qt_5 5.6.0~beta
 _ZNK12QAudioFormat17framesForDurationEx@Qt_5 5.6.0~beta
 _ZNK12QAudioFormat5codecEv@Qt_5 5.6.0~beta
 _ZNK12QAudioFormat7isValidEv@Qt_5 5.6.0~beta
 _ZNK12QAudioFormat9byteOrderEv@Qt_5 5.6.0~beta
 _ZNK12QAudioFormateqERKS_@Qt_5 5.6.0~beta
 _ZNK12QAudioFormatneERKS_@Qt_5 5.6.0~beta
 _ZNK12QAudioOutput10bufferSizeEv@Qt_5 5.6.0~beta
 _ZNK12QAudioOutput10metaObjectEv@Qt_5 5.6.0~beta
 _ZNK12QAudioOutput10periodSizeEv@Qt_5 5.6.0~beta
 _ZNK12QAudioOutput12elapsedUSecsEv@Qt_5 5.6.0~beta
 _ZNK12QAudioOutput14notifyIntervalEv@Qt_5 5.6.0~beta
 _ZNK12QAudioOutput14processedUSecsEv@Qt_5 5.6.0~beta
 _ZNK12QAudioOutput5errorEv@Qt_5 5.6.0~beta
 _ZNK12QAudioOutput5stateEv@Qt_5 5.6.0~beta
 _ZNK12QAudioOutput6formatEv@Qt_5 5.6.0~beta
 _ZNK12QAudioOutput6volumeEv@Qt_5 5.6.0~beta
 _ZNK12QAudioOutput8categoryEv@Qt_5 5.6.0~beta
 _ZNK12QAudioOutput9bytesFreeEv@Qt_5 5.6.0~beta
 _ZNK12QCameraFocus10focusZonesEv@Qt_5 5.6.0~beta
 _ZNK12QCameraFocus10metaObjectEv@Qt_5 5.6.0~beta
 _ZNK12QCameraFocus11digitalZoomEv@Qt_5 5.6.0~beta
 _ZNK12QCameraFocus11isAvailableEv@Qt_5 5.6.0~beta
 _ZNK12QCameraFocus11opticalZoomEv@Qt_5 5.6.0~beta
 _ZNK12QCameraFocus14focusPointModeEv@Qt_5 5.6.0~beta
 _ZNK12QCameraFocus16customFocusPointEv@Qt_5 5.6.0~beta
 _ZNK12QCameraFocus18maximumDigitalZoomEv@Qt_5 5.6.0~beta
 _ZNK12QCameraFocus18maximumOpticalZoomEv@Qt_5 5.6.0~beta
 _ZNK12QCameraFocus20isFocusModeSupportedE6QFlagsINS_9FocusModeEE@Qt_5 5.6.0~beta
 _ZNK12QCameraFocus25isFocusPointModeSupportedENS_14FocusPointModeE@Qt_5 5.6.0~beta
 _ZNK12QCameraFocus9focusModeEv@Qt_5 5.6.0~beta
 _ZNK12QMediaObject10metaObjectEv@Qt_5 5.6.0~beta
 _ZNK12QMediaObject11isAvailableEv@Qt_5 5.6.0~beta
 _ZNK12QMediaObject12availabilityEv@Qt_5 5.6.0~beta
 _ZNK12QMediaObject14notifyIntervalEv@Qt_5 5.6.0~beta
 _ZNK12QMediaObject17availableMetaDataEv@Qt_5 5.6.0~beta
 _ZNK12QMediaObject19isMetaDataAvailableEv@Qt_5 5.6.0~beta
 _ZNK12QMediaObject7serviceEv@Qt_5 5.6.0~beta
 _ZNK12QMediaObject8metaDataERK7QString@Qt_5 5.6.0~beta
 _ZNK12QMediaPlayer10isSeekableEv@Qt_5 5.6.0~beta
 _ZNK12QMediaPlayer10metaObjectEv@Qt_5 5.6.0~beta
 _ZNK12QMediaPlayer11errorStringEv@Qt_5 5.6.0~beta
 _ZNK12QMediaPlayer11mediaStatusEv@Qt_5 5.6.0~beta
 _ZNK12QMediaPlayer11mediaStreamEv@Qt_5 5.6.0~beta
 _ZNK12QMediaPlayer12availabilityEv@Qt_5 5.6.0~beta
 _ZNK12QMediaPlayer12bufferStatusEv@Qt_5 5.6.0~beta
 _ZNK12QMediaPlayer12currentMediaEv@Qt_5 5.6.0~beta
 _ZNK12QMediaPlayer12playbackRateEv@Qt_5 5.6.0~beta
 _ZNK12QMediaPlayer16isAudioAvailableEv@Qt_5 5.6.0~beta
 _ZNK12QMediaPlayer16isVideoAvailableEv@Qt_5 5.6.0~beta
 _ZNK12QMediaPlayer19supportedAudioRolesEv@Qt_5 5.6.0~beta
 _ZNK12QMediaPlayer27currentNetworkConfigurationEv@Qt_5 5.6.0~beta
 _ZNK12QMediaPlayer5errorEv@Qt_5 5.6.0~beta
 _ZNK12QMediaPlayer5mediaEv@Qt_5 5.6.0~beta
 _ZNK12QMediaPlayer5stateEv@Qt_5 5.6.0~beta
 _ZNK12QMediaPlayer6volumeEv@Qt_5 5.6.0~beta
 _ZNK12QMediaPlayer7isMutedEv@Qt_5 5.6.0~beta
 _ZNK12QMediaPlayer8durationEv@Qt_5 5.6.0~beta
 _ZNK12QMediaPlayer8playlistEv@Qt_5 5.6.0~beta
 _ZNK12QMediaPlayer8positionEv@Qt_5 5.6.0~beta
 _ZNK12QMediaPlayer9audioRoleEv@Qt_5 5.6.0~beta
 _ZNK12QSampleCache10metaObjectEv@Qt_5_PRIVATE_API 5.6.0~beta
 _ZNK12QSampleCache8isCachedERK4QUrl@Qt_5_PRIVATE_API 5.6.0~beta
 _ZNK12QSampleCache9isLoadingEv@Qt_5_PRIVATE_API 5.6.0~beta
 _ZNK12QSoundEffect10metaObjectEv@Qt_5 5.6.0~beta
 _ZNK12QSoundEffect14loopsRemainingEv@Qt_5 5.6.0~beta
 _ZNK12QSoundEffect6sourceEv@Qt_5 5.6.0~beta
 _ZNK12QSoundEffect6statusEv@Qt_5 5.6.0~beta
 _ZNK12QSoundEffect6volumeEv@Qt_5 5.6.0~beta
 _ZNK12QSoundEffect7isMutedEv@Qt_5 5.6.0~beta
 _ZNK12QSoundEffect8categoryEv@Qt_5 5.6.0~beta
 _ZNK12QSoundEffect8isLoadedEv@Qt_5 5.6.0~beta
 _ZNK12QSoundEffect9isPlayingEv@Qt_5 5.6.0~beta
 _ZNK12QSoundEffect9loopCountEv@Qt_5 5.6.0~beta
 _ZNK13QAudioDecoder10metaObjectEv@Qt_5 5.6.0~beta
 _ZNK13QAudioDecoder11audioFormatEv@Qt_5 5.6.0~beta
 _ZNK13QAudioDecoder11errorStringEv@Qt_5 5.6.0~beta
 _ZNK13QAudioDecoder12sourceDeviceEv@Qt_5 5.6.0~beta
 _ZNK13QAudioDecoder14sourceFilenameEv@Qt_5 5.6.0~beta
 _ZNK13QAudioDecoder15bufferAvailableEv@Qt_5 5.6.0~beta
 _ZNK13QAudioDecoder4readEv@Qt_5 5.6.0~beta
 _ZNK13QAudioDecoder5errorEv@Qt_5 5.6.0~beta
 _ZNK13QAudioDecoder5stateEv@Qt_5 5.6.0~beta
 _ZNK13QAudioDecoder8durationEv@Qt_5 5.6.0~beta
 _ZNK13QAudioDecoder8positionEv@Qt_5 5.6.0~beta
 _ZNK13QMediaContent12canonicalUrlEv@Qt_5 5.6.0~beta
 _ZNK13QMediaContent16canonicalRequestEv@Qt_5 5.6.0~beta
 _ZNK13QMediaContent17canonicalResourceEv@Qt_5 5.6.0~beta
 _ZNK13QMediaContent6isNullEv@Qt_5 5.6.0~beta
 _ZNK13QMediaContent8playlistEv@Qt_5 5.6.0~beta
 _ZNK13QMediaContent9resourcesEv@Qt_5 5.6.0~beta
 _ZNK13QMediaContenteqERKS_@Qt_5 5.6.0~beta
 _ZNK13QMediaContentneERKS_@Qt_5 5.6.0~beta
 _ZNK13QMediaControl10metaObjectEv@Qt_5 5.6.0~beta
 _ZNK13QMediaService10metaObjectEv@Qt_5 5.6.0~beta
 _ZNK14QAudioRecorder10audioInputEv@Qt_5 5.6.0~beta
 _ZNK14QAudioRecorder10metaObjectEv@Qt_5 5.6.0~beta
 _ZNK14QAudioRecorder11audioInputsEv@Qt_5 5.6.0~beta
 _ZNK14QAudioRecorder17defaultAudioInputEv@Qt_5 5.6.0~beta
 _ZNK14QAudioRecorder21audioInputDescriptionERK7QString@Qt_5 5.6.0~beta
 _ZNK14QCameraControl10metaObjectEv@Qt_5 5.6.0~beta
 _ZNK14QMediaPlaylist10isReadOnlyEv@Qt_5 5.6.0~beta
 _ZNK14QMediaPlaylist10mediaCountEv@Qt_5 5.6.0~beta
 _ZNK14QMediaPlaylist10metaObjectEv@Qt_5 5.6.0~beta
 _ZNK14QMediaPlaylist11errorStringEv@Qt_5 5.6.0~beta
 _ZNK14QMediaPlaylist11mediaObjectEv@Qt_5 5.6.0~beta
 _ZNK14QMediaPlaylist12currentIndexEv@Qt_5 5.6.0~beta
 _ZNK14QMediaPlaylist12currentMediaEv@Qt_5 5.6.0~beta
 _ZNK14QMediaPlaylist12playbackModeEv@Qt_5 5.6.0~beta
 _ZNK14QMediaPlaylist13previousIndexEi@Qt_5 5.6.0~beta
 _ZNK14QMediaPlaylist5errorEv@Qt_5 5.6.0~beta
 _ZNK14QMediaPlaylist5mediaEi@Qt_5 5.6.0~beta
 _ZNK14QMediaPlaylist7isEmptyEv@Qt_5 5.6.0~beta
 _ZNK14QMediaPlaylist9nextIndexEi@Qt_5 5.6.0~beta
 _ZNK14QMediaRecorder10metaObjectEv@Qt_5 5.6.0~beta
 _ZNK14QMediaRecorder11errorStringEv@Qt_5 5.6.0~beta
 _ZNK14QMediaRecorder11isAvailableEv@Qt_5 5.6.0~beta
 _ZNK14QMediaRecorder11mediaObjectEv@Qt_5 5.6.0~beta
 _ZNK14QMediaRecorder12availabilityEv@Qt_5 5.6.0~beta
 _ZNK14QMediaRecorder13audioSettingsEv@Qt_5 5.6.0~beta
 _ZNK14QMediaRecorder13videoSettingsEv@Qt_5 5.6.0~beta
 _ZNK14QMediaRecorder14actualLocationEv@Qt_5 5.6.0~beta
 _ZNK14QMediaRecorder14outputLocationEv@Qt_5 5.6.0~beta
 _ZNK14QMediaRecorder15containerFormatEv@Qt_5 5.6.0~beta
 _ZNK14QMediaRecorder17availableMetaDataEv@Qt_5 5.6.0~beta
 _ZNK14QMediaRecorder18isMetaDataWritableEv@Qt_5 5.6.0~beta
 _ZNK14QMediaRecorder19isMetaDataAvailableEv@Qt_5 5.6.0~beta
 _ZNK14QMediaRecorder19supportedContainersEv@Qt_5 5.6.0~beta
 _ZNK14QMediaRecorder19supportedFrameRatesERK21QVideoEncoderSettingsPb@Qt_5 5.6.0~beta
 _ZNK14QMediaRecorder20containerDescriptionERK7QString@Qt_5 5.6.0~beta
 _ZNK14QMediaRecorder20supportedAudioCodecsEv@Qt_5 5.6.0~beta
 _ZNK14QMediaRecorder20supportedResolutionsERK21QVideoEncoderSettingsPb@Qt_5 5.6.0~beta
 _ZNK14QMediaRecorder20supportedVideoCodecsEv@Qt_5 5.6.0~beta
 _ZNK14QMediaRecorder21audioCodecDescriptionERK7QString@Qt_5 5.6.0~beta
 _ZNK14QMediaRecorder21videoCodecDescriptionERK7QString@Qt_5 5.6.0~beta
 _ZNK14QMediaRecorder25supportedAudioSampleRatesERK21QAudioEncoderSettingsPb@Qt_5 5.6.0~beta
 _ZNK14QMediaRecorder5errorEv@Qt_5 5.6.0~beta
 _ZNK14QMediaRecorder5stateEv@Qt_5 5.6.0~beta
 _ZNK14QMediaRecorder6statusEv@Qt_5 5.6.0~beta
 _ZNK14QMediaRecorder6volumeEv@Qt_5 5.6.0~beta
 _ZNK14QMediaRecorder7isMutedEv@Qt_5 5.6.0~beta
 _ZNK14QMediaRecorder8durationEv@Qt_5 5.6.0~beta
 _ZNK14QMediaRecorder8metaDataERK7QString@Qt_5 5.6.0~beta
 _ZNK14QMediaResource10audioCodecEv@Qt_5 5.6.0~beta
 _ZNK14QMediaResource10resolutionEv@Qt_5 5.6.0~beta
 _ZNK14QMediaResource10sampleRateEv@Qt_5 5.6.0~beta
 _ZNK14QMediaResource10videoCodecEv@Qt_5 5.6.0~beta
 _ZNK14QMediaResource12audioBitRateEv@Qt_5 5.6.0~beta
 _ZNK14QMediaResource12channelCountEv@Qt_5 5.6.0~beta
 _ZNK14QMediaResource12videoBitRateEv@Qt_5 5.6.0~beta
 _ZNK14QMediaResource3urlEv@Qt_5 5.6.0~beta
 _ZNK14QMediaResource6isNullEv@Qt_5 5.6.0~beta
 _ZNK14QMediaResource7requestEv@Qt_5 5.6.0~beta
 _ZNK14QMediaResource8dataSizeEv@Qt_5 5.6.0~beta
 _ZNK14QMediaResource8languageEv@Qt_5 5.6.0~beta
 _ZNK14QMediaResource8mimeTypeEv@Qt_5 5.6.0~beta
 _ZNK14QMediaResourceeqERKS_@Qt_5 5.6.0~beta
 _ZNK14QMediaResourceneERKS_@Qt_5 5.6.0~beta
 _ZNK15QCameraExposure10metaObjectEv@Qt_5 5.6.0~beta
 _ZNK15QCameraExposure11isAvailableEv@Qt_5 5.6.0~beta
 _ZNK15QCameraExposure12exposureModeEv@Qt_5 5.6.0~beta
 _ZNK15QCameraExposure12isFlashReadyEv@Qt_5 5.6.0~beta
 _ZNK15QCameraExposure12meteringModeEv@Qt_5 5.6.0~beta
 _ZNK15QCameraExposure12shutterSpeedEv@Qt_5 5.6.0~beta
 _ZNK15QCameraExposure14isoSensitivityEv@Qt_5 5.6.0~beta
 _ZNK15QCameraExposure17requestedApertureEv@Qt_5 5.6.0~beta
 _ZNK15QCameraExposure17spotMeteringPointEv@Qt_5 5.6.0~beta
 _ZNK15QCameraExposure18supportedAperturesEPb@Qt_5 5.6.0~beta
 _ZNK15QCameraExposure20exposureCompensationEv@Qt_5 5.6.0~beta
 _ZNK15QCameraExposure20isFlashModeSupportedE6QFlagsINS_9FlashModeEE@Qt_5 5.6.0~beta
 _ZNK15QCameraExposure21requestedShutterSpeedEv@Qt_5 5.6.0~beta
 _ZNK15QCameraExposure22supportedShutterSpeedsEPb@Qt_5 5.6.0~beta
 _ZNK15QCameraExposure23isExposureModeSupportedENS_12ExposureModeE@Qt_5 5.6.0~beta
 _ZNK15QCameraExposure23isMeteringModeSupportedENS_12MeteringModeE@Qt_5 5.6.0~beta
 _ZNK15QCameraExposure23requestedIsoSensitivityEv@Qt_5 5.6.0~beta
 _ZNK15QCameraExposure25supportedIsoSensitivitiesEPb@Qt_5 5.6.0~beta
 _ZNK15QCameraExposure8apertureEv@Qt_5 5.6.0~beta
 _ZNK15QCameraExposure9flashModeEv@Qt_5 5.6.0~beta
 _ZNK15QMediaTimeRange10latestTimeEv@Qt_5 5.6.0~beta
 _ZNK15QMediaTimeRange12earliestTimeEv@Qt_5 5.6.0~beta
 _ZNK15QMediaTimeRange12isContinuousEv@Qt_5 5.6.0~beta
 _ZNK15QMediaTimeRange7isEmptyEv@Qt_5 5.6.0~beta
 _ZNK15QMediaTimeRange8containsEx@Qt_5 5.6.0~beta
 _ZNK15QMediaTimeRange9intervalsEv@Qt_5 5.6.0~beta
 _ZNK16QAudioDeviceInfo10deviceNameEv@Qt_5 5.6.0~beta
 _ZNK16QAudioDeviceInfo13nearestFormatERK12QAudioFormat@Qt_5 5.6.0~beta
 _ZNK16QAudioDeviceInfo15preferredFormatEv@Qt_5 5.6.0~beta
 _ZNK16QAudioDeviceInfo15supportedCodecsEv@Qt_5 5.6.0~beta
 _ZNK16QAudioDeviceInfo17isFormatSupportedERK12QAudioFormat@Qt_5 5.6.0~beta
 _ZNK16QAudioDeviceInfo19supportedByteOrdersEv@Qt_5 5.6.0~beta
 _ZNK16QAudioDeviceInfo20supportedSampleRatesEv@Qt_5 5.6.0~beta
 _ZNK16QAudioDeviceInfo20supportedSampleSizesEv@Qt_5 5.6.0~beta
 _ZNK16QAudioDeviceInfo20supportedSampleTypesEv@Qt_5 5.6.0~beta
 _ZNK16QAudioDeviceInfo22supportedChannelCountsEv@Qt_5 5.6.0~beta
 _ZNK16QAudioDeviceInfo4modeEv@Qt_5 5.6.0~beta
 _ZNK16QAudioDeviceInfo5realmEv@Qt_5 5.6.0~beta
 _ZNK16QAudioDeviceInfo6handleEv@Qt_5 5.6.0~beta
 _ZNK16QAudioDeviceInfo6isNullEv@Qt_5 5.6.0~beta
 _ZNK16QAudioDeviceInfoeqERKS_@Qt_5 5.6.0~beta
 _ZNK16QAudioDeviceInfoneERKS_@Qt_5 5.6.0~beta
 _ZNK16QCameraFocusZone4areaEv@Qt_5 5.6.0~beta
 _ZNK16QCameraFocusZone6statusEv@Qt_5 5.6.0~beta
 _ZNK16QCameraFocusZone7isValidEv@Qt_5 5.6.0~beta
 _ZNK16QCameraFocusZoneeqERKS_@Qt_5 5.6.0~beta
 _ZNK16QCameraFocusZoneneERKS_@Qt_5 5.6.0~beta
 _ZNK17QAudioRoleControl10metaObjectEv@Qt_5 5.6.0~beta
 _ZNK17QImageVideoBuffer7mapModeEv@Qt_5_PRIVATE_API 5.6.0~beta
 _ZNK17QRadioDataControl10metaObjectEv@Qt_5 5.6.0~beta
 _ZNK18QAudioSystemPlugin10metaObjectEv@Qt_5 5.6.0~beta
 _ZNK18QCameraInfoControl10metaObjectEv@Qt_5 5.6.0~beta
 _ZNK18QCameraZoomControl10metaObjectEv@Qt_5 5.6.0~beta
 _ZNK18QMediaPluginLoader4keysEv@Qt_5_PRIVATE_API 5.6.0~beta
 _ZNK18QMediaTimeInterval10normalizedEv@Qt_5 5.6.0~beta
 _ZNK18QMediaTimeInterval10translatedEx@Qt_5 5.6.0~beta
 _ZNK18QMediaTimeInterval3endEv@Qt_5 5.6.0~beta
 _ZNK18QMediaTimeInterval5startEv@Qt_5 5.6.0~beta
 _ZNK18QMediaTimeInterval8containsEx@Qt_5 5.6.0~beta
 _ZNK18QMediaTimeInterval8isNormalEv@Qt_5 5.6.0~beta
 _ZNK18QMemoryVideoBuffer7mapModeEv@Qt_5_PRIVATE_API 5.6.0~beta
 _ZNK18QRadioTunerControl10metaObjectEv@Qt_5 5.6.0~beta
 _ZNK19QAbstractAudioInput10metaObjectEv@Qt_5 5.6.0~beta
 _ZNK19QCameraFlashControl10metaObjectEv@Qt_5 5.6.0~beta
 _ZNK19QCameraFocusControl10metaObjectEv@Qt_5 5.6.0~beta
 _ZNK19QCameraImageCapture10metaObjectEv@Qt_5 5.6.0~beta
 _ZNK19QCameraImageCapture11errorStringEv@Qt_5 5.6.0~beta
 _ZNK19QCameraImageCapture11isAvailableEv@Qt_5 5.6.0~beta
 _ZNK19QCameraImageCapture11mediaObjectEv@Qt_5 5.6.0~beta
 _ZNK19QCameraImageCapture12availabilityEv@Qt_5 5.6.0~beta
 _ZNK19QCameraImageCapture12bufferFormatEv@Qt_5 5.6.0~beta
 _ZNK19QCameraImageCapture16encodingSettingsEv@Qt_5 5.6.0~beta
 _ZNK19QCameraImageCapture17isReadyForCaptureEv@Qt_5 5.6.0~beta
 _ZNK19QCameraImageCapture18captureDestinationEv@Qt_5 5.6.0~beta
 _ZNK19QCameraImageCapture20supportedImageCodecsEv@Qt_5 5.6.0~beta
 _ZNK19QCameraImageCapture20supportedResolutionsERK21QImageEncoderSettingsPb@Qt_5 5.6.0~beta
 _ZNK19QCameraImageCapture21imageCodecDescriptionERK7QString@Qt_5 5.6.0~beta
 _ZNK19QCameraImageCapture22supportedBufferFormatsEv@Qt_5 5.6.0~beta
 _ZNK19QCameraImageCapture29isCaptureDestinationSupportedE6QFlagsINS_18CaptureDestinationEE@Qt_5 5.6.0~beta
 _ZNK19QCameraImageCapture5errorEv@Qt_5 5.6.0~beta
 _ZNK19QCameraLocksControl10metaObjectEv@Qt_5 5.6.0~beta
 _ZNK19QMediaPlayerControl10metaObjectEv@Qt_5 5.6.0~beta
 _ZNK19QPlaylistFileParser10metaObjectEv@Qt_5_PRIVATE_API 5.6.0~beta
 _ZNK19QVideoSurfaceFormat10frameWidthEv@Qt_5 5.6.0~beta
 _ZNK19QVideoSurfaceFormat10handleTypeEv@Qt_5 5.6.0~beta
 _ZNK19QVideoSurfaceFormat11frameHeightEv@Qt_5 5.6.0~beta
 _ZNK19QVideoSurfaceFormat11pixelFormatEv@Qt_5 5.6.0~beta
 _ZNK19QVideoSurfaceFormat13propertyNamesEv@Qt_5 5.6.0~beta
 _ZNK19QVideoSurfaceFormat15yCbCrColorSpaceEv@Qt_5 5.6.0~beta
 _ZNK19QVideoSurfaceFormat16pixelAspectRatioEv@Qt_5 5.6.0~beta
 _ZNK19QVideoSurfaceFormat17scanLineDirectionEv@Qt_5 5.6.0~beta
 _ZNK19QVideoSurfaceFormat7isValidEv@Qt_5 5.6.0~beta
 _ZNK19QVideoSurfaceFormat8propertyEPKc@Qt_5 5.6.0~beta
 _ZNK19QVideoSurfaceFormat8sizeHintEv@Qt_5 5.6.0~beta
 _ZNK19QVideoSurfaceFormat8viewportEv@Qt_5 5.6.0~beta
 _ZNK19QVideoSurfaceFormat9frameRateEv@Qt_5 5.6.0~beta
 _ZNK19QVideoSurfaceFormat9frameSizeEv@Qt_5 5.6.0~beta
 _ZNK19QVideoSurfaceFormateqERKS_@Qt_5 5.6.0~beta
 _ZNK19QVideoSurfaceFormatneERKS_@Qt_5 5.6.0~beta
 _ZNK19QVideoWindowControl10metaObjectEv@Qt_5 5.6.0~beta
 _ZNK20QAbstractAudioOutput10metaObjectEv@Qt_5 5.6.0~beta
 _ZNK20QAbstractVideoBuffer10handleTypeEv@Qt_5 5.6.0~beta
 _ZNK20QAbstractVideoBuffer6handleEv@Qt_5 5.6.0~beta
 _ZNK20QAbstractVideoFilter10metaObjectEv@Qt_5 5.6.0~beta
 _ZNK20QAbstractVideoFilter8isActiveEv@Qt_5 5.6.0~beta
 _ZNK20QAudioDecoderControl10metaObjectEv@Qt_5 5.6.0~beta
 _ZNK20QImageEncoderControl10metaObjectEv@Qt_5 5.6.0~beta
 _ZNK20QMediaStreamsControl10metaObjectEv@Qt_5 5.6.0~beta
 _ZNK21QAbstractVideoSurface10metaObjectEv@Qt_5 5.6.0~beta
 _ZNK21QAbstractVideoSurface13nearestFormatERK19QVideoSurfaceFormat@Qt_5 5.6.0~beta
 _ZNK21QAbstractVideoSurface13surfaceFormatEv@Qt_5 5.6.0~beta
 _ZNK21QAbstractVideoSurface16nativeResolutionEv@Qt_5 5.6.0~beta
 _ZNK21QAbstractVideoSurface17isFormatSupportedERK19QVideoSurfaceFormat@Qt_5 5.6.0~beta
 _ZNK21QAbstractVideoSurface5errorEv@Qt_5 5.6.0~beta
 _ZNK21QAbstractVideoSurface8isActiveEv@Qt_5 5.6.0~beta
 _ZNK21QAudioEncoderSettings10sampleRateEv@Qt_5 5.6.0~beta
 _ZNK21QAudioEncoderSettings12channelCountEv@Qt_5 5.6.0~beta
 _ZNK21QAudioEncoderSettings12encodingModeEv@Qt_5 5.6.0~beta
 _ZNK21QAudioEncoderSettings14encodingOptionERK7QString@Qt_5 5.6.0~beta
 _ZNK21QAudioEncoderSettings15encodingOptionsEv@Qt_5 5.6.0~beta
 _ZNK21QAudioEncoderSettings5codecEv@Qt_5 5.6.0~beta
 _ZNK21QAudioEncoderSettings6isNullEv@Qt_5 5.6.0~beta
 _ZNK21QAudioEncoderSettings7bitRateEv@Qt_5 5.6.0~beta
 _ZNK21QAudioEncoderSettings7qualityEv@Qt_5 5.6.0~beta
 _ZNK21QAudioEncoderSettingseqERKS_@Qt_5 5.6.0~beta
 _ZNK21QAudioEncoderSettingsneERKS_@Qt_5 5.6.0~beta
 _ZNK21QImageEncoderSettings10resolutionEv@Qt_5 5.6.0~beta
 _ZNK21QImageEncoderSettings14encodingOptionERK7QString@Qt_5 5.6.0~beta
 _ZNK21QImageEncoderSettings15encodingOptionsEv@Qt_5 5.6.0~beta
 _ZNK21QImageEncoderSettings5codecEv@Qt_5 5.6.0~beta
 _ZNK21QImageEncoderSettings6isNullEv@Qt_5 5.6.0~beta
 _ZNK21QImageEncoderSettings7qualityEv@Qt_5 5.6.0~beta
 _ZNK21QImageEncoderSettingseqERKS_@Qt_5 5.6.0~beta
 _ZNK21QImageEncoderSettingsneERKS_@Qt_5 5.6.0~beta
 _ZNK21QMediaPlaylistControl10metaObjectEv@Qt_5_PRIVATE_API 5.6.0~beta
 _ZNK21QMediaRecorderControl10metaObjectEv@Qt_5 5.6.0~beta
 _ZNK21QMediaServiceProvider10hasSupportERK10QByteArrayRK7QStringRK11QStringListi@Qt_5_PRIVATE_API 5.6.0~beta
 _ZNK21QMediaServiceProvider10metaObjectEv@Qt_5_PRIVATE_API 5.6.0~beta
 _ZNK21QMediaServiceProvider13defaultDeviceERK10QByteArray@Qt_5_PRIVATE_API 5.6.0~beta
 _ZNK21QMediaServiceProvider14cameraPositionERK10QByteArray@Qt_5_PRIVATE_API 5.6.0~beta
 _ZNK21QMediaServiceProvider17cameraOrientationERK10QByteArray@Qt_5_PRIVATE_API 5.6.0~beta
 _ZNK21QMediaServiceProvider17supportedFeaturesEPK13QMediaService@Qt_5_PRIVATE_API 5.6.0~beta
 _ZNK21QMediaServiceProvider18supportedMimeTypesERK10QByteArrayi@Qt_5_PRIVATE_API 5.6.0~beta
 _ZNK21QMediaServiceProvider7devicesERK10QByteArray@Qt_5_PRIVATE_API 5.6.0~beta
 _ZNK21QMediaStorageLocation15defaultLocationENS_9MediaTypeE@Qt_5_PRIVATE_API 5.6.0~beta
 _ZNK21QMediaStorageLocation16generateFileNameERK7QStringNS_9MediaTypeES2_S2_@Qt_5_PRIVATE_API 5.6.0~beta
 _ZNK21QMediaStorageLocation16generateFileNameERK7QStringRK4QDirS2_@Qt_5_PRIVATE_API 5.6.0~beta
 _ZNK21QVideoEncoderSettings10resolutionEv@Qt_5 5.6.0~beta
 _ZNK21QVideoEncoderSettings12encodingModeEv@Qt_5 5.6.0~beta
 _ZNK21QVideoEncoderSettings14encodingOptionERK7QString@Qt_5 5.6.0~beta
 _ZNK21QVideoEncoderSettings15encodingOptionsEv@Qt_5 5.6.0~beta
 _ZNK21QVideoEncoderSettings5codecEv@Qt_5 5.6.0~beta
 _ZNK21QVideoEncoderSettings6isNullEv@Qt_5 5.6.0~beta
 _ZNK21QVideoEncoderSettings7bitRateEv@Qt_5 5.6.0~beta
 _ZNK21QVideoEncoderSettings7qualityEv@Qt_5 5.6.0~beta
 _ZNK21QVideoEncoderSettings9frameRateEv@Qt_5 5.6.0~beta
 _ZNK21QVideoEncoderSettingseqERKS_@Qt_5 5.6.0~beta
 _ZNK21QVideoEncoderSettingsneERKS_@Qt_5 5.6.0~beta
 _ZNK21QVideoRendererControl10metaObjectEv@Qt_5 5.6.0~beta
 _ZNK22QCameraExposureControl10metaObjectEv@Qt_5 5.6.0~beta
 _ZNK22QCameraFeedbackControl10metaObjectEv@Qt_5 5.6.0~beta
 _ZNK22QCameraImageProcessing10metaObjectEv@Qt_5 5.6.0~beta
 _ZNK22QCameraImageProcessing10saturationEv@Qt_5 5.6.0~beta
 _ZNK22QCameraImageProcessing11colorFilterEv@Qt_5 5.6.0~beta
 _ZNK22QCameraImageProcessing11isAvailableEv@Qt_5 5.6.0~beta
 _ZNK22QCameraImageProcessing14denoisingLevelEv@Qt_5 5.6.0~beta
 _ZNK22QCameraImageProcessing15sharpeningLevelEv@Qt_5 5.6.0~beta
 _ZNK22QCameraImageProcessing16whiteBalanceModeEv@Qt_5 5.6.0~beta
 _ZNK22QCameraImageProcessing18manualWhiteBalanceEv@Qt_5 5.6.0~beta
 _ZNK22QCameraImageProcessing22isColorFilterSupportedENS_11ColorFilterE@Qt_5 5.6.0~beta
 _ZNK22QCameraImageProcessing27isWhiteBalanceModeSupportedENS_16WhiteBalanceModeE@Qt_5 5.6.0~beta
 _ZNK22QCameraImageProcessing8contrastEv@Qt_5 5.6.0~beta
 _ZNK22QMediaContainerControl10metaObjectEv@Qt_5 5.6.0~beta
 _ZNK22QMediaPlaylistIOPlugin10metaObjectEv@Qt_5_PRIVATE_API 5.6.0~beta
 _ZNK22QMediaPlaylistProvider10isReadOnlyEv@Qt_5_PRIVATE_API 5.6.0~beta
 _ZNK22QMediaPlaylistProvider10metaObjectEv@Qt_5_PRIVATE_API 5.6.0~beta
 _ZNK22QMetaDataReaderControl10metaObjectEv@Qt_5 5.6.0~beta
 _ZNK22QMetaDataWriterControl10metaObjectEv@Qt_5 5.6.0~beta
 _ZNK23QMediaAudioProbeControl10metaObjectEv@Qt_5 5.6.0~beta
 _ZNK23QMediaPlaylistNavigator10metaObjectEv@Qt_5_PRIVATE_API 5.6.0~beta
 _ZNK23QMediaPlaylistNavigator11currentItemEv@Qt_5_PRIVATE_API 5.6.0~beta
 _ZNK23QMediaPlaylistNavigator12currentIndexEv@Qt_5_PRIVATE_API 5.6.0~beta
 _ZNK23QMediaPlaylistNavigator12playbackModeEv@Qt_5_PRIVATE_API 5.6.0~beta
 _ZNK23QMediaPlaylistNavigator12previousItemEi@Qt_5_PRIVATE_API 5.6.0~beta
 _ZNK23QMediaPlaylistNavigator13previousIndexEi@Qt_5_PRIVATE_API 5.6.0~beta
 _ZNK23QMediaPlaylistNavigator6itemAtEi@Qt_5_PRIVATE_API 5.6.0~beta
 _ZNK23QMediaPlaylistNavigator8nextItemEi@Qt_5_PRIVATE_API 5.6.0~beta
 _ZNK23QMediaPlaylistNavigator8playlistEv@Qt_5_PRIVATE_API 5.6.0~beta
 _ZNK23QMediaPlaylistNavigator9nextIndexEi@Qt_5_PRIVATE_API 5.6.0~beta
 _ZNK23QMediaVideoProbeControl10metaObjectEv@Qt_5 5.6.0~beta
 _ZNK24QAbstractAudioDeviceInfo10metaObjectEv@Qt_5 5.6.0~beta
 _ZNK25QCameraViewfinderSettings10resolutionEv@Qt_5 5.6.0~beta
 _ZNK25QCameraViewfinderSettings11pixelFormatEv@Qt_5 5.6.0~beta
 _ZNK25QCameraViewfinderSettings16maximumFrameRateEv@Qt_5 5.6.0~beta
 _ZNK25QCameraViewfinderSettings16minimumFrameRateEv@Qt_5 5.6.0~beta
 _ZNK25QCameraViewfinderSettings16pixelAspectRatioEv@Qt_5 5.6.0~beta
 _ZNK25QCameraViewfinderSettings6isNullEv@Qt_5 5.6.0~beta
 _ZNK25QMediaAvailabilityControl10metaObjectEv@Qt_5 5.6.0~beta
 _ZNK25QMediaServiceProviderHint14cameraPositionEv@Qt_5 5.6.0~beta
 _ZNK25QMediaServiceProviderHint4typeEv@Qt_5 5.6.0~beta
 _ZNK25QMediaServiceProviderHint6codecsEv@Qt_5 5.6.0~beta
 _ZNK25QMediaServiceProviderHint6deviceEv@Qt_5 5.6.0~beta
 _ZNK25QMediaServiceProviderHint6isNullEv@Qt_5 5.6.0~beta
 _ZNK25QMediaServiceProviderHint8featuresEv@Qt_5 5.6.0~beta
 _ZNK25QMediaServiceProviderHint8mimeTypeEv@Qt_5 5.6.0~beta
 _ZNK25QMediaServiceProviderHinteqERKS_@Qt_5 5.6.0~beta
 _ZNK25QMediaServiceProviderHintneERKS_@Qt_5 5.6.0~beta
 _ZNK26QAudioInputSelectorControl10metaObjectEv@Qt_5 5.6.0~beta
 _ZNK26QCameraImageCaptureControl10metaObjectEv@Qt_5 5.6.0~beta
 _ZNK26QMediaNetworkAccessControl10metaObjectEv@Qt_5 5.6.0~beta
 _ZNK26QMediaResourcePolicyPlugin10metaObjectEv@Qt_5_PRIVATE_API 5.6.0~beta
 _ZNK27QAudioOutputSelectorControl10metaObjectEv@Qt_5 5.6.0~beta
 _ZNK27QMediaPlaylistSourceControl10metaObjectEv@Qt_5_PRIVATE_API 5.6.0~beta
 _ZNK27QMediaServiceProviderPlugin10metaObjectEv@Qt_5 5.6.0~beta
 _ZNK27QVideoDeviceSelectorControl10metaObjectEv@Qt_5 5.6.0~beta
 _ZNK28QAudioEncoderSettingsControl10metaObjectEv@Qt_5 5.6.0~beta
 _ZNK28QMediaGaplessPlaybackControl10metaObjectEv@Qt_5 5.6.0~beta
 _ZNK28QVideoEncoderSettingsControl10metaObjectEv@Qt_5 5.6.0~beta
 _ZNK29QCameraImageProcessingControl10metaObjectEv@Qt_5 5.6.0~beta
 _ZNK29QMediaNetworkPlaylistProvider10isReadOnlyEv@Qt_5_PRIVATE_API 5.6.0~beta
 _ZNK29QMediaNetworkPlaylistProvider10mediaCountEv@Qt_5_PRIVATE_API 5.6.0~beta
 _ZNK29QMediaNetworkPlaylistProvider10metaObjectEv@Qt_5_PRIVATE_API 5.6.0~beta
 _ZNK29QMediaNetworkPlaylistProvider5mediaEi@Qt_5_PRIVATE_API 5.6.0~beta
 _ZNK30QVideoOutputOrientationHandler10metaObjectEv@Qt_5_PRIVATE_API 5.6.0~beta
 _ZNK30QVideoOutputOrientationHandler18currentOrientationEv@Qt_5_PRIVATE_API 5.6.0~beta
 _ZNK32QCameraCaptureDestinationControl10metaObjectEv@Qt_5 5.6.0~beta
 _ZNK32QCameraViewfinderSettingsControl10metaObjectEv@Qt_5 5.6.0~beta
 _ZNK32QMediaPlayerResourceSetInterface10metaObjectEv@Qt_5_PRIVATE_API 5.6.0~beta
 _ZNK33QCameraCaptureBufferFormatControl10metaObjectEv@Qt_5 5.6.0~beta
 _ZNK33QCameraViewfinderSettingsControl210metaObjectEv@Qt_5 5.6.0~beta
 _ZNK6QSound10isFinishedEv@Qt_5 5.6.0~beta
 _ZNK6QSound10metaObjectEv@Qt_5 5.6.0~beta
 _ZNK6QSound14loopsRemainingEv@Qt_5 5.6.0~beta
 _ZNK6QSound5loopsEv@Qt_5 5.6.0~beta
 _ZNK6QSound8fileNameEv@Qt_5 5.6.0~beta
 _ZNK7QCamera10lockStatusENS_8LockTypeE@Qt_5 5.6.0~beta
 _ZNK7QCamera10lockStatusEv@Qt_5 5.6.0~beta
 _ZNK7QCamera10metaObjectEv@Qt_5 5.6.0~beta
 _ZNK7QCamera11captureModeEv@Qt_5 5.6.0~beta
 _ZNK7QCamera11errorStringEv@Qt_5 5.6.0~beta
 _ZNK7QCamera12availabilityEv@Qt_5 5.6.0~beta
 _ZNK7QCamera14requestedLocksEv@Qt_5 5.6.0~beta
 _ZNK7QCamera14supportedLocksEv@Qt_5 5.6.0~beta
 _ZNK7QCamera15imageProcessingEv@Qt_5 5.6.0~beta
 _ZNK7QCamera18viewfinderSettingsEv@Qt_5 5.6.0~beta
 _ZNK7QCamera22isCaptureModeSupportedE6QFlagsINS_11CaptureModeEE@Qt_5 5.6.0~beta
 _ZNK7QCamera27supportedViewfinderSettingsERK25QCameraViewfinderSettings@Qt_5 5.6.0~beta
 _ZNK7QCamera30supportedViewfinderResolutionsERK25QCameraViewfinderSettings@Qt_5 5.6.0~beta
 _ZNK7QCamera31supportedViewfinderPixelFormatsERK25QCameraViewfinderSettings@Qt_5 5.6.0~beta
 _ZNK7QCamera34supportedViewfinderFrameRateRangesERK25QCameraViewfinderSettings@Qt_5 5.6.0~beta
 _ZNK7QCamera5errorEv@Qt_5 5.6.0~beta
 _ZNK7QCamera5focusEv@Qt_5 5.6.0~beta
 _ZNK7QCamera5stateEv@Qt_5 5.6.0~beta
 _ZNK7QCamera6statusEv@Qt_5 5.6.0~beta
 _ZNK7QCamera8exposureEv@Qt_5 5.6.0~beta
 _ZNK7QSample10metaObjectEv@Qt_5_PRIVATE_API 5.6.0~beta
 _ZNK7QSample5stateEv@Qt_5_PRIVATE_API 5.6.0~beta
 _ZTI10QRadioData@Qt_5 5.6.0~beta
 _ZTI11QAudioInput@Qt_5 5.6.0~beta
 _ZTI11QAudioProbe@Qt_5 5.6.0~beta
 _ZTI11QRadioTuner@Qt_5 5.6.0~beta
 _ZTI11QVideoProbe@Qt_5 5.6.0~beta
 _ZTI12QAudioOutput@Qt_5 5.6.0~beta
 _ZTI12QCameraFocus@Qt_5 5.6.0~beta
 _ZTI12QMediaObject@Qt_5 5.6.0~beta
 _ZTI12QMediaPlayer@Qt_5 5.6.0~beta
 _ZTI12QSampleCache@Qt_5_PRIVATE_API 5.6.0~beta
 _ZTI12QSoundEffect@Qt_5 5.6.0~beta
 _ZTI13QAudioDecoder@Qt_5 5.6.0~beta
 _ZTI13QMediaControl@Qt_5 5.6.0~beta
 _ZTI13QMediaService@Qt_5 5.6.0~beta
 _ZTI14QAudioRecorder@Qt_5 5.6.0~beta
 _ZTI14QCameraControl@Qt_5 5.6.0~beta
 _ZTI14QMediaPlaylist@Qt_5 5.6.0~beta
 _ZTI14QMediaRecorder@Qt_5 5.6.0~beta
 _ZTI15QCameraExposure@Qt_5 5.6.0~beta
 _ZTI17QAudioRoleControl@Qt_5 5.6.0~beta
 _ZTI17QImageVideoBuffer@Qt_5_PRIVATE_API 5.6.0~beta
 _ZTI17QRadioDataControl@Qt_5 5.6.0~beta
 _ZTI18QAudioSystemPlugin@Qt_5 5.6.0~beta
 _ZTI18QCameraInfoControl@Qt_5 5.6.0~beta
 _ZTI18QCameraZoomControl@Qt_5 5.6.0~beta
 _ZTI18QMemoryVideoBuffer@Qt_5_PRIVATE_API 5.6.0~beta
 _ZTI18QRadioTunerControl@Qt_5 5.6.0~beta
 _ZTI19QAbstractAudioInput@Qt_5 5.6.0~beta
 _ZTI19QCameraFlashControl@Qt_5 5.6.0~beta
 _ZTI19QCameraFocusControl@Qt_5 5.6.0~beta
 _ZTI19QCameraImageCapture@Qt_5 5.6.0~beta
 _ZTI19QCameraLocksControl@Qt_5 5.6.0~beta
 _ZTI19QMediaPlayerControl@Qt_5 5.6.0~beta
 _ZTI19QPlaylistFileParser@Qt_5_PRIVATE_API 5.6.0~beta
 _ZTI19QVideoWindowControl@Qt_5 5.6.0~beta
 _ZTI20QAbstractAudioBuffer@Qt_5_PRIVATE_API 5.6.0~beta
 _ZTI20QAbstractAudioOutput@Qt_5 5.6.0~beta
 _ZTI20QAbstractVideoBuffer@Qt_5 5.6.0~beta
 _ZTI20QAbstractVideoFilter@Qt_5 5.6.0~beta
 _ZTI20QAudioDecoderControl@Qt_5 5.6.0~beta
 _ZTI20QImageEncoderControl@Qt_5 5.6.0~beta
 _ZTI20QMediaPlaylistReader@Qt_5_PRIVATE_API 5.6.0~beta
 _ZTI20QMediaPlaylistWriter@Qt_5_PRIVATE_API 5.6.0~beta
 _ZTI20QMediaStreamsControl@Qt_5 5.6.0~beta
 _ZTI20QVideoFilterRunnable@Qt_5 5.6.0~beta
 _ZTI21QAbstractVideoSurface@Qt_5 5.6.0~beta
 _ZTI21QMediaPlaylistControl@Qt_5_PRIVATE_API 5.6.0~beta
 _ZTI21QMediaRecorderControl@Qt_5 5.6.0~beta
 _ZTI21QMediaServiceProvider@Qt_5_PRIVATE_API 5.6.0~beta
 _ZTI21QVideoRendererControl@Qt_5 5.6.0~beta
 _ZTI22QCameraExposureControl@Qt_5 5.6.0~beta
 _ZTI22QCameraFeedbackControl@Qt_5 5.6.0~beta
 _ZTI22QCameraImageProcessing@Qt_5 5.6.0~beta
 _ZTI22QMediaContainerControl@Qt_5 5.6.0~beta
 _ZTI22QMediaPlaylistIOPlugin@Qt_5_PRIVATE_API 5.6.0~beta
 _ZTI22QMediaPlaylistProvider@Qt_5_PRIVATE_API 5.6.0~beta
 _ZTI22QMetaDataReaderControl@Qt_5 5.6.0~beta
 _ZTI22QMetaDataWriterControl@Qt_5 5.6.0~beta
 _ZTI23QMediaAudioProbeControl@Qt_5 5.6.0~beta
 _ZTI23QMediaBindableInterface@Qt_5 5.6.0~beta
 _ZTI23QMediaPlaylistNavigator@Qt_5_PRIVATE_API 5.6.0~beta
 _ZTI23QMediaVideoProbeControl@Qt_5 5.6.0~beta
 _ZTI24QAbstractAudioDeviceInfo@Qt_5 5.6.0~beta
 _ZTI25QMediaAvailabilityControl@Qt_5 5.6.0~beta
 _ZTI25QMediaPlaylistIOInterface@Qt_5_PRIVATE_API 5.6.0~beta
 _ZTI26QAbstractPlanarVideoBuffer@Qt_5 5.6.0~beta
 _ZTI26QAudioInputSelectorControl@Qt_5 5.6.0~beta
 _ZTI26QCameraImageCaptureControl@Qt_5 5.6.0~beta
 _ZTI26QMediaNetworkAccessControl@Qt_5 5.6.0~beta
 _ZTI26QMediaResourcePolicyPlugin@Qt_5_PRIVATE_API 5.6.0~beta
 _ZTI27QAudioOutputSelectorControl@Qt_5 5.6.0~beta
 _ZTI27QMediaPlaylistSourceControl@Qt_5_PRIVATE_API 5.6.0~beta
 _ZTI27QMediaServiceProviderPlugin@Qt_5 5.6.0~beta
 _ZTI27QVideoDeviceSelectorControl@Qt_5 5.6.0~beta
 _ZTI28QAudioEncoderSettingsControl@Qt_5 5.6.0~beta
 _ZTI28QAudioSystemFactoryInterface@Qt_5 5.6.0~beta
 _ZTI28QMediaGaplessPlaybackControl@Qt_5 5.6.0~beta
 _ZTI28QVideoEncoderSettingsControl@Qt_5 5.6.0~beta
 _ZTI29QCameraImageProcessingControl@Qt_5 5.6.0~beta
 _ZTI29QMediaNetworkPlaylistProvider@Qt_5_PRIVATE_API 5.6.0~beta
 _ZTI30QVideoOutputOrientationHandler@Qt_5_PRIVATE_API 5.6.0~beta
 _ZTI32QCameraCaptureDestinationControl@Qt_5 5.6.0~beta
 _ZTI32QCameraViewfinderSettingsControl@Qt_5 5.6.0~beta
 _ZTI32QMediaPlayerResourceSetInterface@Qt_5_PRIVATE_API 5.6.0~beta
 _ZTI33QCameraCaptureBufferFormatControl@Qt_5 5.6.0~beta
 _ZTI33QCameraViewfinderSettingsControl2@Qt_5 5.6.0~beta
 _ZTI33QMediaResourceSetFactoryInterface@Qt_5_PRIVATE_API 5.6.0~beta
 _ZTI37QMediaServiceProviderFactoryInterface@Qt_5 5.6.0~beta
 _ZTI6QSound@Qt_5 5.6.0~beta
 _ZTI7QCamera@Qt_5 5.6.0~beta
 _ZTI7QSample@Qt_5_PRIVATE_API 5.6.0~beta
 _ZTS10QRadioData@Qt_5 5.6.0~beta
 _ZTS11QAudioInput@Qt_5 5.6.0~beta
 _ZTS11QAudioProbe@Qt_5 5.6.0~beta
 _ZTS11QRadioTuner@Qt_5 5.6.0~beta
 _ZTS11QVideoProbe@Qt_5 5.6.0~beta
 _ZTS12QAudioOutput@Qt_5 5.6.0~beta
 _ZTS12QCameraFocus@Qt_5 5.6.0~beta
 _ZTS12QMediaObject@Qt_5 5.6.0~beta
 _ZTS12QMediaPlayer@Qt_5 5.6.0~beta
 _ZTS12QSampleCache@Qt_5_PRIVATE_API 5.6.0~beta
 _ZTS12QSoundEffect@Qt_5 5.6.0~beta
 _ZTS13QAudioDecoder@Qt_5 5.6.0~beta
 _ZTS13QMediaControl@Qt_5 5.6.0~beta
 _ZTS13QMediaService@Qt_5 5.6.0~beta
 _ZTS14QAudioRecorder@Qt_5 5.6.0~beta
 _ZTS14QCameraControl@Qt_5 5.6.0~beta
 _ZTS14QMediaPlaylist@Qt_5 5.6.0~beta
 _ZTS14QMediaRecorder@Qt_5 5.6.0~beta
 _ZTS15QCameraExposure@Qt_5 5.6.0~beta
 _ZTS17QAudioRoleControl@Qt_5 5.6.0~beta
 _ZTS17QImageVideoBuffer@Qt_5_PRIVATE_API 5.6.0~beta
 _ZTS17QRadioDataControl@Qt_5 5.6.0~beta
 _ZTS18QAudioSystemPlugin@Qt_5 5.6.0~beta
 _ZTS18QCameraInfoControl@Qt_5 5.6.0~beta
 _ZTS18QCameraZoomControl@Qt_5 5.6.0~beta
 _ZTS18QMemoryVideoBuffer@Qt_5_PRIVATE_API 5.6.0~beta
 _ZTS18QRadioTunerControl@Qt_5 5.6.0~beta
 _ZTS19QAbstractAudioInput@Qt_5 5.6.0~beta
 _ZTS19QCameraFlashControl@Qt_5 5.6.0~beta
 _ZTS19QCameraFocusControl@Qt_5 5.6.0~beta
 _ZTS19QCameraImageCapture@Qt_5 5.6.0~beta
 _ZTS19QCameraLocksControl@Qt_5 5.6.0~beta
 _ZTS19QMediaPlayerControl@Qt_5 5.6.0~beta
 _ZTS19QPlaylistFileParser@Qt_5_PRIVATE_API 5.6.0~beta
 _ZTS19QVideoWindowControl@Qt_5 5.6.0~beta
 _ZTS20QAbstractAudioBuffer@Qt_5_PRIVATE_API 5.6.0~beta
 _ZTS20QAbstractAudioOutput@Qt_5 5.6.0~beta
 _ZTS20QAbstractVideoBuffer@Qt_5 5.6.0~beta
 _ZTS20QAbstractVideoFilter@Qt_5 5.6.0~beta
 _ZTS20QAudioDecoderControl@Qt_5 5.6.0~beta
 _ZTS20QImageEncoderControl@Qt_5 5.6.0~beta
 _ZTS20QMediaPlaylistReader@Qt_5_PRIVATE_API 5.6.0~beta
 _ZTS20QMediaPlaylistWriter@Qt_5_PRIVATE_API 5.6.0~beta
 _ZTS20QMediaStreamsControl@Qt_5 5.6.0~beta
 _ZTS20QVideoFilterRunnable@Qt_5 5.6.0~beta
 _ZTS21QAbstractVideoSurface@Qt_5 5.6.0~beta
 _ZTS21QMediaPlaylistControl@Qt_5_PRIVATE_API 5.6.0~beta
 _ZTS21QMediaRecorderControl@Qt_5 5.6.0~beta
 _ZTS21QMediaServiceProvider@Qt_5_PRIVATE_API 5.6.0~beta
 _ZTS21QVideoRendererControl@Qt_5 5.6.0~beta
 _ZTS22QCameraExposureControl@Qt_5 5.6.0~beta
 _ZTS22QCameraFeedbackControl@Qt_5 5.6.0~beta
 _ZTS22QCameraImageProcessing@Qt_5 5.6.0~beta
 _ZTS22QMediaContainerControl@Qt_5 5.6.0~beta
 _ZTS22QMediaPlaylistIOPlugin@Qt_5_PRIVATE_API 5.6.0~beta
 _ZTS22QMediaPlaylistProvider@Qt_5_PRIVATE_API 5.6.0~beta
 _ZTS22QMetaDataReaderControl@Qt_5 5.6.0~beta
 _ZTS22QMetaDataWriterControl@Qt_5 5.6.0~beta
 _ZTS23QMediaAudioProbeControl@Qt_5 5.6.0~beta
 _ZTS23QMediaBindableInterface@Qt_5 5.6.0~beta
 _ZTS23QMediaPlaylistNavigator@Qt_5_PRIVATE_API 5.6.0~beta
 _ZTS23QMediaVideoProbeControl@Qt_5 5.6.0~beta
 _ZTS24QAbstractAudioDeviceInfo@Qt_5 5.6.0~beta
 _ZTS25QMediaAvailabilityControl@Qt_5 5.6.0~beta
 _ZTS25QMediaPlaylistIOInterface@Qt_5_PRIVATE_API 5.6.0~beta
 _ZTS26QAbstractPlanarVideoBuffer@Qt_5 5.6.0~beta
 _ZTS26QAudioInputSelectorControl@Qt_5 5.6.0~beta
 _ZTS26QCameraImageCaptureControl@Qt_5 5.6.0~beta
 _ZTS26QMediaNetworkAccessControl@Qt_5 5.6.0~beta
 _ZTS26QMediaResourcePolicyPlugin@Qt_5_PRIVATE_API 5.6.0~beta
 _ZTS27QAudioOutputSelectorControl@Qt_5 5.6.0~beta
 _ZTS27QMediaPlaylistSourceControl@Qt_5_PRIVATE_API 5.6.0~beta
 _ZTS27QMediaServiceProviderPlugin@Qt_5 5.6.0~beta
 _ZTS27QVideoDeviceSelectorControl@Qt_5 5.6.0~beta
 _ZTS28QAudioEncoderSettingsControl@Qt_5 5.6.0~beta
 _ZTS28QAudioSystemFactoryInterface@Qt_5 5.6.0~beta
 _ZTS28QMediaGaplessPlaybackControl@Qt_5 5.6.0~beta
 _ZTS28QVideoEncoderSettingsControl@Qt_5 5.6.0~beta
 _ZTS29QCameraImageProcessingControl@Qt_5 5.6.0~beta
 _ZTS29QMediaNetworkPlaylistProvider@Qt_5_PRIVATE_API 5.6.0~beta
 _ZTS30QVideoOutputOrientationHandler@Qt_5_PRIVATE_API 5.6.0~beta
 _ZTS32QCameraCaptureDestinationControl@Qt_5 5.6.0~beta
 _ZTS32QCameraViewfinderSettingsControl@Qt_5 5.6.0~beta
 _ZTS32QMediaPlayerResourceSetInterface@Qt_5_PRIVATE_API 5.6.0~beta
 _ZTS33QCameraCaptureBufferFormatControl@Qt_5 5.6.0~beta
 _ZTS33QCameraViewfinderSettingsControl2@Qt_5 5.6.0~beta
 _ZTS33QMediaResourceSetFactoryInterface@Qt_5_PRIVATE_API 5.6.0~beta
 _ZTS37QMediaServiceProviderFactoryInterface@Qt_5 5.6.0~beta
 _ZTS6QSound@Qt_5 5.6.0~beta
 _ZTS7QCamera@Qt_5 5.6.0~beta
 _ZTS7QSample@Qt_5_PRIVATE_API 5.6.0~beta
 _ZTV10QRadioData@Qt_5 5.6.0~beta
 _ZTV11QAudioInput@Qt_5 5.6.0~beta
 _ZTV11QAudioProbe@Qt_5 5.6.0~beta
 _ZTV11QRadioTuner@Qt_5 5.6.0~beta
 _ZTV11QVideoProbe@Qt_5 5.6.0~beta
 _ZTV12QAudioOutput@Qt_5 5.6.0~beta
 _ZTV12QCameraFocus@Qt_5 5.6.0~beta
 _ZTV12QMediaObject@Qt_5 5.6.0~beta
 _ZTV12QMediaPlayer@Qt_5 5.6.0~beta
 _ZTV12QSampleCache@Qt_5_PRIVATE_API 5.6.0~beta
 _ZTV12QSoundEffect@Qt_5 5.6.0~beta
 _ZTV13QAudioDecoder@Qt_5 5.6.0~beta
 _ZTV13QMediaControl@Qt_5 5.6.0~beta
 _ZTV13QMediaService@Qt_5 5.6.0~beta
 _ZTV14QAudioRecorder@Qt_5 5.6.0~beta
 _ZTV14QCameraControl@Qt_5 5.6.0~beta
 _ZTV14QMediaPlaylist@Qt_5 5.6.0~beta
 _ZTV14QMediaRecorder@Qt_5 5.6.0~beta
 _ZTV15QCameraExposure@Qt_5 5.6.0~beta
 _ZTV17QAudioRoleControl@Qt_5 5.6.0~beta
 _ZTV17QImageVideoBuffer@Qt_5_PRIVATE_API 5.6.0~beta
 _ZTV17QRadioDataControl@Qt_5 5.6.0~beta
 _ZTV18QAudioSystemPlugin@Qt_5 5.6.0~beta
 _ZTV18QCameraInfoControl@Qt_5 5.6.0~beta
 _ZTV18QCameraZoomControl@Qt_5 5.6.0~beta
 _ZTV18QMemoryVideoBuffer@Qt_5_PRIVATE_API 5.6.0~beta
 _ZTV18QRadioTunerControl@Qt_5 5.6.0~beta
 _ZTV19QAbstractAudioInput@Qt_5 5.6.0~beta
 _ZTV19QCameraFlashControl@Qt_5 5.6.0~beta
 _ZTV19QCameraFocusControl@Qt_5 5.6.0~beta
 _ZTV19QCameraImageCapture@Qt_5 5.6.0~beta
 _ZTV19QCameraLocksControl@Qt_5 5.6.0~beta
 _ZTV19QMediaPlayerControl@Qt_5 5.6.0~beta
 _ZTV19QPlaylistFileParser@Qt_5_PRIVATE_API 5.6.0~beta
 _ZTV19QVideoWindowControl@Qt_5 5.6.0~beta
 _ZTV20QAbstractAudioOutput@Qt_5 5.6.0~beta
 _ZTV20QAbstractVideoBuffer@Qt_5 5.6.0~beta
 _ZTV20QAbstractVideoFilter@Qt_5 5.6.0~beta
 _ZTV20QAudioDecoderControl@Qt_5 5.6.0~beta
 _ZTV20QImageEncoderControl@Qt_5 5.6.0~beta
 _ZTV20QMediaPlaylistReader@Qt_5_PRIVATE_API 5.6.0~beta
 _ZTV20QMediaPlaylistWriter@Qt_5_PRIVATE_API 5.6.0~beta
 _ZTV20QMediaStreamsControl@Qt_5 5.6.0~beta
 _ZTV20QVideoFilterRunnable@Qt_5 5.6.0~beta
 _ZTV21QAbstractVideoSurface@Qt_5 5.6.0~beta
 _ZTV21QMediaPlaylistControl@Qt_5_PRIVATE_API 5.6.0~beta
 _ZTV21QMediaRecorderControl@Qt_5 5.6.0~beta
 _ZTV21QMediaServiceProvider@Qt_5_PRIVATE_API 5.6.0~beta
 _ZTV21QVideoRendererControl@Qt_5 5.6.0~beta
 _ZTV22QCameraExposureControl@Qt_5 5.6.0~beta
 _ZTV22QCameraFeedbackControl@Qt_5 5.6.0~beta
 _ZTV22QCameraImageProcessing@Qt_5 5.6.0~beta
 _ZTV22QMediaContainerControl@Qt_5 5.6.0~beta
 _ZTV22QMediaPlaylistIOPlugin@Qt_5_PRIVATE_API 5.6.0~beta
 _ZTV22QMediaPlaylistProvider@Qt_5_PRIVATE_API 5.6.0~beta
 _ZTV22QMetaDataReaderControl@Qt_5 5.6.0~beta
 _ZTV22QMetaDataWriterControl@Qt_5 5.6.0~beta
 _ZTV23QMediaAudioProbeControl@Qt_5 5.6.0~beta
 _ZTV23QMediaBindableInterface@Qt_5 5.6.0~beta
 _ZTV23QMediaPlaylistNavigator@Qt_5_PRIVATE_API 5.6.0~beta
 _ZTV23QMediaVideoProbeControl@Qt_5 5.6.0~beta
 _ZTV24QAbstractAudioDeviceInfo@Qt_5 5.6.0~beta
 _ZTV25QMediaAvailabilityControl@Qt_5 5.6.0~beta
 _ZTV26QAbstractPlanarVideoBuffer@Qt_5 5.6.0~beta
 _ZTV26QAudioInputSelectorControl@Qt_5 5.6.0~beta
 _ZTV26QCameraImageCaptureControl@Qt_5 5.6.0~beta
 _ZTV26QMediaNetworkAccessControl@Qt_5 5.6.0~beta
 _ZTV26QMediaResourcePolicyPlugin@Qt_5_PRIVATE_API 5.6.0~beta
 _ZTV27QAudioOutputSelectorControl@Qt_5 5.6.0~beta
 _ZTV27QMediaPlaylistSourceControl@Qt_5_PRIVATE_API 5.6.0~beta
 _ZTV27QMediaServiceProviderPlugin@Qt_5 5.6.0~beta
 _ZTV27QVideoDeviceSelectorControl@Qt_5 5.6.0~beta
 _ZTV28QAudioEncoderSettingsControl@Qt_5 5.6.0~beta
 _ZTV28QAudioSystemFactoryInterface@Qt_5 5.6.0~beta
 _ZTV28QMediaGaplessPlaybackControl@Qt_5 5.6.0~beta
 _ZTV28QVideoEncoderSettingsControl@Qt_5 5.6.0~beta
 _ZTV29QCameraImageProcessingControl@Qt_5 5.6.0~beta
 _ZTV29QMediaNetworkPlaylistProvider@Qt_5_PRIVATE_API 5.6.0~beta
 _ZTV30QVideoOutputOrientationHandler@Qt_5_PRIVATE_API 5.6.0~beta
 _ZTV32QCameraCaptureDestinationControl@Qt_5 5.6.0~beta
 _ZTV32QCameraViewfinderSettingsControl@Qt_5 5.6.0~beta
 _ZTV32QMediaPlayerResourceSetInterface@Qt_5_PRIVATE_API 5.6.0~beta
 _ZTV33QCameraCaptureBufferFormatControl@Qt_5 5.6.0~beta
 _ZTV33QCameraViewfinderSettingsControl2@Qt_5 5.6.0~beta
 _ZTV37QMediaServiceProviderFactoryInterface@Qt_5 5.6.0~beta
 _ZTV6QSound@Qt_5 5.6.0~beta
 _ZTV7QCamera@Qt_5 5.6.0~beta
 _ZTV7QSample@Qt_5_PRIVATE_API 5.6.0~beta
 _ZeqRK15QMediaTimeRangeS1_@Qt_5 5.6.0~beta
 _ZeqRK18QMediaTimeIntervalS1_@Qt_5 5.6.0~beta
 _ZeqRK25QCameraViewfinderSettingsS1_@Qt_5 5.6.0~beta
 _Zls6QDebugN11QVideoFrame11PixelFormatE@Qt_5 5.6.0~beta
 _Zls6QDebugN11QVideoFrame9FieldTypeE@Qt_5 5.6.0~beta
 _Zls6QDebugN12QAudioFormat10SampleTypeE@Qt_5 5.6.0~beta
 _Zls6QDebugN12QAudioFormat6EndianE@Qt_5 5.6.0~beta
 _Zls6QDebugN19QVideoSurfaceFormat15YCbCrColorSpaceE@Qt_5 5.6.0~beta
 _Zls6QDebugN19QVideoSurfaceFormat9DirectionE@Qt_5 5.6.0~beta
 _Zls6QDebugN20QAbstractVideoBuffer10HandleTypeE@Qt_5 5.6.0~beta
 _Zls6QDebugN20QAbstractVideoBuffer7MapModeE@Qt_5 5.6.0~beta
 _Zls6QDebugN6QAudio4ModeE@Qt_5 5.6.0~beta
 _Zls6QDebugN6QAudio4RoleE@Qt_5 5.6.0~beta
 _Zls6QDebugN6QAudio5ErrorE@Qt_5 5.6.0~beta
 _Zls6QDebugN6QAudio5StateE@Qt_5 5.6.0~beta
 _Zls6QDebugRK11QCameraInfo@Qt_5 5.6.0~beta
 _Zls6QDebugRK11QVideoFrame@Qt_5 5.6.0~beta
 _Zls6QDebugRK12QAudioFormat@Qt_5 5.6.0~beta
 _Zls6QDebugRK15QMediaTimeRange@Qt_5 5.6.0~beta
 _Zls6QDebugRK19QVideoSurfaceFormat@Qt_5 5.6.0~beta
 _Zls6QDebugRKN21QAbstractVideoSurface5ErrorE@Qt_5 5.6.0~beta
 _ZmiRK15QMediaTimeRangeS1_@Qt_5 5.6.0~beta
 _ZneRK15QMediaTimeRangeS1_@Qt_5 5.6.0~beta
 _ZneRK18QMediaTimeIntervalS1_@Qt_5 5.6.0~beta
 _ZplRK15QMediaTimeRangeS1_@Qt_5 5.6.0~beta
 (c++)"non-virtual thunk to QAudioRecorder::~QAudioRecorder()@Qt_5" 5.6.0~beta
 (c++)"non-virtual thunk to QAudioSystemPlugin::~QAudioSystemPlugin()@Qt_5" 5.6.0~beta
 (c++)"non-virtual thunk to QCameraImageCapture::mediaObject() const@Qt_5" 5.6.0~beta
 (c++)"non-virtual thunk to QCameraImageCapture::setMediaObject(QMediaObject*)@Qt_5" 5.6.0~beta
 (c++)"non-virtual thunk to QCameraImageCapture::~QCameraImageCapture()@Qt_5" 5.6.0~beta
 (c++)"non-virtual thunk to QMediaPlaylist::mediaObject() const@Qt_5" 5.6.0~beta
 (c++)"non-virtual thunk to QMediaPlaylist::setMediaObject(QMediaObject*)@Qt_5" 5.6.0~beta
 (c++)"non-virtual thunk to QMediaPlaylist::~QMediaPlaylist()@Qt_5" 5.6.0~beta
 (c++)"non-virtual thunk to QMediaRecorder::mediaObject() const@Qt_5" 5.6.0~beta
 (c++)"non-virtual thunk to QMediaRecorder::setMediaObject(QMediaObject*)@Qt_5" 5.6.0~beta
 (c++)"non-virtual thunk to QMediaRecorder::~QMediaRecorder()@Qt_5" 5.6.0~beta
 (c++)"non-virtual thunk to QRadioData::mediaObject() const@Qt_5" 5.6.0~beta
 (c++)"non-virtual thunk to QRadioData::setMediaObject(QMediaObject*)@Qt_5" 5.6.0~beta
 (c++)"non-virtual thunk to QRadioData::~QRadioData()@Qt_5" 5.6.0~beta
