# SymbolsHelper-Confirmed: 5.6.0~rc amd64 arm64 armel armhf i386 kfreebsd-amd64 kfreebsd-i386 mips mips64el mipsel powerpc ppc64el s390x
libQt5Qml.so.5 libqt5qml5 #MINVER#
| libqt5qml5 #MINVER#, qtdeclarative-abi-5-6-0
 Qt_5.0@Qt_5.0 5.6.0~beta
 Qt_5.1@Qt_5.1 5.6.0~beta
 Qt_5.2@Qt_5.2 5.6.0~beta
 Qt_5.3@Qt_5.3 5.6.0~beta
 Qt_5.4@Qt_5.4 5.6.0~beta
 Qt_5.5@Qt_5.5 5.6.0~beta
 Qt_5.6@Qt_5.6 5.6.0~beta
 Qt_5@Qt_5 5.6.0~beta
 Qt_5_PRIVATE_API@Qt_5_PRIVATE_API 5.6.0~beta 1
 _Z10qmlContextPK7QObject@Qt_5 5.0.2
 _Z16qmlProtectModulePKci@Qt_5 5.2.0~beta1
 _Z18QQml_colorProviderv@Qt_5 5.0.2
 _Z18qmlExecuteDeferredP7QObject@Qt_5 5.0.2
 _Z19QQml_setGuiProviderP15QQmlGuiProvider@Qt_5_PRIVATE_API 5.0.2 1
 _Z20qmlRegisterBaseTypesPKcii@Qt_5 5.0.2
 _Z21QQml_setColorProviderP17QQmlColorProvider@Qt_5_PRIVATE_API 5.0.2 1
 (optional=templinst)_Z21convertValueToElementI11QModelIndexET_RKN3QV45ValueE@Qt_5_PRIVATE_API 5.5.0 1
 (optional=templinst)_Z21convertValueToElementI19QItemSelectionRangeET_RKN3QV45ValueE@Qt_5_PRIVATE_API 5.5.0 1
 (optional=templinst)_Z21convertValueToElementI4QUrlET_RKN3QV45ValueE@Qt_5_PRIVATE_API 5.5.0 1
 (optional=templinst)_Z21convertValueToElementI7QStringET_RKN3QV45ValueE@Qt_5_PRIVATE_API 5.5.0 1
 (optional=templinst)_Z21convertValueToElementIbET_RKN3QV45ValueE@Qt_5_PRIVATE_API 5.5.0 1
 (optional=templinst)_Z21convertValueToElementIdET_RKN3QV45ValueE@Qt_5_PRIVATE_API 5.5.0 1
 (optional=templinst)_Z21convertValueToElementIiET_RKN3QV45ValueE@Qt_5_PRIVATE_API 5.5.0 1
 _Z25QQml_addValueTypeProviderP21QQmlValueTypeProvider@Qt_5_PRIVATE_API 5.0.2 1
 _Z25qmlClearTypeRegistrationsv@Qt_5 5.1.0
 _Z27qmlAttachedPropertiesObjectPiPK7QObjectPK11QMetaObjectb@Qt_5 5.0.2
 _Z27qmlRegisterTypeNotAvailablePKciiS0_RK7QString@Qt_5 5.0.2
 _Z28QQml_removeValueTypeProviderP21QQmlValueTypeProvider@Qt_5_PRIVATE_API 5.1.0 1
 _Z31qmlAttachedPropertiesObjectByIdiPK7QObjectb@Qt_5 5.0.2
 _Z9qjsEnginePK7QObject@Qt_5 5.5.0
 _Z9qmlEnginePK7QObject@Qt_5 5.0.2
 _ZGVZN9QMetaType17registerConverterI8QJSValue11QStringListPFS2_RKS1_EEEbT1_E1f@Qt_5 5.4.0
 _ZGVZN9QMetaType17registerConverterI8QJSValue4QMapI7QString8QVariantEPFS5_RKS1_EEEbT1_E1f@Qt_5 5.4.0
 _ZGVZN9QMetaType17registerConverterI8QJSValue5QListI8QVariantEPFS4_RKS1_EEEbT1_E1f@Qt_5 5.4.0
 (optional=inline)_ZN10QByteArray7reserveEi@Qt_5 5.6.0~beta
 _ZN10QQmlEngine10setBaseUrlERK4QUrl@Qt_5 5.0.2
 _ZN10QQmlEngine11qt_metacallEN11QMetaObject4CallEiPPv@Qt_5 5.0.2
 _ZN10QQmlEngine11qt_metacastEPKc@Qt_5 5.0.2
 _ZN10QQmlEngine12importPluginERK7QStringS2_P5QListI9QQmlErrorE@Qt_5 5.0.2
 _ZN10QQmlEngine13addImportPathERK7QString@Qt_5 5.0.2
 _ZN10QQmlEngine13addPluginPathERK7QString@Qt_5 5.0.2
 _ZN10QQmlEngine14addNamedBundleERK7QStringS2_@Qt_5 5.0.2
 _ZN10QQmlEngine15objectOwnershipEP7QObject@Qt_5 5.0.2
 _ZN10QQmlEngine16addImageProviderERK7QStringP21QQmlImageProviderBase@Qt_5 5.0.2
 _ZN10QQmlEngine16contextForObjectEPK7QObject@Qt_5 5.0.2
 _ZN10QQmlEngine16staticMetaObjectE@Qt_5 5.0.2
 _ZN10QQmlEngine17setImportPathListERK11QStringList@Qt_5 5.0.2
 _ZN10QQmlEngine17setPluginPathListERK11QStringList@Qt_5 5.0.2
 _ZN10QQmlEngine17setUrlInterceptorEP26QQmlAbstractUrlInterceptor@Qt_5 5.1.0
 _ZN10QQmlEngine18setObjectOwnershipEP7QObjectNS_15ObjectOwnershipE@Qt_5 5.0.2
 _ZN10QQmlEngine18trimComponentCacheEv@Qt_5 5.0.2
 _ZN10QQmlEngine19clearComponentCacheEv@Qt_5 5.0.2
 _ZN10QQmlEngine19removeImageProviderERK7QString@Qt_5 5.0.2
 _ZN10QQmlEngine19setContextForObjectEP7QObjectP11QQmlContext@Qt_5 5.0.2
 _ZN10QQmlEngine21setOfflineStoragePathERK7QString@Qt_5 5.0.2
 _ZN10QQmlEngine23setIncubationControllerEP24QQmlIncubationController@Qt_5 5.0.2
 _ZN10QQmlEngine30setNetworkAccessManagerFactoryEP31QQmlNetworkAccessManagerFactory@Qt_5 5.0.2
 _ZN10QQmlEngine32setOutputWarningsToStandardErrorEb@Qt_5 5.0.2
 _ZN10QQmlEngine4quitEv@Qt_5 5.0.2
 _ZN10QQmlEngine5eventEP6QEvent@Qt_5 5.0.2
 _ZN10QQmlEngine8warningsERK5QListI9QQmlErrorE@Qt_5 5.0.2
 _ZN10QQmlEngineC1EP7QObject@Qt_5 5.0.2
 _ZN10QQmlEngineC1ER17QQmlEnginePrivateP7QObject@Qt_5_PRIVATE_API 5.1.0 1
 _ZN10QQmlEngineC2EP7QObject@Qt_5 5.0.2
 _ZN10QQmlEngineC2ER17QQmlEnginePrivateP7QObject@Qt_5_PRIVATE_API 5.1.0 1
 _ZN10QQmlEngineD0Ev@Qt_5 5.0.2
 _ZN10QQmlEngineD1Ev@Qt_5 5.0.2
 _ZN10QQmlEngineD2Ev@Qt_5 5.0.2
 _ZN10QQmlLocale16staticMetaObjectE@Qt_5_PRIVATE_API 5.6.0~beta 1
 _ZN10QQmlLocale20method_localeCompareEPN3QV411CallContextE@Qt_5_PRIVATE_API 5.6.0~beta 1
 _ZN10QQmlLocale27registerStringLocaleCompareEPN3QV415ExecutionEngineE@Qt_5_PRIVATE_API 5.6.0~beta 1
 _ZN10QQmlLocale4wrapEPN3QV415ExecutionEngineERK7QLocale@Qt_5_PRIVATE_API 5.6.0~beta 1
 _ZN10QQmlLocale6localeEPN3QV415ExecutionEngineERK7QString@Qt_5_PRIVATE_API 5.6.0~beta 1
 _ZN10QQmlLocaleC1Ev@Qt_5_PRIVATE_API 5.6.0~beta 1
 _ZN10QQmlLocaleC2Ev@Qt_5_PRIVATE_API 5.6.0~beta 1
 _ZN10QQmlLocaleD1Ev@Qt_5_PRIVATE_API 5.6.0~beta 1
 _ZN10QQmlLocaleD2Ev@Qt_5_PRIVATE_API 5.6.0~beta 1
 _ZN11QQmlBinding10setEnabledEb6QFlagsIN19QQmlPropertyPrivate9WriteFlagEE@Qt_5_PRIVATE_API 5.0.2 1
 _ZN11QQmlBinding17expressionChangedEv@Qt_5_PRIVATE_API 5.6.0~beta 1
 _ZN11QQmlBinding20expressionIdentifierEv@Qt_5_PRIVATE_API 5.6.0~beta 1
 _ZN11QQmlBinding23setNotifyOnValueChangedEb@Qt_5_PRIVATE_API 5.0.2 1
 _ZN11QQmlBinding5writeERK16QQmlPropertyDataRKN3QV45ValueEb6QFlagsIN19QQmlPropertyPrivate9WriteFlagEE@Qt_5_PRIVATE_API 5.6.0~beta 1
 _ZN11QQmlBinding6updateE6QFlagsIN19QQmlPropertyPrivate9WriteFlagEE@Qt_5_PRIVATE_API 5.0.2 1
 _ZN11QQmlBinding7refreshEv@Qt_5_PRIVATE_API 5.0.2 1
 _ZN11QQmlBinding8evaluateEv@Qt_5_PRIVATE_API 5.0.2 1
 _ZN11QQmlBinding9setTargetEP7QObjectRK16QQmlPropertyData@Qt_5_PRIVATE_API 5.6.0~beta 1
 _ZN11QQmlBinding9setTargetERK12QQmlProperty@Qt_5_PRIVATE_API 5.0.2 1
 _ZN11QQmlBindingC1ERK16QQmlScriptStringP7QObjectP11QQmlContext@Qt_5_PRIVATE_API 5.0.2 1
 _ZN11QQmlBindingC1ERK7QStringP7QObjectP11QQmlContext@Qt_5_PRIVATE_API 5.0.2 1
 _ZN11QQmlBindingC1ERK7QStringP7QObjectP15QQmlContextData@Qt_5_PRIVATE_API 5.0.2 1
 _ZN11QQmlBindingC1ERK7QStringP7QObjectP15QQmlContextDataS2_tt@Qt_5_PRIVATE_API 5.2.0~beta1 1
 _ZN11QQmlBindingC1ERKN3QV45ValueEP7QObjectP15QQmlContextData@Qt_5_PRIVATE_API 5.5.0 1
 _ZN11QQmlBindingC2ERK16QQmlScriptStringP7QObjectP11QQmlContext@Qt_5_PRIVATE_API 5.0.2 1
 _ZN11QQmlBindingC2ERK7QStringP7QObjectP11QQmlContext@Qt_5_PRIVATE_API 5.0.2 1
 _ZN11QQmlBindingC2ERK7QStringP7QObjectP15QQmlContextData@Qt_5_PRIVATE_API 5.0.2 1
 _ZN11QQmlBindingC2ERK7QStringP7QObjectP15QQmlContextDataS2_tt@Qt_5_PRIVATE_API 5.2.0~beta1 1
 _ZN11QQmlBindingC2ERKN3QV45ValueEP7QObjectP15QQmlContextData@Qt_5_PRIVATE_API 5.5.0 1
 _ZN11QQmlBindingD0Ev@Qt_5_PRIVATE_API 5.0.2 1
 _ZN11QQmlBindingD1Ev@Qt_5_PRIVATE_API 5.0.2 1
 _ZN11QQmlBindingD2Ev@Qt_5_PRIVATE_API 5.0.2 1
 _ZN11QQmlCleanup11addToEngineEP10QQmlEngine@Qt_5_PRIVATE_API 5.0.2 1
 _ZN11QQmlCleanupC1EP10QQmlEngine@Qt_5_PRIVATE_API 5.0.2 1
 _ZN11QQmlCleanupC1Ev@Qt_5_PRIVATE_API 5.0.2 1
 _ZN11QQmlCleanupC2EP10QQmlEngine@Qt_5_PRIVATE_API 5.0.2 1
 _ZN11QQmlCleanupC2Ev@Qt_5_PRIVATE_API 5.0.2 1
 _ZN11QQmlCleanupD0Ev@Qt_5_PRIVATE_API 5.0.2 1
 _ZN11QQmlCleanupD1Ev@Qt_5_PRIVATE_API 5.0.2 1
 _ZN11QQmlCleanupD2Ev@Qt_5_PRIVATE_API 5.0.2 1
 _ZN11QQmlContext10setBaseUrlERK4QUrl@Qt_5 5.0.2
 _ZN11QQmlContext11qt_metacallEN11QMetaObject4CallEiPPv@Qt_5 5.0.2
 _ZN11QQmlContext11qt_metacastEPKc@Qt_5 5.0.2
 _ZN11QQmlContext11resolvedUrlERK4QUrl@Qt_5 5.0.2
 _ZN11QQmlContext16setContextObjectEP7QObject@Qt_5 5.0.2
 _ZN11QQmlContext16staticMetaObjectE@Qt_5 5.0.2
 _ZN11QQmlContext18setContextPropertyERK7QStringP7QObject@Qt_5 5.0.2
 _ZN11QQmlContext18setContextPropertyERK7QStringRK8QVariant@Qt_5 5.0.2
 _ZN11QQmlContextC1EP10QQmlEngineP7QObject@Qt_5 5.0.2
 _ZN11QQmlContextC1EP10QQmlEngineb@Qt_5 5.0.2
 _ZN11QQmlContextC1EP15QQmlContextData@Qt_5_PRIVATE_API 5.0.2 1
 _ZN11QQmlContextC1EPS_P7QObject@Qt_5 5.0.2
 _ZN11QQmlContextC2EP10QQmlEngineP7QObject@Qt_5 5.0.2
 _ZN11QQmlContextC2EP10QQmlEngineb@Qt_5 5.0.2
 _ZN11QQmlContextC2EP15QQmlContextData@Qt_5_PRIVATE_API 5.0.2 1
 _ZN11QQmlContextC2EPS_P7QObject@Qt_5 5.0.2
 _ZN11QQmlContextD0Ev@Qt_5 5.0.2
 _ZN11QQmlContextD1Ev@Qt_5 5.0.2
 _ZN11QQmlContextD2Ev@Qt_5 5.0.2
 _ZN11QQmlImports10setBaseUrlERK4QUrlRK7QString@Qt_5_PRIVATE_API 5.0.2 1
 _ZN11QQmlImports12locateQmldirEP18QQmlImportDatabaseRK7QStringiiPS2_S5_@Qt_5_PRIVATE_API 5.0.2 1
 _ZN11QQmlImports13addFileImportEP18QQmlImportDatabaseRK7QStringS4_iibP5QListI9QQmlErrorE@Qt_5_PRIVATE_API 5.0.2 1
 _ZN11QQmlImports13versionStringEiiNS_13ImportVersionE@Qt_5_PRIVATE_API 5.2.0~beta1 1
 _ZN11QQmlImports16addLibraryImportEP18QQmlImportDatabaseRK7QStringS4_iiS4_S4_bP5QListI9QQmlErrorE@Qt_5_PRIVATE_API 5.0.2 1
 _ZN11QQmlImports17addImplicitImportEP18QQmlImportDatabaseP5QListI9QQmlErrorE@Qt_5_PRIVATE_API 5.0.2 1
 _ZN11QQmlImports18completeQmldirPathERK7QStringS2_iiNS_13ImportVersionE@Qt_5_PRIVATE_API 5.0.2 1
 _ZN11QQmlImports19updateQmldirContentEP18QQmlImportDatabaseRK7QStringS4_S4_S4_P5QListI9QQmlErrorE@Qt_5_PRIVATE_API 5.0.2 1
 _ZN11QQmlImports26setDesignerSupportRequiredEb@Qt_5_PRIVATE_API 5.4.0 1
 _ZN11QQmlImports7isLocalERK4QUrl@Qt_5_PRIVATE_API 5.0.2 1
 _ZN11QQmlImports7isLocalERK7QString@Qt_5_PRIVATE_API 5.0.2 1
 _ZN11QQmlImportsC1EP14QQmlTypeLoader@Qt_5_PRIVATE_API 5.0.2 1
 _ZN11QQmlImportsC1ERKS_@Qt_5_PRIVATE_API 5.0.2 1
 _ZN11QQmlImportsC2EP14QQmlTypeLoader@Qt_5_PRIVATE_API 5.0.2 1
 _ZN11QQmlImportsC2ERKS_@Qt_5_PRIVATE_API 5.0.2 1
 _ZN11QQmlImportsD1Ev@Qt_5_PRIVATE_API 5.0.2 1
 _ZN11QQmlImportsD2Ev@Qt_5_PRIVATE_API 5.0.2 1
 _ZN11QQmlImportsaSERKS_@Qt_5_PRIVATE_API 5.0.2 1
 _ZN11QQmlPrivate11qmlregisterENS_16RegistrationTypeEPv@Qt_5 5.0.2
 _ZN11QQmlPrivate30qdeclarativeelement_destructorEP7QObject@Qt_5 5.0.2
 _ZN12QQmlDataBlob12networkErrorEN13QNetworkReply12NetworkErrorE@Qt_5_PRIVATE_API 5.0.2 1
 _ZN12QQmlDataBlob12startLoadingEv@Qt_5_PRIVATE_API 5.5.0 1
 _ZN12QQmlDataBlob13addDependencyEPS_@Qt_5_PRIVATE_API 5.0.2 1
 _ZN12QQmlDataBlob14notifyCompleteEPS_@Qt_5_PRIVATE_API 5.0.2 1
 _ZN12QQmlDataBlob15dependencyErrorEPS_@Qt_5_PRIVATE_API 5.0.2 1
 _ZN12QQmlDataBlob18dependencyCompleteEPS_@Qt_5_PRIVATE_API 5.0.2 1
 _ZN12QQmlDataBlob19allDependenciesDoneEv@Qt_5_PRIVATE_API 5.0.2 1
 _ZN12QQmlDataBlob19cancelAllWaitingForEv@Qt_5_PRIVATE_API 5.0.2 1
 _ZN12QQmlDataBlob20notifyAllWaitingOnMeEv@Qt_5_PRIVATE_API 5.0.2 1
 _ZN12QQmlDataBlob23downloadProgressChangedEd@Qt_5_PRIVATE_API 5.2.0 1
 _ZN12QQmlDataBlob4doneEv@Qt_5_PRIVATE_API 5.0.2 1
 _ZN12QQmlDataBlob7tryDoneEv@Qt_5_PRIVATE_API 5.0.2 1
 _ZN12QQmlDataBlob8setErrorERK5QListI9QQmlErrorE@Qt_5_PRIVATE_API 5.0.2 1
 _ZN12QQmlDataBlob8setErrorERK9QQmlError@Qt_5_PRIVATE_API 5.0.2 1
 _ZN12QQmlDataBlob9completedEv@Qt_5_PRIVATE_API 5.0.2 1
 _ZN12QQmlDataBlobC1ERK4QUrlNS_4TypeEP14QQmlTypeLoader@Qt_5_PRIVATE_API 5.5.0 1
 _ZN12QQmlDataBlobC2ERK4QUrlNS_4TypeEP14QQmlTypeLoader@Qt_5_PRIVATE_API 5.5.0 1
 _ZN12QQmlDataBlobD0Ev@Qt_5_PRIVATE_API 5.0.2 1
 _ZN12QQmlDataBlobD1Ev@Qt_5_PRIVATE_API 5.0.2 1
 _ZN12QQmlDataBlobD2Ev@Qt_5_PRIVATE_API 5.0.2 1
 _ZN12QQmlMetaType10typeModuleERK7QStringi@Qt_5_PRIVATE_API 5.0.2 1
 _ZN12QQmlMetaType11isAnyModuleERK7QString@Qt_5_PRIVATE_API 5.0.2 1
 _ZN12QQmlMetaType11isInterfaceEi@Qt_5_PRIVATE_API 5.0.2 1
 _ZN12QQmlMetaType11qmlAllTypesEv@Qt_5_PRIVATE_API 5.3.0 1
 _ZN12QQmlMetaType12interfaceIIdEi@Qt_5_PRIVATE_API 5.0.2 1
 _ZN12QQmlMetaType12qmlTypeNamesEv@Qt_5_PRIVATE_API 5.0.2 1
 _ZN12QQmlMetaType12typeCategoryEi@Qt_5_PRIVATE_API 5.0.2 1
 _ZN12QQmlMetaType13defaultMethodEP7QObject@Qt_5_PRIVATE_API 5.0.2 1
 _ZN12QQmlMetaType13defaultMethodEPK11QMetaObject@Qt_5_PRIVATE_API 5.0.2 1
 _ZN12QQmlMetaType14isLockedModuleERK7QStringi@Qt_5_PRIVATE_API 5.2.0~beta1 1
 _ZN12QQmlMetaType14prettyTypeNameEPK7QObject@Qt_5_PRIVATE_API 5.6.0~beta 1
 _ZN12QQmlMetaType15defaultPropertyEP7QObject@Qt_5_PRIVATE_API 5.0.2 1
 _ZN12QQmlMetaType15defaultPropertyEPK11QMetaObject@Qt_5_PRIVATE_API 5.0.2 1
 _ZN12QQmlMetaType15parentFunctionsEv@Qt_5_PRIVATE_API 5.0.2 1
 _ZN12QQmlMetaType16protectNamespaceERK7QString@Qt_5_PRIVATE_API 5.0.2 1
 _ZN12QQmlMetaType16qmlTypeFromIndexEi@Qt_5_PRIVATE_API 5.1.0 1
 _ZN12QQmlMetaType17qmlSingletonTypesEv@Qt_5_PRIVATE_API 5.0.2 1
 _ZN12QQmlMetaType20typeRegistrationLockEv@Qt_5_PRIVATE_API 5.0.2 1
 _ZN12QQmlMetaType21customStringConverterEi@Qt_5_PRIVATE_API 5.0.2 1
 _ZN12QQmlMetaType24attachedPropertiesFuncIdEP17QQmlEnginePrivatePK11QMetaObject@Qt_5_PRIVATE_API 5.6.0~beta 1
 _ZN12QQmlMetaType24typeRegistrationFailuresEv@Qt_5_PRIVATE_API 5.0.2 1
 _ZN12QQmlMetaType25findCachedCompilationUnitERK4QUrl@Qt_5_PRIVATE_API 5.3.0 1
 _ZN12QQmlMetaType26attachedPropertiesFuncByIdEP17QQmlEnginePrivatei@Qt_5_PRIVATE_API 5.6.0~beta 1
 _ZN12QQmlMetaType28setTypeRegistrationNamespaceERK7QString@Qt_5_PRIVATE_API 5.0.2 1
 _ZN12QQmlMetaType29registerCustomStringConverterEiPF8QVariantRK7QStringE@Qt_5_PRIVATE_API 5.0.2 1
 _ZN12QQmlMetaType30namespaceContainsRegistrationsERK7QStringi@Qt_5_PRIVATE_API 5.5.0 1
 _ZN12QQmlMetaType6isListEi@Qt_5_PRIVATE_API 5.0.2 1
 _ZN12QQmlMetaType7qmlTypeEPK11QMetaObject@Qt_5_PRIVATE_API 5.0.2 1
 _ZN12QQmlMetaType7qmlTypeEPK11QMetaObjectRK16QHashedStringRefii@Qt_5_PRIVATE_API 5.0.2 1
 _ZN12QQmlMetaType7qmlTypeERK16QHashedStringRefS2_ii@Qt_5_PRIVATE_API 5.0.2 1
 _ZN12QQmlMetaType7qmlTypeERK4QUrlb@Qt_5_PRIVATE_API 5.2.0~beta1 1
 _ZN12QQmlMetaType7qmlTypeERK7QStringii@Qt_5_PRIVATE_API 5.0.2 1
 _ZN12QQmlMetaType7qmlTypeEi@Qt_5_PRIVATE_API 5.0.2 1
 _ZN12QQmlMetaType8isModuleERK7QStringii@Qt_5_PRIVATE_API 5.0.2 1
 _ZN12QQmlMetaType8listTypeEi@Qt_5_PRIVATE_API 5.0.2 1
 _ZN12QQmlMetaType8qmlTypesEv@Qt_5_PRIVATE_API 5.0.2 1
 _ZN12QQmlMetaType9isQObjectEi@Qt_5_PRIVATE_API 5.0.2 1
 _ZN12QQmlMetaType9toQObjectERK8QVariantPb@Qt_5_PRIVATE_API 5.0.2 1
 _ZN12QQmlNotifier10emitNotifyEP20QQmlNotifierEndpointPPv@Qt_5_PRIVATE_API 5.0.2 1
 _ZN12QQmlPlatform11qt_metacallEN11QMetaObject4CallEiPPv@Qt_5_PRIVATE_API 5.1.0 1
 _ZN12QQmlPlatform11qt_metacastEPKc@Qt_5_PRIVATE_API 5.1.0 1
 _ZN12QQmlPlatform16staticMetaObjectE@Qt_5_PRIVATE_API 5.1.0 1
 _ZN12QQmlPlatform2osEv@Qt_5_PRIVATE_API 5.1.0 1
 _ZN12QQmlPlatformC1EP7QObject@Qt_5_PRIVATE_API 5.1.0 1
 _ZN12QQmlPlatformC2EP7QObject@Qt_5_PRIVATE_API 5.1.0 1
 _ZN12QQmlPlatformD0Ev@Qt_5_PRIVATE_API 5.1.0 1
 _ZN12QQmlPlatformD1Ev@Qt_5_PRIVATE_API 5.1.0 1
 _ZN12QQmlPlatformD2Ev@Qt_5_PRIVATE_API 5.1.0 1
 _ZN12QQmlProperty4readEPK7QObjectRK7QString@Qt_5 5.0.2
 _ZN12QQmlProperty4readEPK7QObjectRK7QStringP10QQmlEngine@Qt_5 5.0.2
 _ZN12QQmlProperty4readEPK7QObjectRK7QStringP11QQmlContext@Qt_5 5.0.2
 _ZN12QQmlProperty5writeEP7QObjectRK7QStringRK8QVariant@Qt_5 5.0.2
 _ZN12QQmlProperty5writeEP7QObjectRK7QStringRK8QVariantP10QQmlEngine@Qt_5 5.0.2
 _ZN12QQmlProperty5writeEP7QObjectRK7QStringRK8QVariantP11QQmlContext@Qt_5 5.0.2
 _ZN12QQmlPropertyC1EP7QObject@Qt_5 5.0.2
 _ZN12QQmlPropertyC1EP7QObjectP10QQmlEngine@Qt_5 5.0.2
 _ZN12QQmlPropertyC1EP7QObjectP11QQmlContext@Qt_5 5.0.2
 _ZN12QQmlPropertyC1EP7QObjectRK7QString@Qt_5 5.0.2
 _ZN12QQmlPropertyC1EP7QObjectRK7QStringP10QQmlEngine@Qt_5 5.0.2
 _ZN12QQmlPropertyC1EP7QObjectRK7QStringP11QQmlContext@Qt_5 5.0.2
 _ZN12QQmlPropertyC1ERKS_@Qt_5 5.0.2
 _ZN12QQmlPropertyC1Ev@Qt_5 5.0.2
 _ZN12QQmlPropertyC2EP7QObject@Qt_5 5.0.2
 _ZN12QQmlPropertyC2EP7QObjectP10QQmlEngine@Qt_5 5.0.2
 _ZN12QQmlPropertyC2EP7QObjectP11QQmlContext@Qt_5 5.0.2
 _ZN12QQmlPropertyC2EP7QObjectRK7QString@Qt_5 5.0.2
 _ZN12QQmlPropertyC2EP7QObjectRK7QStringP10QQmlEngine@Qt_5 5.0.2
 _ZN12QQmlPropertyC2EP7QObjectRK7QStringP11QQmlContext@Qt_5 5.0.2
 _ZN12QQmlPropertyC2ERKS_@Qt_5 5.0.2
 _ZN12QQmlPropertyC2Ev@Qt_5 5.0.2
 _ZN12QQmlPropertyD1Ev@Qt_5 5.0.2
 _ZN12QQmlPropertyD2Ev@Qt_5 5.0.2
 _ZN12QQmlPropertyaSERKS_@Qt_5 5.0.2
 _ZN13QQmlChangeSet4moveERK7QVectorINS_6ChangeEES4_@Qt_5_PRIVATE_API 5.4.0 1
 _ZN13QQmlChangeSet4moveEiiii@Qt_5_PRIVATE_API 5.1.0 1
 _ZN13QQmlChangeSet5applyERKS_@Qt_5_PRIVATE_API 5.1.0 1
 _ZN13QQmlChangeSet6changeEP7QVectorINS_6ChangeEE@Qt_5_PRIVATE_API 5.1.0 1
 _ZN13QQmlChangeSet6changeERK7QVectorINS_6ChangeEE@Qt_5_PRIVATE_API 5.1.0 1
 _ZN13QQmlChangeSet6changeEii@Qt_5_PRIVATE_API 5.1.0 1
 _ZN13QQmlChangeSet6insertERK7QVectorINS_6ChangeEE@Qt_5_PRIVATE_API 5.4.0 1
 _ZN13QQmlChangeSet6insertEii@Qt_5_PRIVATE_API 5.1.0 1
 _ZN13QQmlChangeSet6removeEP7QVectorINS_6ChangeEES3_@Qt_5_PRIVATE_API 5.4.0 1
 _ZN13QQmlChangeSet6removeERK7QVectorINS_6ChangeEEPS2_@Qt_5_PRIVATE_API 5.4.0 1
 _ZN13QQmlChangeSet6removeEii@Qt_5_PRIVATE_API 5.1.0 1
 _ZN13QQmlChangeSetC1ERKS_@Qt_5_PRIVATE_API 5.1.0 1
 _ZN13QQmlChangeSetC1Ev@Qt_5_PRIVATE_API 5.1.0 1
 _ZN13QQmlChangeSetC2ERKS_@Qt_5_PRIVATE_API 5.1.0 1
 _ZN13QQmlChangeSetC2Ev@Qt_5_PRIVATE_API 5.1.0 1
 _ZN13QQmlChangeSetD1Ev@Qt_5_PRIVATE_API 5.1.0 1
 _ZN13QQmlChangeSetD2Ev@Qt_5_PRIVATE_API 5.1.0 1
 _ZN13QQmlChangeSetaSERKS_@Qt_5_PRIVATE_API 5.1.0 1
 _ZN13QQmlComponent11beginCreateEP11QQmlContext@Qt_5 5.0.2
 _ZN13QQmlComponent11qt_metacallEN11QMetaObject4CallEiPPv@Qt_5 5.0.2
 _ZN13QQmlComponent11qt_metacastEPKc@Qt_5 5.0.2
 _ZN13QQmlComponent12createObjectEP14QQmlV4Function@Qt_5 5.2.0~beta1
 _ZN13QQmlComponent13statusChangedENS_6StatusE@Qt_5 5.0.2
 _ZN13QQmlComponent14completeCreateEv@Qt_5 5.0.2
 _ZN13QQmlComponent14incubateObjectEP14QQmlV4Function@Qt_5 5.2.0~beta1
 _ZN13QQmlComponent15progressChangedEd@Qt_5 5.2.0
 _ZN13QQmlComponent16staticMetaObjectE@Qt_5 5.0.2
 _ZN13QQmlComponent21qmlAttachedPropertiesEP7QObject@Qt_5 5.0.2
 _ZN13QQmlComponent6createEP11QQmlContext@Qt_5 5.0.2
 _ZN13QQmlComponent6createER13QQmlIncubatorP11QQmlContextS3_@Qt_5 5.0.2
 _ZN13QQmlComponent7loadUrlERK4QUrl@Qt_5 5.0.2
 _ZN13QQmlComponent7loadUrlERK4QUrlNS_15CompilationModeE@Qt_5 5.0.2
 _ZN13QQmlComponent7setDataERK10QByteArrayRK4QUrl@Qt_5 5.0.2
 _ZN13QQmlComponentC1EP10QQmlEngineP16QQmlCompiledDataiP7QObject@Qt_5_PRIVATE_API 5.0.2 1
 _ZN13QQmlComponentC1EP10QQmlEngineP7QObject@Qt_5 5.0.2
 _ZN13QQmlComponentC1EP10QQmlEngineRK4QUrlNS_15CompilationModeEP7QObject@Qt_5 5.0.2
 _ZN13QQmlComponentC1EP10QQmlEngineRK4QUrlP7QObject@Qt_5 5.0.2
 _ZN13QQmlComponentC1EP10QQmlEngineRK7QStringNS_15CompilationModeEP7QObject@Qt_5 5.0.2
 _ZN13QQmlComponentC1EP10QQmlEngineRK7QStringP7QObject@Qt_5 5.0.2
 _ZN13QQmlComponentC1EP7QObject@Qt_5 5.0.2
 _ZN13QQmlComponentC1ER20QQmlComponentPrivateP7QObject@Qt_5_PRIVATE_API 5.0.2 1
 _ZN13QQmlComponentC2EP10QQmlEngineP16QQmlCompiledDataiP7QObject@Qt_5_PRIVATE_API 5.0.2 1
 _ZN13QQmlComponentC2EP10QQmlEngineP7QObject@Qt_5 5.0.2
 _ZN13QQmlComponentC2EP10QQmlEngineRK4QUrlNS_15CompilationModeEP7QObject@Qt_5 5.0.2
 _ZN13QQmlComponentC2EP10QQmlEngineRK4QUrlP7QObject@Qt_5 5.0.2
 _ZN13QQmlComponentC2EP10QQmlEngineRK7QStringNS_15CompilationModeEP7QObject@Qt_5 5.0.2
 _ZN13QQmlComponentC2EP10QQmlEngineRK7QStringP7QObject@Qt_5 5.0.2
 _ZN13QQmlComponentC2EP7QObject@Qt_5 5.0.2
 _ZN13QQmlComponentC2ER20QQmlComponentPrivateP7QObject@Qt_5_PRIVATE_API 5.0.2 1
 _ZN13QQmlComponentD0Ev@Qt_5 5.0.2
 _ZN13QQmlComponentD1Ev@Qt_5 5.0.2
 _ZN13QQmlComponentD2Ev@Qt_5 5.0.2
 _ZN13QQmlDirParser11reportErrorEttRK7QString@Qt_5_PRIVATE_API 5.3.0 1
 _ZN13QQmlDirParser16setTypeNamespaceERK7QString@Qt_5_PRIVATE_API 5.3.0 1
 _ZN13QQmlDirParser5parseERK7QString@Qt_5_PRIVATE_API 5.3.0 1
 _ZN13QQmlDirParser8setErrorERK9QQmlError@Qt_5_PRIVATE_API 5.3.0 1
 _ZN13QQmlDirParserC1Ev@Qt_5_PRIVATE_API 5.3.0 1
 _ZN13QQmlDirParserC2Ev@Qt_5_PRIVATE_API 5.3.0 1
 _ZN13QQmlDirParserD1Ev@Qt_5_PRIVATE_API 5.3.0 1
 _ZN13QQmlDirParserD2Ev@Qt_5_PRIVATE_API 5.3.0 1
 _ZN13QQmlIncubator13statusChangedENS_6StatusE@Qt_5 5.0.2
 _ZN13QQmlIncubator15forceCompletionEv@Qt_5 5.0.2
 _ZN13QQmlIncubator15setInitialStateEP7QObject@Qt_5 5.0.2
 _ZN13QQmlIncubator5clearEv@Qt_5 5.0.2
 _ZN13QQmlIncubatorC1ENS_14IncubationModeE@Qt_5 5.0.2
 _ZN13QQmlIncubatorC2ENS_14IncubationModeE@Qt_5 5.0.2
 _ZN13QQmlIncubatorD0Ev@Qt_5 5.0.2
 _ZN13QQmlIncubatorD1Ev@Qt_5 5.0.2
 _ZN13QQmlIncubatorD2Ev@Qt_5 5.0.2
 _ZN13QQmlListModel11qt_metacallEN11QMetaObject4CallEiPPv@Qt_5_PRIVATE_API 5.1.0 1
 _ZN13QQmlListModel11qt_metacastEPKc@Qt_5_PRIVATE_API 5.1.0 1
 _ZN13QQmlListModel11setPropertyEiRK7QStringRK8QVariant@Qt_5_PRIVATE_API 5.1.0 1
 _ZN13QQmlListModel12countChangedEv@Qt_5_PRIVATE_API 5.1.0 1
 _ZN13QQmlListModel14emitItemsMovedEiii@Qt_5_PRIVATE_API 5.1.0 1
 _ZN13QQmlListModel15createWithOwnerEPS_@Qt_5_PRIVATE_API 5.1.0 1
 _ZN13QQmlListModel15setDynamicRolesEb@Qt_5_PRIVATE_API 5.1.0 1
 _ZN13QQmlListModel16emitItemsChangedEiiRK7QVectorIiE@Qt_5_PRIVATE_API 5.1.0 1
 _ZN13QQmlListModel16emitItemsRemovedEii@Qt_5_PRIVATE_API 5.1.0 1
 _ZN13QQmlListModel16staticMetaObjectE@Qt_5_PRIVATE_API 5.1.0 1
 _ZN13QQmlListModel17emitItemsInsertedEii@Qt_5_PRIVATE_API 5.1.0 1
 _ZN13QQmlListModel23emitItemsAboutToBeMovedEiii@Qt_5_PRIVATE_API 5.3.1 1
 _ZN13QQmlListModel25emitItemsAboutToBeRemovedEii@Qt_5_PRIVATE_API 5.3.1 1
 _ZN13QQmlListModel26emitItemsAboutToBeInsertedEii@Qt_5_PRIVATE_API 5.3.1 1
 _ZN13QQmlListModel3setEiRK12QQmlV4Handle@Qt_5_PRIVATE_API 5.2.0~beta1 1
 _ZN13QQmlListModel4moveEiii@Qt_5_PRIVATE_API 5.1.0 1
 _ZN13QQmlListModel4syncEPS_S0_P5QHashIiS0_E@Qt_5_PRIVATE_API 5.1.0 1
 _ZN13QQmlListModel4syncEv@Qt_5_PRIVATE_API 5.1.0 1
 _ZN13QQmlListModel5agentEv@Qt_5_PRIVATE_API 5.1.0 1
 _ZN13QQmlListModel5clearEv@Qt_5_PRIVATE_API 5.1.0 1
 _ZN13QQmlListModel6appendEP14QQmlV4Function@Qt_5_PRIVATE_API 5.2.0~beta1 1
 _ZN13QQmlListModel6insertEP14QQmlV4Function@Qt_5_PRIVATE_API 5.2.0~beta1 1
 _ZN13QQmlListModel6removeEP14QQmlV4Function@Qt_5_PRIVATE_API 5.2.0~beta1 1
 _ZN13QQmlListModel7setDataERK11QModelIndexRK8QVarianti@Qt_5_PRIVATE_API 5.6.0~beta 1
 _ZN13QQmlListModelC1EP7QObject@Qt_5_PRIVATE_API 5.1.0 1
 _ZN13QQmlListModelC1EPKS_P9ListModelPN3QV415ExecutionEngineEP7QObject@Qt_5_PRIVATE_API 5.5.0 1
 _ZN13QQmlListModelC1EPS_P24QQmlListModelWorkerAgent@Qt_5_PRIVATE_API 5.1.0 1
 _ZN13QQmlListModelC2EP7QObject@Qt_5_PRIVATE_API 5.1.0 1
 _ZN13QQmlListModelC2EPKS_P9ListModelPN3QV415ExecutionEngineEP7QObject@Qt_5_PRIVATE_API 5.5.0 1
 _ZN13QQmlListModelC2EPS_P24QQmlListModelWorkerAgent@Qt_5_PRIVATE_API 5.1.0 1
 _ZN13QQmlListModelD0Ev@Qt_5_PRIVATE_API 5.1.0 1
 _ZN13QQmlListModelD1Ev@Qt_5_PRIVATE_API 5.1.0 1
 _ZN13QQmlListModelD2Ev@Qt_5_PRIVATE_API 5.1.0 1
 _ZN13QQmlValueType15objectDestroyedEP7QObject@Qt_5_PRIVATE_API 5.5.0 1
 _ZN13QQmlValueType19toDynamicMetaObjectEP7QObject@Qt_5_PRIVATE_API 5.5.0 1
 _ZN13QQmlValueType4readEP7QObjecti@Qt_5_PRIVATE_API 5.5.0 1
 _ZN13QQmlValueType5valueEv@Qt_5_PRIVATE_API 5.5.0 1
 _ZN13QQmlValueType5writeEP7QObjecti6QFlagsIN19QQmlPropertyPrivate9WriteFlagEE@Qt_5_PRIVATE_API 5.5.0 1
 _ZN13QQmlValueType8metaCallEP7QObjectN11QMetaObject4CallEiPPv@Qt_5_PRIVATE_API 5.5.0 1
 _ZN13QQmlValueType8setValueERK8QVariant@Qt_5_PRIVATE_API 5.5.0 1
 _ZN13QQmlValueTypeC1EiPK11QMetaObject@Qt_5_PRIVATE_API 5.5.0 1
 _ZN13QQmlValueTypeC2EiPK11QMetaObject@Qt_5_PRIVATE_API 5.5.0 1
 _ZN13QQmlValueTypeD0Ev@Qt_5_PRIVATE_API 5.5.0 1
 _ZN13QQmlValueTypeD1Ev@Qt_5_PRIVATE_API 5.5.0 1
 _ZN13QQmlValueTypeD2Ev@Qt_5_PRIVATE_API 5.5.0 1
 _ZN14QQmlExpression10clearErrorEv@Qt_5 5.0.2
 _ZN14QQmlExpression11qt_metacallEN11QMetaObject4CallEiPPv@Qt_5 5.0.2
 _ZN14QQmlExpression11qt_metacastEPKc@Qt_5 5.0.2
 _ZN14QQmlExpression12valueChangedEv@Qt_5 5.0.2
 _ZN14QQmlExpression13setExpressionERK7QString@Qt_5 5.0.2
 _ZN14QQmlExpression16staticMetaObjectE@Qt_5 5.0.2
 _ZN14QQmlExpression17setSourceLocationERK7QStringii@Qt_5 5.0.2
 _ZN14QQmlExpression23setNotifyOnValueChangedEb@Qt_5 5.0.2
 _ZN14QQmlExpression8evaluateEPb@Qt_5 5.0.2
 _ZN14QQmlExpressionC1EP11QQmlContextP7QObjectRK7QStringS3_@Qt_5 5.0.2
 _ZN14QQmlExpressionC1EP15QQmlContextDataP7QObjectRK7QString@Qt_5_PRIVATE_API 5.0.2 1
 _ZN14QQmlExpressionC1ERK16QQmlScriptStringP11QQmlContextP7QObjectS6_@Qt_5 5.0.2
 _ZN14QQmlExpressionC1Ev@Qt_5 5.0.2
 _ZN14QQmlExpressionC2EP11QQmlContextP7QObjectRK7QStringS3_@Qt_5 5.0.2
 _ZN14QQmlExpressionC2EP15QQmlContextDataP7QObjectRK7QString@Qt_5_PRIVATE_API 5.0.2 1
 _ZN14QQmlExpressionC2ERK16QQmlScriptStringP11QQmlContextP7QObjectS6_@Qt_5 5.0.2
 _ZN14QQmlExpressionC2Ev@Qt_5 5.0.2
 _ZN14QQmlExpressionD0Ev@Qt_5 5.0.2
 _ZN14QQmlExpressionD1Ev@Qt_5 5.0.2
 _ZN14QQmlExpressionD2Ev@Qt_5 5.0.2
 _ZN14QQmlMetaObject10canConvertERKS_S1_@Qt_5_PRIVATE_API 5.0.2 1
 _ZN14QQmlMetaObject34resolveGadgetMethodOrPropertyIndexEN11QMetaObject4CallEPPKS0_Pi@Qt_5_PRIVATE_API 5.5.0 1
 _ZN14QQmlTypeLoader4Blob11fetchQmldirERK4QUrlPKN3QV412CompiledData6ImportEiP5QListI9QQmlErrorE@Qt_5_PRIVATE_API 5.3.0 1
 _ZN14QQmlTypeLoader4Blob12updateQmldirEP14QQmlQmldirDataPKN3QV412CompiledData6ImportEP5QListI9QQmlErrorE@Qt_5_PRIVATE_API 5.3.0 1
 _ZN14QQmlTypeLoader4Blob15dependencyErrorEP12QQmlDataBlob@Qt_5_PRIVATE_API 5.0.2 1
 _ZN14QQmlTypeLoader4Blob18dependencyCompleteEP12QQmlDataBlob@Qt_5_PRIVATE_API 5.0.2 1
 _ZN14QQmlTypeLoader4Blob19qmldirDataAvailableEP14QQmlQmldirDataP5QListI9QQmlErrorE@Qt_5_PRIVATE_API 5.0.2 1
 _ZN14QQmlTypeLoader4Blob9addImportEPKN3QV412CompiledData6ImportEP5QListI9QQmlErrorE@Qt_5_PRIVATE_API 5.3.0 1
 _ZN14QQmlTypeLoader4Blob9addPragmaERKN5QmlIR6PragmaEP5QListI9QQmlErrorE@Qt_5_PRIVATE_API 5.3.0 1
 _ZN14QQmlTypeLoader4BlobC1ERK4QUrlN12QQmlDataBlob4TypeEPS_@Qt_5_PRIVATE_API 5.0.2 1
 _ZN14QQmlTypeLoader4BlobC2ERK4QUrlN12QQmlDataBlob4TypeEPS_@Qt_5_PRIVATE_API 5.0.2 1
 _ZN14QQmlTypeLoader4BlobD0Ev@Qt_5_PRIVATE_API 5.0.2 1
 _ZN14QQmlTypeLoader4BlobD1Ev@Qt_5_PRIVATE_API 5.0.2 1
 _ZN14QQmlTypeLoader4BlobD2Ev@Qt_5_PRIVATE_API 5.0.2 1
 _ZN15QQmlApplication10setVersionERK7QString@Qt_5_PRIVATE_API 5.1.0 1
 _ZN15QQmlApplication11aboutToQuitEv@Qt_5_PRIVATE_API 5.1.0 1
 _ZN15QQmlApplication11nameChangedEv@Qt_5_PRIVATE_API 5.1.0 1
 _ZN15QQmlApplication11qt_metacallEN11QMetaObject4CallEiPPv@Qt_5_PRIVATE_API 5.1.0 1
 _ZN15QQmlApplication11qt_metacastEPKc@Qt_5_PRIVATE_API 5.1.0 1
 _ZN15QQmlApplication13domainChangedEv@Qt_5_PRIVATE_API 5.2.0~beta1 1
 _ZN15QQmlApplication14versionChangedEv@Qt_5_PRIVATE_API 5.1.0 1
 _ZN15QQmlApplication15setOrganizationERK7QString@Qt_5_PRIVATE_API 5.2.0~beta1 1
 _ZN15QQmlApplication16staticMetaObjectE@Qt_5_PRIVATE_API 5.1.0 1
 _ZN15QQmlApplication19organizationChangedEv@Qt_5_PRIVATE_API 5.2.0~beta1 1
 _ZN15QQmlApplication4argsEv@Qt_5_PRIVATE_API 5.1.0 1
 _ZN15QQmlApplication7setNameERK7QString@Qt_5_PRIVATE_API 5.1.0 1
 _ZN15QQmlApplication9setDomainERK7QString@Qt_5_PRIVATE_API 5.2.0~beta1 1
 _ZN15QQmlApplicationC1EP7QObject@Qt_5_PRIVATE_API 5.1.0 1
 _ZN15QQmlApplicationC1ER22QQmlApplicationPrivateP7QObject@Qt_5_PRIVATE_API 5.1.0 1
 _ZN15QQmlApplicationC2EP7QObject@Qt_5_PRIVATE_API 5.1.0 1
 _ZN15QQmlApplicationC2ER22QQmlApplicationPrivateP7QObject@Qt_5_PRIVATE_API 5.1.0 1
 _ZN15QQmlBoundSignal11addToObjectEP7QObject@Qt_5_PRIVATE_API 5.6.0~beta 1
 _ZN15QQmlBoundSignal14takeExpressionEP25QQmlBoundSignalExpression@Qt_5_PRIVATE_API 5.0.2 1
 _ZN15QQmlBoundSignal16removeFromObjectEv@Qt_5_PRIVATE_API 5.6.0~beta 1
 _ZN15QQmlBoundSignalC1EP7QObjectiS1_P10QQmlEngine@Qt_5_PRIVATE_API 5.0.2 1
 _ZN15QQmlBoundSignalC2EP7QObjectiS1_P10QQmlEngine@Qt_5_PRIVATE_API 5.0.2 1
 _ZN15QQmlBoundSignalD1Ev@Qt_5_PRIVATE_API 5.0.2 1
 _ZN15QQmlBoundSignalD2Ev@Qt_5_PRIVATE_API 5.0.2 1
 _ZN15QQmlContextData10invalidateEv@Qt_5_PRIVATE_API 5.0.2 1
 _ZN15QQmlContextData11resolvedUrlERK4QUrl@Qt_5_PRIVATE_API 5.0.2 1
 _ZN15QQmlContextData12clearContextEv@Qt_5_PRIVATE_API 5.0.2 1
 _ZN15QQmlContextData13asQQmlContextEv@Qt_5_PRIVATE_API 5.0.2 1
 _ZN15QQmlContextData13setIdPropertyEiP7QObject@Qt_5_PRIVATE_API 5.0.2 1
 _ZN15QQmlContextData15emitDestructionEv@Qt_5_PRIVATE_API 5.0.2 1
 _ZN15QQmlContextData17setIdPropertyDataERK5QHashIiiE@Qt_5_PRIVATE_API 5.5.0 1
 _ZN15QQmlContextData18refreshExpressionsEv@Qt_5_PRIVATE_API 5.0.2 1
 _ZN15QQmlContextData20asQQmlContextPrivateEv@Qt_5_PRIVATE_API 5.0.2 1
 _ZN15QQmlContextData27refreshExpressionsRecursiveEP24QQmlJavaScriptExpression@Qt_5_PRIVATE_API 5.6.0~beta 1
 _ZN15QQmlContextData27refreshExpressionsRecursiveEb@Qt_5_PRIVATE_API 5.0.2 1
 _ZN15QQmlContextData7destroyEv@Qt_5_PRIVATE_API 5.0.2 1
 _ZN15QQmlContextData9addObjectEP7QObject@Qt_5_PRIVATE_API 5.0.2 1
 _ZN15QQmlContextData9setParentEPS_b@Qt_5_PRIVATE_API 5.0.2 1
 _ZN15QQmlContextDataC1EP11QQmlContext@Qt_5_PRIVATE_API 5.0.2 1
 _ZN15QQmlContextDataC1Ev@Qt_5_PRIVATE_API 5.0.2 1
 _ZN15QQmlContextDataC2EP11QQmlContext@Qt_5_PRIVATE_API 5.0.2 1
 _ZN15QQmlContextDataC2Ev@Qt_5_PRIVATE_API 5.0.2 1
 _ZN15QQmlDebugStream19s_dataStreamVersionE@Qt_5_PRIVATE_API 5.6.0~beta 1
 _ZN15QQmlDebugStreamC1EP10QByteArray6QFlagsIN9QIODevice12OpenModeFlagEE@Qt_5_PRIVATE_API 5.0.2 1
 _ZN15QQmlDebugStreamC1EP9QIODevice@Qt_5_PRIVATE_API 5.0.2 1
 _ZN15QQmlDebugStreamC1ERK10QByteArray@Qt_5_PRIVATE_API 5.0.2 1
 _ZN15QQmlDebugStreamC1Ev@Qt_5_PRIVATE_API 5.0.2 1
 _ZN15QQmlDebugStreamC2EP10QByteArray6QFlagsIN9QIODevice12OpenModeFlagEE@Qt_5_PRIVATE_API 5.0.2 1
 _ZN15QQmlDebugStreamC2EP9QIODevice@Qt_5_PRIVATE_API 5.0.2 1
 _ZN15QQmlDebugStreamC2ERK10QByteArray@Qt_5_PRIVATE_API 5.0.2 1
 _ZN15QQmlDebugStreamC2Ev@Qt_5_PRIVATE_API 5.0.2 1
 _ZN15QQmlGuiProvider10styleHintsEv@Qt_5_PRIVATE_API 5.5.0 1
 _ZN15QQmlGuiProvider11applicationEP7QObject@Qt_5_PRIVATE_API 5.0.2 1
 _ZN15QQmlGuiProvider11inputMethodEv@Qt_5_PRIVATE_API 5.0.2 1
 _ZN15QQmlGuiProvider12fontFamiliesEv@Qt_5_PRIVATE_API 5.0.2 1
 _ZN15QQmlGuiProvider17openUrlExternallyER4QUrl@Qt_5_PRIVATE_API 5.0.2 1
 _ZN15QQmlGuiProviderD0Ev@Qt_5_PRIVATE_API 5.0.2 1
 _ZN15QQmlGuiProviderD1Ev@Qt_5_PRIVATE_API 5.0.2 1
 _ZN15QQmlGuiProviderD2Ev@Qt_5_PRIVATE_API 5.0.2 1
 _ZN15QQmlMemoryScopeC1EPKc@Qt_5_PRIVATE_API 5.0.2 1
 _ZN15QQmlMemoryScopeC1ERK4QUrl@Qt_5_PRIVATE_API 5.0.2 1
 _ZN15QQmlMemoryScopeC2EPKc@Qt_5_PRIVATE_API 5.0.2 1
 _ZN15QQmlMemoryScopeC2ERK4QUrl@Qt_5_PRIVATE_API 5.0.2 1
 _ZN15QQmlMemoryScopeD1Ev@Qt_5_PRIVATE_API 5.0.2 1
 _ZN15QQmlMemoryScopeD2Ev@Qt_5_PRIVATE_API 5.0.2 1
 _ZN15QQmlObjectModel11qt_metacallEN11QMetaObject4CallEiPPv@Qt_5_PRIVATE_API 5.1.0 1
 _ZN15QQmlObjectModel11qt_metacastEPKc@Qt_5_PRIVATE_API 5.1.0 1
 _ZN15QQmlObjectModel11stringValueEiRK7QString@Qt_5_PRIVATE_API 5.1.0 1
 _ZN15QQmlObjectModel15childrenChangedEv@Qt_5_PRIVATE_API 5.1.0 1
 _ZN15QQmlObjectModel16staticMetaObjectE@Qt_5_PRIVATE_API 5.1.0 1
 _ZN15QQmlObjectModel21qmlAttachedPropertiesEP7QObject@Qt_5_PRIVATE_API 5.1.0 1
 _ZN15QQmlObjectModel4moveEiii@Qt_5_PRIVATE_API 5.6.0~beta 1
 _ZN15QQmlObjectModel5clearEv@Qt_5_PRIVATE_API 5.6.0~beta 1
 _ZN15QQmlObjectModel6appendEP7QObject@Qt_5_PRIVATE_API 5.6.0~beta 1
 _ZN15QQmlObjectModel6insertEiP7QObject@Qt_5_PRIVATE_API 5.6.0~beta 1
 _ZN15QQmlObjectModel6objectEib@Qt_5_PRIVATE_API 5.1.0 1
 _ZN15QQmlObjectModel6removeEii@Qt_5_PRIVATE_API 5.6.0~beta 1
 _ZN15QQmlObjectModel7releaseEP7QObject@Qt_5_PRIVATE_API 5.1.0 1
 _ZN15QQmlObjectModel8childrenEv@Qt_5_PRIVATE_API 5.1.0 1
 _ZN15QQmlObjectModelC1EP7QObject@Qt_5_PRIVATE_API 5.1.0 1
 _ZN15QQmlObjectModelC2EP7QObject@Qt_5_PRIVATE_API 5.1.0 1
 _ZN15QQmlPropertyMap11qt_metacallEN11QMetaObject4CallEiPPv@Qt_5 5.0.2
 _ZN15QQmlPropertyMap11qt_metacastEPKc@Qt_5 5.0.2
 _ZN15QQmlPropertyMap11updateValueERK7QStringRK8QVariant@Qt_5 5.0.2
 _ZN15QQmlPropertyMap12valueChangedERK7QStringRK8QVariant@Qt_5 5.0.2
 _ZN15QQmlPropertyMap15allocatePrivateEv@Qt_5 5.0.2
 _ZN15QQmlPropertyMap16staticMetaObjectE@Qt_5 5.0.2
 _ZN15QQmlPropertyMap4initEPK11QMetaObject@Qt_5 5.0.2
 _ZN15QQmlPropertyMap5clearERK7QString@Qt_5 5.0.2
 _ZN15QQmlPropertyMap6insertERK7QStringRK8QVariant@Qt_5 5.0.2
 _ZN15QQmlPropertyMapC1EP7QObject@Qt_5 5.0.2
 _ZN15QQmlPropertyMapC2EP7QObject@Qt_5 5.0.2
 _ZN15QQmlPropertyMapD0Ev@Qt_5 5.0.2
 _ZN15QQmlPropertyMapD1Ev@Qt_5 5.0.2
 _ZN15QQmlPropertyMapD2Ev@Qt_5 5.0.2
 _ZN15QQmlPropertyMapixERK7QString@Qt_5 5.0.2
 _ZN15QV4DebugService11qt_metacallEN11QMetaObject4CallEiPPv@Qt_5_PRIVATE_API 5.6.0~beta 1
 _ZN15QV4DebugService11qt_metacastEPKc@Qt_5_PRIVATE_API 5.6.0~beta 1
 _ZN15QV4DebugService16staticMetaObjectE@Qt_5_PRIVATE_API 5.6.0~beta 1
 _ZN15QV4DebugService5s_keyE@Qt_5_PRIVATE_API 5.6.0~beta 1
 _ZN16QJSEnginePrivate11createCacheEPK11QMetaObject@Qt_5_PRIVATE_API 5.5.0 1
 _ZN16QJSEnginePrivate3getEPN3QV415ExecutionEngineE@Qt_5_PRIVATE_API 5.5.0 1
 _ZN16QJSEnginePrivateD0Ev@Qt_5_PRIVATE_API 5.5.0 1
 _ZN16QJSEnginePrivateD1Ev@Qt_5_PRIVATE_API 5.5.0 1
 _ZN16QJSEnginePrivateD2Ev@Qt_5_PRIVATE_API 5.5.0 1
 _ZN16QJSValueIterator4nextEv@Qt_5 5.0.2
 _ZN16QJSValueIteratorC1ERK8QJSValue@Qt_5 5.0.2
 _ZN16QJSValueIteratorC2ERK8QJSValue@Qt_5 5.0.2
 _ZN16QJSValueIteratorD1Ev@Qt_5 5.0.2
 _ZN16QJSValueIteratorD2Ev@Qt_5 5.0.2
 _ZN16QJSValueIteratoraSER8QJSValue@Qt_5 5.0.2
 _ZN16QQmlCustomParser11clearErrorsEv@Qt_5_PRIVATE_API 5.0.2 1
 _ZN16QQmlCustomParser5errorERKN3QV412CompiledData8LocationERK7QString@Qt_5_PRIVATE_API 5.3.0 1
 _ZN16QQmlDebugService11engineAddedEP10QQmlEngine@Qt_5_PRIVATE_API 5.3.0 1
 _ZN16QQmlDebugService11idForObjectEP7QObject@Qt_5_PRIVATE_API 5.0.2 1
 _ZN16QQmlDebugService11qt_metacallEN11QMetaObject4CallEiPPv@Qt_5_PRIVATE_API 5.0.2 1
 _ZN16QQmlDebugService11qt_metacastEPKc@Qt_5_PRIVATE_API 5.0.2 1
 _ZN16QQmlDebugService12stateChangedENS_5StateE@Qt_5_PRIVATE_API 5.0.2 1
 _ZN16QQmlDebugService13engineRemovedEP10QQmlEngine@Qt_5_PRIVATE_API 5.3.0 1
 _ZN16QQmlDebugService13objectsForIdsEv@Qt_5_PRIVATE_API 5.6.0~beta 1
 _ZN16QQmlDebugService15messageReceivedERK10QByteArray@Qt_5_PRIVATE_API 5.0.2 1
 _ZN16QQmlDebugService15messageToClientERK7QStringRK10QByteArray@Qt_5_PRIVATE_API 5.6.0~beta 1
 _ZN16QQmlDebugService16attachedToEngineEP10QQmlEngine@Qt_5_PRIVATE_API 5.3.0 1
 _ZN16QQmlDebugService16messagesToClientERK7QStringRK5QListI10QByteArrayE@Qt_5_PRIVATE_API 5.6.0~beta 1
 _ZN16QQmlDebugService16staticMetaObjectE@Qt_5_PRIVATE_API 5.0.2 1
 _ZN16QQmlDebugService18detachedFromEngineEP10QQmlEngine@Qt_5_PRIVATE_API 5.3.0 1
 _ZN16QQmlDebugService20engineAboutToBeAddedEP10QQmlEngine@Qt_5_PRIVATE_API 5.3.0 1
 _ZN16QQmlDebugService21stateAboutToBeChangedENS_5StateE@Qt_5_PRIVATE_API 5.0.2 1
 _ZN16QQmlDebugService22engineAboutToBeRemovedEP10QQmlEngine@Qt_5_PRIVATE_API 5.3.0 1
 _ZN16QQmlDebugService8setStateENS_5StateE@Qt_5_PRIVATE_API 5.6.0~beta 1
 _ZN16QQmlDebugServiceC1ERK7QStringfP7QObject@Qt_5_PRIVATE_API 5.0.2 1
 _ZN16QQmlDebugServiceC2ERK7QStringfP7QObject@Qt_5_PRIVATE_API 5.0.2 1
 _ZN16QQmlDebugServiceD0Ev@Qt_5_PRIVATE_API 5.0.2 1
 _ZN16QQmlDebugServiceD1Ev@Qt_5_PRIVATE_API 5.0.2 1
 _ZN16QQmlDebugServiceD2Ev@Qt_5_PRIVATE_API 5.0.2 1
 _ZN16QQmlFileSelector11qt_metacallEN11QMetaObject4CallEiPPv@Qt_5 5.2.0~beta1
 _ZN16QQmlFileSelector11qt_metacastEPKc@Qt_5 5.2.0~beta1
 _ZN16QQmlFileSelector11setSelectorEP13QFileSelector@Qt_5 5.2.0~beta1
 _ZN16QQmlFileSelector16staticMetaObjectE@Qt_5 5.2.0~beta1
 _ZN16QQmlFileSelector17setExtraSelectorsER11QStringList@Qt_5 5.2.0~rc1
 _ZN16QQmlFileSelector17setExtraSelectorsERK11QStringList@Qt_5 5.4.0
 _ZN16QQmlFileSelector3getEP10QQmlEngine@Qt_5 5.2.0~rc1
 _ZN16QQmlFileSelectorC1EP10QQmlEngineP7QObject@Qt_5 5.2.0~rc1
 _ZN16QQmlFileSelectorC2EP10QQmlEngineP7QObject@Qt_5 5.2.0~rc1
 _ZN16QQmlFileSelectorD0Ev@Qt_5 5.2.0~beta1
 _ZN16QQmlFileSelectorD1Ev@Qt_5 5.2.0~beta1
 _ZN16QQmlFileSelectorD2Ev@Qt_5 5.2.0~beta1
 _ZN16QQmlModelsModule12defineModuleEv@Qt_5_PRIVATE_API 5.1.0 1
 _ZN16QQmlParserStatusC1Ev@Qt_5 5.0.2
 _ZN16QQmlParserStatusC2Ev@Qt_5 5.0.2
 _ZN16QQmlParserStatusD0Ev@Qt_5 5.0.2
 _ZN16QQmlParserStatusD1Ev@Qt_5 5.0.2
 _ZN16QQmlParserStatusD2Ev@Qt_5 5.0.2
 _ZN16QQmlScriptStringC1ERK7QStringP11QQmlContextP7QObject@Qt_5 5.0.2
 _ZN16QQmlScriptStringC1ERKS_@Qt_5 5.0.2
 _ZN16QQmlScriptStringC1Ev@Qt_5 5.0.2
 _ZN16QQmlScriptStringC2ERK7QStringP11QQmlContextP7QObject@Qt_5 5.0.2
 _ZN16QQmlScriptStringC2ERKS_@Qt_5 5.0.2
 _ZN16QQmlScriptStringC2Ev@Qt_5 5.0.2
 _ZN16QQmlScriptStringD1Ev@Qt_5 5.0.2
 _ZN16QQmlScriptStringD2Ev@Qt_5 5.0.2
 _ZN16QQmlScriptStringaSERKS_@Qt_5 5.0.2
 _ZN17QQmlColorProvider14rgbaFromStringERK7QStringPb@Qt_5_PRIVATE_API 5.0.2 1
 _ZN17QQmlColorProvider15colorFromStringERK7QStringPb@Qt_5_PRIVATE_API 5.0.2 1
 _ZN17QQmlColorProvider4tintERK8QVariantS2_@Qt_5_PRIVATE_API 5.0.2 1
 _ZN17QQmlColorProvider6darkerERK8QVariantd@Qt_5_PRIVATE_API 5.2.0 1
 _ZN17QQmlColorProvider7lighterERK8QVariantd@Qt_5_PRIVATE_API 5.2.0 1
 _ZN17QQmlColorProvider8fromHslFEdddd@Qt_5_PRIVATE_API 5.0.2 1
 _ZN17QQmlColorProvider8fromHsvFEdddd@Qt_5_PRIVATE_API 5.5.0 1
 _ZN17QQmlColorProvider8fromRgbFEdddd@Qt_5_PRIVATE_API 5.0.2 1
 _ZN17QQmlColorProviderD0Ev@Qt_5_PRIVATE_API 5.0.2 1
 _ZN17QQmlColorProviderD1Ev@Qt_5_PRIVATE_API 5.0.2 1
 _ZN17QQmlColorProviderD2Ev@Qt_5_PRIVATE_API 5.0.2 1
 _ZN17QQmlDelegateModel10classBeginEv@Qt_5_PRIVATE_API 5.1.0 1
 _ZN17QQmlDelegateModel11qt_metacallEN11QMetaObject4CallEiPPv@Qt_5_PRIVATE_API 5.1.0 1
 _ZN17QQmlDelegateModel11qt_metacastEPKc@Qt_5_PRIVATE_API 5.1.0 1
 _ZN17QQmlDelegateModel11setDelegateEP13QQmlComponent@Qt_5_PRIVATE_API 5.1.0 1
 _ZN17QQmlDelegateModel11stringValueEiRK7QString@Qt_5_PRIVATE_API 5.1.0 1
 _ZN17QQmlDelegateModel12_q_rowsMovedERK11QModelIndexiiS2_i@Qt_5_PRIVATE_API 5.1.0 1
 _ZN17QQmlDelegateModel12setRootIndexERK8QVariant@Qt_5_PRIVATE_API 5.1.0 1
 _ZN17QQmlDelegateModel13_q_itemsMovedEiii@Qt_5_PRIVATE_API 5.1.0 1
 _ZN17QQmlDelegateModel13_q_modelResetEv@Qt_5_PRIVATE_API 5.1.0 1
 _ZN17QQmlDelegateModel14_q_dataChangedERK11QModelIndexS2_RK7QVectorIiE@Qt_5_PRIVATE_API 5.1.0 1
 _ZN17QQmlDelegateModel14_q_rowsRemovedERK11QModelIndexii@Qt_5_PRIVATE_API 5.1.0 1
 _ZN17QQmlDelegateModel14persistedItemsEv@Qt_5_PRIVATE_API 5.1.0 1
 _ZN17QQmlDelegateModel14setFilterGroupERK7QString@Qt_5_PRIVATE_API 5.1.0 1
 _ZN17QQmlDelegateModel15_q_itemsChangedEiiRK7QVectorIiE@Qt_5_PRIVATE_API 5.1.0 1
 _ZN17QQmlDelegateModel15_q_itemsRemovedEii@Qt_5_PRIVATE_API 5.1.0 1
 _ZN17QQmlDelegateModel15_q_rowsInsertedERK11QModelIndexii@Qt_5_PRIVATE_API 5.1.0 1
 _ZN17QQmlDelegateModel15setWatchedRolesERK5QListI10QByteArrayE@Qt_5_PRIVATE_API 5.6.0~beta 1
 _ZN17QQmlDelegateModel16_q_itemsInsertedEii@Qt_5_PRIVATE_API 5.1.0 1
 _ZN17QQmlDelegateModel16_q_layoutChangedERK5QListI21QPersistentModelIndexEN18QAbstractItemModel16LayoutChangeHintE@Qt_5_PRIVATE_API 5.3.1 1
 _ZN17QQmlDelegateModel16resetFilterGroupEv@Qt_5_PRIVATE_API 5.1.0 1
 _ZN17QQmlDelegateModel16rootIndexChangedEv@Qt_5_PRIVATE_API 5.1.0 1
 _ZN17QQmlDelegateModel16staticMetaObjectE@Qt_5_PRIVATE_API 5.1.0 1
 _ZN17QQmlDelegateModel17componentCompleteEv@Qt_5_PRIVATE_API 5.1.0 1
 _ZN17QQmlDelegateModel18filterGroupChangedEv@Qt_5_PRIVATE_API 5.1.0 1
 _ZN17QQmlDelegateModel20defaultGroupsChangedEv@Qt_5_PRIVATE_API 5.1.0 1
 _ZN17QQmlDelegateModel21qmlAttachedPropertiesEP7QObject@Qt_5_PRIVATE_API 5.1.0 1
 _ZN17QQmlDelegateModel23_q_rowsAboutToBeRemovedERK11QModelIndexii@Qt_5_PRIVATE_API 5.1.0 1
 _ZN17QQmlDelegateModel25_q_layoutAboutToBeChangedERK5QListI21QPersistentModelIndexEN18QAbstractItemModel16LayoutChangeHintE@Qt_5_PRIVATE_API 5.3.1 1
 _ZN17QQmlDelegateModel5eventEP6QEvent@Qt_5_PRIVATE_API 5.1.0 1
 _ZN17QQmlDelegateModel5itemsEv@Qt_5_PRIVATE_API 5.1.0 1
 _ZN17QQmlDelegateModel5partsEv@Qt_5_PRIVATE_API 5.1.0 1
 _ZN17QQmlDelegateModel6cancelEi@Qt_5_PRIVATE_API 5.1.0 1
 _ZN17QQmlDelegateModel6groupsEv@Qt_5_PRIVATE_API 5.1.0 1
 _ZN17QQmlDelegateModel6objectEib@Qt_5_PRIVATE_API 5.1.0 1
 _ZN17QQmlDelegateModel7releaseEP7QObject@Qt_5_PRIVATE_API 5.1.0 1
 _ZN17QQmlDelegateModel8setModelERK8QVariant@Qt_5_PRIVATE_API 5.1.0 1
 _ZN17QQmlDelegateModelC1EP11QQmlContextP7QObject@Qt_5_PRIVATE_API 5.1.0 1
 _ZN17QQmlDelegateModelC1Ev@Qt_5_PRIVATE_API 5.1.0 1
 _ZN17QQmlDelegateModelC2EP11QQmlContextP7QObject@Qt_5_PRIVATE_API 5.1.0 1
 _ZN17QQmlDelegateModelC2Ev@Qt_5_PRIVATE_API 5.1.0 1
 _ZN17QQmlDelegateModelD0Ev@Qt_5_PRIVATE_API 5.1.0 1
 _ZN17QQmlDelegateModelD1Ev@Qt_5_PRIVATE_API 5.1.0 1
 _ZN17QQmlDelegateModelD2Ev@Qt_5_PRIVATE_API 5.1.0 1
 _ZN17QQmlEnginePrivate11createCacheEP8QQmlTypei@Qt_5_PRIVATE_API 5.6.0~beta 1
 _ZN17QQmlEnginePrivate12designerModeEv@Qt_5_PRIVATE_API 5.0.2 1
 _ZN17QQmlEnginePrivate14enableProfilerEv@Qt_5_PRIVATE_API 5.3.0 1
 _ZN17QQmlEnginePrivate14s_designerModeE@Qt_5_PRIVATE_API 5.0.2 1
 _ZN17QQmlEnginePrivate17registerBaseTypesEPKcii@Qt_5_PRIVATE_API 5.0.2 1
 _ZN17QQmlEnginePrivate20activateDesignerModeEv@Qt_5_PRIVATE_API 5.0.2 1
 _ZN17QQmlEnginePrivate20defineQtQuick2ModuleEv@Qt_5_PRIVATE_API 5.0.2 1
 _ZN17QQmlEnginePrivate20propertyCacheForTypeEi@Qt_5_PRIVATE_API 5.0.2 1
 _ZN17QQmlEnginePrivate21getWorkerScriptEngineEv@Qt_5_PRIVATE_API 5.0.2 1
 _ZN17QQmlEnginePrivate21qml_debugging_enabledE@Qt_5_PRIVATE_API 5.0.2 1
 _ZN17QQmlEnginePrivate21registerQtQuick2TypesEPKcii@Qt_5_PRIVATE_API 5.0.2 1
 _ZN17QQmlEnginePrivate22doDeleteInEngineThreadEv@Qt_5_PRIVATE_API 5.0.2 1
 _ZN17QQmlEnginePrivate23rawPropertyCacheForTypeEi@Qt_5_PRIVATE_API 5.0.2 1
 _ZN17QQmlEnginePrivate24baseModulesUninitializedE@Qt_5_PRIVATE_API 5.1.0 1
 _ZN17QQmlEnginePrivate24referenceScarceResourcesEv@Qt_5_PRIVATE_API 5.0.2 1
 _ZN17QQmlEnginePrivate24registerFinalizeCallbackEP7QObjecti@Qt_5_PRIVATE_API 5.0.2 1
 _ZN17QQmlEnginePrivate26dereferenceScarceResourcesEv@Qt_5_PRIVATE_API 5.0.2 1
 _ZN17QQmlEnginePrivate29registerInternalCompositeTypeEP16QQmlCompiledData@Qt_5_PRIVATE_API 5.1.0 1
 _ZN17QQmlEnginePrivate31unregisterInternalCompositeTypeEP16QQmlCompiledData@Qt_5_PRIVATE_API 5.1.0 1
 _ZN17QQmlEnginePrivate4initEv@Qt_5_PRIVATE_API 5.0.2 1
 _ZN17QQmlEnginePrivate7warningEP10QQmlEngineP16QQmlDelayedError@Qt_5_PRIVATE_API 5.0.2 1
 _ZN17QQmlEnginePrivate7warningEP10QQmlEngineRK5QListI9QQmlErrorE@Qt_5_PRIVATE_API 5.0.2 1
 _ZN17QQmlEnginePrivate7warningEP10QQmlEngineRK9QQmlError@Qt_5_PRIVATE_API 5.0.2 1
 _ZN17QQmlEnginePrivate7warningEP16QQmlDelayedError@Qt_5_PRIVATE_API 5.0.2 1
 _ZN17QQmlEnginePrivate7warningEPS_RK5QListI9QQmlErrorE@Qt_5_PRIVATE_API 5.0.2 1
 _ZN17QQmlEnginePrivate7warningEPS_RK9QQmlError@Qt_5_PRIVATE_API 5.0.2 1
 _ZN17QQmlEnginePrivate7warningERK5QListI9QQmlErrorE@Qt_5_PRIVATE_API 5.0.2 1
 _ZN17QQmlEnginePrivate7warningERK9QQmlError@Qt_5_PRIVATE_API 5.0.2 1
 _ZN17QQmlEnginePrivate8incubateER13QQmlIncubatorP15QQmlContextData@Qt_5_PRIVATE_API 5.0.2 1
 _ZN17QQmlEnginePrivate8sendQuitEv@Qt_5_PRIVATE_API 5.0.2 1
 _ZN17QQmlEnginePrivate9isQObjectEi@Qt_5_PRIVATE_API 5.0.2 1
 _ZN17QQmlEnginePrivateC1EP10QQmlEngine@Qt_5_PRIVATE_API 5.0.2 1
 _ZN17QQmlEnginePrivateC2EP10QQmlEngine@Qt_5_PRIVATE_API 5.0.2 1
 _ZN17QQmlEnginePrivateD0Ev@Qt_5_PRIVATE_API 5.0.2 1
 _ZN17QQmlEnginePrivateD1Ev@Qt_5_PRIVATE_API 5.0.2 1
 _ZN17QQmlEnginePrivateD2Ev@Qt_5_PRIVATE_API 5.0.2 1
 _ZN17QQmlInstanceModel11createdItemEiP7QObject@Qt_5_PRIVATE_API 5.1.0 1
 _ZN17QQmlInstanceModel11qt_metacallEN11QMetaObject4CallEiPPv@Qt_5_PRIVATE_API 5.1.0 1
 _ZN17QQmlInstanceModel11qt_metacastEPKc@Qt_5_PRIVATE_API 5.1.0 1
 _ZN17QQmlInstanceModel12countChangedEv@Qt_5_PRIVATE_API 5.1.0 1
 _ZN17QQmlInstanceModel12modelUpdatedERK13QQmlChangeSetb@Qt_5_PRIVATE_API 5.1.0 1
 _ZN17QQmlInstanceModel14destroyingItemEP7QObject@Qt_5_PRIVATE_API 5.1.0 1
 _ZN17QQmlInstanceModel16staticMetaObjectE@Qt_5_PRIVATE_API 5.1.0 1
 _ZN17QQmlInstanceModel8initItemEiP7QObject@Qt_5_PRIVATE_API 5.1.0 1
 _ZN17QQmlListReferenceC1EP7QObjectPKcP10QQmlEngine@Qt_5 5.0.2
 _ZN17QQmlListReferenceC1ERKS_@Qt_5 5.0.2
 _ZN17QQmlListReferenceC1Ev@Qt_5 5.0.2
 _ZN17QQmlListReferenceC2EP7QObjectPKcP10QQmlEngine@Qt_5 5.0.2
 _ZN17QQmlListReferenceC2ERKS_@Qt_5 5.0.2
 _ZN17QQmlListReferenceC2Ev@Qt_5 5.0.2
 _ZN17QQmlListReferenceD1Ev@Qt_5 5.0.2
 _ZN17QQmlListReferenceD2Ev@Qt_5 5.0.2
 _ZN17QQmlListReferenceaSERKS_@Qt_5 5.0.2
 _ZN17QQmlPropertyCache10invalidateEPK11QMetaObject@Qt_5_PRIVATE_API 5.5.0 1
 _ZN17QQmlPropertyCache11updateRecurEPK11QMetaObject@Qt_5_PRIVATE_API 5.5.0 1
 _ZN17QQmlPropertyCache12appendMethodERK7QStringjiRK5QListI10QByteArrayE@Qt_5_PRIVATE_API 5.0.2 1
 _ZN17QQmlPropertyCache12appendSignalERK7QStringjiPKiRK5QListI10QByteArrayE@Qt_5_PRIVATE_API 5.0.2 1
 _ZN17QQmlPropertyCache13copyAndAppendEPK11QMetaObjectN19QQmlPropertyRawData4FlagES4_S4_@Qt_5_PRIVATE_API 5.5.0 1
 _ZN17QQmlPropertyCache13copyAndAppendEPK11QMetaObjectiN19QQmlPropertyRawData4FlagES4_S4_@Qt_5_PRIVATE_API 5.5.0 1
 _ZN17QQmlPropertyCache13originalCloneEP7QObjecti@Qt_5_PRIVATE_API 5.0.2 1
 _ZN17QQmlPropertyCache13originalCloneEi@Qt_5_PRIVATE_API 5.0.2 1
 _ZN17QQmlPropertyCache14appendPropertyERK7QStringjiii@Qt_5_PRIVATE_API 5.0.2 1
 _ZN17QQmlPropertyCache14copyAndReserveEiii@Qt_5_PRIVATE_API 5.5.0 1
 _ZN17QQmlPropertyCache16createMetaObjectEv@Qt_5_PRIVATE_API 5.0.2 1
 _ZN17QQmlPropertyCache19isDynamicMetaObjectEPK11QMetaObject@Qt_5_PRIVATE_API 5.0.2 1
 _ZN17QQmlPropertyCache19toMetaObjectBuilderER18QMetaObjectBuilder@Qt_5_PRIVATE_API 5.0.2 1
 _ZN17QQmlPropertyCache21createArgumentsObjectEiRK5QListI10QByteArrayE@Qt_5_PRIVATE_API 5.0.2 1
 _ZN17QQmlPropertyCache26signalParameterStringForJSEPN3QV415ExecutionEngineERK5QListI10QByteArrayEP7QString@Qt_5_PRIVATE_API 5.5.0 1
 _ZN17QQmlPropertyCache4copyEv@Qt_5_PRIVATE_API 5.0.2 1
 _ZN17QQmlPropertyCache5clearEv@Qt_5_PRIVATE_API 5.0.2 1
 _ZN17QQmlPropertyCache6appendEPK11QMetaObjectiN19QQmlPropertyRawData4FlagES4_S4_@Qt_5_PRIVATE_API 5.5.0 1
 _ZN17QQmlPropertyCache6updateEPK11QMetaObject@Qt_5_PRIVATE_API 5.5.0 1
 _ZN17QQmlPropertyCache7destroyEv@Qt_5_PRIVATE_API 5.0.2 1
 _ZN17QQmlPropertyCache8propertyEP9QJSEngineP7QObjectPKN3QV46StringEP15QQmlContextDataR16QQmlPropertyData@Qt_5_PRIVATE_API 5.5.0 1
 _ZN17QQmlPropertyCache8propertyEP9QJSEngineP7QObjectRK7QStringP15QQmlContextDataR16QQmlPropertyData@Qt_5_PRIVATE_API 5.5.0 1
 _ZN17QQmlPropertyCache9setParentEPS_@Qt_5_PRIVATE_API 5.0.2 1
 _ZN17QQmlPropertyCacheC1EPN3QV415ExecutionEngineE@Qt_5_PRIVATE_API 5.6.0~beta 1
 _ZN17QQmlPropertyCacheC1EPN3QV415ExecutionEngineEPK11QMetaObject@Qt_5_PRIVATE_API 5.6.0~beta 1
 _ZN17QQmlPropertyCacheC2EPN3QV415ExecutionEngineE@Qt_5_PRIVATE_API 5.6.0~beta 1
 _ZN17QQmlPropertyCacheC2EPN3QV415ExecutionEngineEPK11QMetaObject@Qt_5_PRIVATE_API 5.6.0~beta 1
 _ZN17QQmlPropertyCacheD0Ev@Qt_5_PRIVATE_API 5.0.2 1
 _ZN17QQmlPropertyCacheD1Ev@Qt_5_PRIVATE_API 5.0.2 1
 _ZN17QQmlPropertyCacheD2Ev@Qt_5_PRIVATE_API 5.0.2 1
 _ZN17QQmlVMEMetaObject10list_clearEP16QQmlListPropertyI7QObjectE@Qt_5_PRIVATE_API 5.0.2 1
 _ZN17QQmlVMEMetaObject10list_countEP16QQmlListPropertyI7QObjectE@Qt_5_PRIVATE_API 5.0.2 1
 _ZN17QQmlVMEMetaObject11listChangedEi@Qt_5_PRIVATE_API 5.0.2 1
 _ZN17QQmlVMEMetaObject11list_appendEP16QQmlListPropertyI7QObjectEPS1_@Qt_5_PRIVATE_API 5.0.2 1
 _ZN17QQmlVMEMetaObject11vmePropertyEi@Qt_5_PRIVATE_API 5.0.2 1
 _ZN17QQmlVMEMetaObject12connectAliasEi@Qt_5_PRIVATE_API 5.0.2 1
 _ZN17QQmlVMEMetaObject12getForMethodEP7QObjecti@Qt_5_PRIVATE_API 5.0.2 1
 _ZN17QQmlVMEMetaObject12getForSignalEP7QObjecti@Qt_5_PRIVATE_API 5.0.2 1
 _ZN17QQmlVMEMetaObject12setVmeMethodEiRKN3QV45ValueE@Qt_5_PRIVATE_API 5.5.0 1
 _ZN17QQmlVMEMetaObject13writePropertyEiP7QObject@Qt_5_PRIVATE_API 5.6.0~beta 1
 _ZN17QQmlVMEMetaObject13writePropertyEiRK4QUrl@Qt_5_PRIVATE_API 5.6.0~beta 1
 _ZN17QQmlVMEMetaObject13writePropertyEiRK5QDate@Qt_5_PRIVATE_API 5.6.0~beta 1
 _ZN17QQmlVMEMetaObject13writePropertyEiRK6QRectF@Qt_5_PRIVATE_API 5.6.0~beta 1
 _ZN17QQmlVMEMetaObject13writePropertyEiRK6QSizeF@Qt_5_PRIVATE_API 5.6.0~beta 1
 _ZN17QQmlVMEMetaObject13writePropertyEiRK7QPointF@Qt_5_PRIVATE_API 5.6.0~beta 1
 _ZN17QQmlVMEMetaObject13writePropertyEiRK7QString@Qt_5_PRIVATE_API 5.6.0~beta 1
 _ZN17QQmlVMEMetaObject13writePropertyEiRK8QVariant@Qt_5_PRIVATE_API 5.0.2 1
 _ZN17QQmlVMEMetaObject13writePropertyEiRK9QDateTime@Qt_5_PRIVATE_API 5.6.0~beta 1
 _ZN17QQmlVMEMetaObject13writePropertyEib@Qt_5_PRIVATE_API 5.6.0~beta 1
 _ZN17QQmlVMEMetaObject13writePropertyEid@Qt_5_PRIVATE_API 5.6.0~beta 1
 _ZN17QQmlVMEMetaObject13writePropertyEii@Qt_5_PRIVATE_API 5.6.0~beta 1
 _ZN17QQmlVMEMetaObject14getForPropertyEP7QObjecti@Qt_5_PRIVATE_API 5.0.2 1
 _ZN17QQmlVMEMetaObject14setVMEPropertyEiRKN3QV45ValueE@Qt_5_PRIVATE_API 5.5.0 1
 _ZN17QQmlVMEMetaObject15readVarPropertyEi@Qt_5_PRIVATE_API 5.0.2 1
 _ZN17QQmlVMEMetaObject16writeVarPropertyEiRKN3QV45ValueE@Qt_5_PRIVATE_API 5.5.0 1
 _ZN17QQmlVMEMetaObject17readPropertyAsIntEi@Qt_5_PRIVATE_API 5.6.0~beta 1
 _ZN17QQmlVMEMetaObject17readPropertyAsUrlEi@Qt_5_PRIVATE_API 5.6.0~beta 1
 _ZN17QQmlVMEMetaObject18connectAliasSignalEib@Qt_5_PRIVATE_API 5.0.2 1
 _ZN17QQmlVMEMetaObject18readPropertyAsBoolEi@Qt_5_PRIVATE_API 5.6.0~beta 1
 _ZN17QQmlVMEMetaObject18readPropertyAsDateEi@Qt_5_PRIVATE_API 5.6.0~beta 1
 _ZN17QQmlVMEMetaObject18readPropertyAsListEi@Qt_5_PRIVATE_API 5.6.0~beta 1
 _ZN17QQmlVMEMetaObject19readPropertyAsRectFEi@Qt_5_PRIVATE_API 5.6.0~beta 1
 _ZN17QQmlVMEMetaObject19readPropertyAsSizeFEi@Qt_5_PRIVATE_API 5.6.0~beta 1
 _ZN17QQmlVMEMetaObject19vmeMethodLineNumberEi@Qt_5_PRIVATE_API 5.0.2 1
 _ZN17QQmlVMEMetaObject20ensureQObjectWrapperEv@Qt_5_PRIVATE_API 5.2.0~beta1 1
 _ZN17QQmlVMEMetaObject20readPropertyAsDoubleEi@Qt_5_PRIVATE_API 5.6.0~beta 1
 _ZN17QQmlVMEMetaObject20readPropertyAsPointFEi@Qt_5_PRIVATE_API 5.6.0~beta 1
 _ZN17QQmlVMEMetaObject20readPropertyAsStringEi@Qt_5_PRIVATE_API 5.6.0~beta 1
 _ZN17QQmlVMEMetaObject21readPropertyAsQObjectEi@Qt_5_PRIVATE_API 5.6.0~beta 1
 _ZN17QQmlVMEMetaObject21readPropertyAsVariantEi@Qt_5_PRIVATE_API 5.0.2 1
 _ZN17QQmlVMEMetaObject22propertiesAsMemberDataEv@Qt_5_PRIVATE_API 5.6.0~beta 1
 _ZN17QQmlVMEMetaObject22readPropertyAsDateTimeEi@Qt_5_PRIVATE_API 5.6.0~beta 1
 _ZN17QQmlVMEMetaObject4markEPN3QV415ExecutionEngineE@Qt_5_PRIVATE_API 5.2.0~rc1 1
 _ZN17QQmlVMEMetaObject6methodEi@Qt_5_PRIVATE_API 5.0.2 1
 _ZN17QQmlVMEMetaObject7list_atEP16QQmlListPropertyI7QObjectEi@Qt_5_PRIVATE_API 5.0.2 1
 _ZN17QQmlVMEMetaObject8activateEP7QObjectiPPv@Qt_5_PRIVATE_API 5.0.2 1
 _ZN17QQmlVMEMetaObject8metaCallEP7QObjectN11QMetaObject4CallEiPPv@Qt_5_PRIVATE_API 5.6.0~beta 1
 _ZN17QQmlVMEMetaObject9vmeMethodEi@Qt_5_PRIVATE_API 5.0.2 1
 _ZN17QQmlVMEMetaObjectC1EP7QObjectP17QQmlPropertyCachePK15QQmlVMEMetaData@Qt_5_PRIVATE_API 5.6.0~beta 1
 _ZN17QQmlVMEMetaObjectC2EP7QObjectP17QQmlPropertyCachePK15QQmlVMEMetaData@Qt_5_PRIVATE_API 5.6.0~beta 1
 _ZN17QQmlVMEMetaObjectD0Ev@Qt_5_PRIVATE_API 5.0.2 1
 _ZN17QQmlVMEMetaObjectD1Ev@Qt_5_PRIVATE_API 5.0.2 1
 _ZN17QQmlVMEMetaObjectD2Ev@Qt_5_PRIVATE_API 5.0.2 1
 _ZN18QAnimationGroupJob15appendAnimationEP21QAbstractAnimationJob@Qt_5_PRIVATE_API 5.0.2 1
 _ZN18QAnimationGroupJob15removeAnimationEP21QAbstractAnimationJob@Qt_5_PRIVATE_API 5.0.2 1
 _ZN18QAnimationGroupJob16animationRemovedEP21QAbstractAnimationJobS1_S1_@Qt_5_PRIVATE_API 5.0.2 1
 _ZN18QAnimationGroupJob16prependAnimationEP21QAbstractAnimationJob@Qt_5_PRIVATE_API 5.0.2 1
 _ZN18QAnimationGroupJob28topLevelAnimationLoopChangedEv@Qt_5_PRIVATE_API 5.0.2 1
 _ZN18QAnimationGroupJob29uncontrolledAnimationFinishedEP21QAbstractAnimationJob@Qt_5_PRIVATE_API 5.0.2 1
 _ZN18QAnimationGroupJob34setUncontrolledAnimationFinishTimeEP21QAbstractAnimationJobi@Qt_5_PRIVATE_API 5.0.2 1
 _ZN18QAnimationGroupJob36resetUncontrolledAnimationFinishTimeEP21QAbstractAnimationJob@Qt_5_PRIVATE_API 5.0.2 1
 _ZN18QAnimationGroupJob37resetUncontrolledAnimationsFinishTimeEv@Qt_5_PRIVATE_API 5.0.2 1
 _ZN18QAnimationGroupJob5clearEv@Qt_5_PRIVATE_API 5.0.2 1
 _ZN18QAnimationGroupJobC1Ev@Qt_5_PRIVATE_API 5.0.2 1
 _ZN18QAnimationGroupJobC2Ev@Qt_5_PRIVATE_API 5.0.2 1
 _ZN18QAnimationGroupJobD0Ev@Qt_5_PRIVATE_API 5.0.2 1
 _ZN18QAnimationGroupJobD1Ev@Qt_5_PRIVATE_API 5.0.2 1
 _ZN18QAnimationGroupJobD2Ev@Qt_5_PRIVATE_API 5.0.2 1
 _ZN18QPauseAnimationJob11setDurationEi@Qt_5_PRIVATE_API 5.0.2 1
 _ZN18QPauseAnimationJob17updateCurrentTimeEi@Qt_5_PRIVATE_API 5.0.2 1
 _ZN18QPauseAnimationJobC1Ei@Qt_5_PRIVATE_API 5.0.2 1
 _ZN18QPauseAnimationJobC2Ei@Qt_5_PRIVATE_API 5.0.2 1
 _ZN18QPauseAnimationJobD0Ev@Qt_5_PRIVATE_API 5.0.2 1
 _ZN18QPauseAnimationJobD1Ev@Qt_5_PRIVATE_API 5.0.2 1
 _ZN18QPauseAnimationJobD2Ev@Qt_5_PRIVATE_API 5.0.2 1
 _ZN18QQmlAnimationTimer11qt_metacallEN11QMetaObject4CallEiPPv@Qt_5_PRIVATE_API 5.0.2 1
 _ZN18QQmlAnimationTimer11qt_metacastEPKc@Qt_5_PRIVATE_API 5.0.2 1
 _ZN18QQmlAnimationTimer15startAnimationsEv@Qt_5_PRIVATE_API 5.0.2 1
 _ZN18QQmlAnimationTimer16staticMetaObjectE@Qt_5_PRIVATE_API 5.0.2 1
 _ZN18QQmlAnimationTimer17ensureTimerUpdateEv@Qt_5_PRIVATE_API 5.0.2 1
 _ZN18QQmlAnimationTimer17registerAnimationEP21QAbstractAnimationJobb@Qt_5_PRIVATE_API 5.0.2 1
 _ZN18QQmlAnimationTimer19unregisterAnimationEP21QAbstractAnimationJob@Qt_5_PRIVATE_API 5.0.2 1
 _ZN18QQmlAnimationTimer20updateAnimationTimerEv@Qt_5_PRIVATE_API 5.0.2 1
 _ZN18QQmlAnimationTimer20updateAnimationsTimeEx@Qt_5_PRIVATE_API 5.0.2 1
 _ZN18QQmlAnimationTimer21restartAnimationTimerEv@Qt_5_PRIVATE_API 5.0.2 1
 _ZN18QQmlAnimationTimer24registerRunningAnimationEP21QAbstractAnimationJob@Qt_5_PRIVATE_API 5.0.2 1
 _ZN18QQmlAnimationTimer26unregisterRunningAnimationEP21QAbstractAnimationJob@Qt_5_PRIVATE_API 5.0.2 1
 _ZN18QQmlAnimationTimer33closestPauseAnimationTimeToFinishEv@Qt_5_PRIVATE_API 5.0.2 1
 _ZN18QQmlAnimationTimer8instanceEb@Qt_5_PRIVATE_API 5.0.2 1
 _ZN18QQmlAnimationTimer8instanceEv@Qt_5_PRIVATE_API 5.0.2 1
 _ZN18QQmlAnimationTimer9stopTimerEv@Qt_5_PRIVATE_API 5.0.2 1
 _ZN18QQmlAnimationTimerC1Ev@Qt_5_PRIVATE_API 5.0.2 1
 _ZN18QQmlAnimationTimerC2Ev@Qt_5_PRIVATE_API 5.0.2 1
 _ZN18QQmlDebugConnector11qt_metacallEN11QMetaObject4CallEiPPv@Qt_5_PRIVATE_API 5.6.0~beta 1
 _ZN18QQmlDebugConnector11qt_metacastEPKc@Qt_5_PRIVATE_API 5.6.0~beta 1
 _ZN18QQmlDebugConnector11setServicesERK11QStringList@Qt_5_PRIVATE_API 5.6.0~beta 1
 _ZN18QQmlDebugConnector12setPluginKeyERK7QString@Qt_5_PRIVATE_API 5.6.0~beta 1
 _ZN18QQmlDebugConnector16staticMetaObjectE@Qt_5_PRIVATE_API 5.6.0~beta 1
 _ZN18QQmlDebugConnector20commandLineArgumentsEv@Qt_5_PRIVATE_API 5.6.0~beta 1
 _ZN18QQmlDebugConnector8instanceEv@Qt_5_PRIVATE_API 5.6.0~beta 1
 _ZN18QQmlMemoryProfiler4saveEPKc@Qt_5_PRIVATE_API 5.0.2 1
 _ZN18QQmlMemoryProfiler5clearEv@Qt_5_PRIVATE_API 5.0.2 1
 _ZN18QQmlMemoryProfiler5statsEPiS0_@Qt_5_PRIVATE_API 5.0.2 1
 _ZN18QQmlMemoryProfiler6enableEv@Qt_5_PRIVATE_API 5.0.2 1
 _ZN18QQmlMemoryProfiler7disableEv@Qt_5_PRIVATE_API 5.0.2 1
 _ZN18QQmlMemoryProfiler9isEnabledEv@Qt_5_PRIVATE_API 5.0.2 1
 _ZN18QQmlOpenMetaObject12initialValueEi@Qt_5_PRIVATE_API 5.0.2 1
 _ZN18QQmlOpenMetaObject12propertyReadEi@Qt_5_PRIVATE_API 5.0.2 1
 _ZN18QQmlOpenMetaObject13propertyWriteEi@Qt_5_PRIVATE_API 5.0.2 1
 _ZN18QQmlOpenMetaObject14createPropertyEPKcS1_@Qt_5_PRIVATE_API 5.0.2 1
 _ZN18QQmlOpenMetaObject15propertyCreatedEiR20QMetaPropertyBuilder@Qt_5_PRIVATE_API 5.0.2 1
 _ZN18QQmlOpenMetaObject15propertyWrittenEi@Qt_5_PRIVATE_API 5.0.2 1
 _ZN18QQmlOpenMetaObject18propertyWriteValueEiRK8QVariant@Qt_5_PRIVATE_API 5.0.2 1
 _ZN18QQmlOpenMetaObject24emitPropertyNotificationERK10QByteArray@Qt_5_PRIVATE_API 5.6.0~beta 1
 _ZN18QQmlOpenMetaObject8metaCallEP7QObjectN11QMetaObject4CallEiPPv@Qt_5_PRIVATE_API 5.6.0~beta 1
 _ZN18QQmlOpenMetaObject8setValueERK10QByteArrayRK8QVariant@Qt_5_PRIVATE_API 5.0.2 1
 _ZN18QQmlOpenMetaObject8setValueEiRK8QVariant@Qt_5_PRIVATE_API 5.0.2 1
 _ZN18QQmlOpenMetaObject9setCachedEb@Qt_5_PRIVATE_API 5.0.2 1
 _ZN18QQmlOpenMetaObjectC1EP7QObjectP22QQmlOpenMetaObjectTypeb@Qt_5_PRIVATE_API 5.0.2 1
 _ZN18QQmlOpenMetaObjectC1EP7QObjectPK11QMetaObjectb@Qt_5_PRIVATE_API 5.0.2 1
 _ZN18QQmlOpenMetaObjectC2EP7QObjectP22QQmlOpenMetaObjectTypeb@Qt_5_PRIVATE_API 5.0.2 1
 _ZN18QQmlOpenMetaObjectC2EP7QObjectPK11QMetaObjectb@Qt_5_PRIVATE_API 5.0.2 1
 _ZN18QQmlOpenMetaObjectD0Ev@Qt_5_PRIVATE_API 5.0.2 1
 _ZN18QQmlOpenMetaObjectD1Ev@Qt_5_PRIVATE_API 5.0.2 1
 _ZN18QQmlOpenMetaObjectD2Ev@Qt_5_PRIVATE_API 5.0.2 1
 _ZN18QQmlOpenMetaObjectixERK10QByteArray@Qt_5_PRIVATE_API 5.0.2 1
 _ZN18QQmlOpenMetaObjectixEi@Qt_5_PRIVATE_API 5.0.2 1
 _ZN19QQmlAbstractBinding11addToObjectEv@Qt_5_PRIVATE_API 5.0.2 1
 _ZN19QQmlAbstractBinding16removeFromObjectEv@Qt_5_PRIVATE_API 5.0.2 1
 _ZN19QQmlAbstractBinding21printBindingLoopErrorER12QQmlProperty@Qt_5_PRIVATE_API 5.0.2 1
 _ZN19QQmlAbstractBindingC1Ev@Qt_5_PRIVATE_API 5.6.0~beta 1
 _ZN19QQmlAbstractBindingC2Ev@Qt_5_PRIVATE_API 5.6.0~beta 1
 _ZN19QQmlAbstractBindingD0Ev@Qt_5_PRIVATE_API 5.6.0~beta 1
 _ZN19QQmlAbstractBindingD1Ev@Qt_5_PRIVATE_API 5.0.2 1
 _ZN19QQmlAbstractBindingD2Ev@Qt_5_PRIVATE_API 5.0.2 1
 _ZN19QQmlExtensionPlugin11qt_metacallEN11QMetaObject4CallEiPPv@Qt_5 5.0.2
 _ZN19QQmlExtensionPlugin11qt_metacastEPKc@Qt_5 5.0.2
 _ZN19QQmlExtensionPlugin16initializeEngineEP10QQmlEnginePKc@Qt_5 5.0.2
 _ZN19QQmlExtensionPlugin16staticMetaObjectE@Qt_5 5.0.2
 _ZN19QQmlExtensionPluginC1EP7QObject@Qt_5 5.0.2
 _ZN19QQmlExtensionPluginC2EP7QObject@Qt_5 5.0.2
 _ZN19QQmlExtensionPluginD0Ev@Qt_5 5.0.2
 _ZN19QQmlExtensionPluginD1Ev@Qt_5 5.0.2
 _ZN19QQmlExtensionPluginD2Ev@Qt_5 5.0.2
 _ZN19QQmlProfilerService11qt_metacallEN11QMetaObject4CallEiPPv@Qt_5_PRIVATE_API 5.3.0 1
 _ZN19QQmlProfilerService11qt_metacastEPKc@Qt_5_PRIVATE_API 5.3.0 1
 _ZN19QQmlProfilerService16staticMetaObjectE@Qt_5_PRIVATE_API 5.3.0 1
 _ZN19QQmlProfilerService5s_keyE@Qt_5_PRIVATE_API 5.6.0~beta 1
 _ZN19QQmlPropertyPrivate10setBindingEP19QQmlAbstractBinding6QFlagsINS_11BindingFlagEES2_INS_9WriteFlagEE@Qt_5_PRIVATE_API 5.6.0~beta 1
 _ZN19QQmlPropertyPrivate10setBindingERK12QQmlPropertyP19QQmlAbstractBinding@Qt_5_PRIVATE_API 5.6.0~beta 1
 _ZN19QQmlPropertyPrivate11flushSignalEPK7QObjecti@Qt_5_PRIVATE_API 5.0.2 1
 _ZN19QQmlPropertyPrivate11initDefaultEP7QObject@Qt_5_PRIVATE_API 5.0.2 1
 _ZN19QQmlPropertyPrivate12bindingIndexERK12QQmlProperty@Qt_5_PRIVATE_API 5.0.2 1
 _ZN19QQmlPropertyPrivate12bindingIndexERK16QQmlPropertyData@Qt_5_PRIVATE_API 5.0.2 1
 _ZN19QQmlPropertyPrivate12initPropertyEP7QObjectRK7QString@Qt_5_PRIVATE_API 5.0.2 1
 _ZN19QQmlPropertyPrivate13removeBindingEP19QQmlAbstractBinding@Qt_5_PRIVATE_API 5.6.0~beta 1
 _ZN19QQmlPropertyPrivate13removeBindingEP7QObjecti@Qt_5_PRIVATE_API 5.6.0~beta 1
 _ZN19QQmlPropertyPrivate13removeBindingERK12QQmlProperty@Qt_5_PRIVATE_API 5.6.0~beta 1
 _ZN19QQmlPropertyPrivate13saveValueTypeERK16QQmlPropertyDataPK11QMetaObjectiP10QQmlEngine@Qt_5_PRIVATE_API 5.0.2 1
 _ZN19QQmlPropertyPrivate15findAliasTargetEP7QObjectiPS1_Pi@Qt_5_PRIVATE_API 5.0.2 1
 _ZN19QQmlPropertyPrivate16findSignalByNameEPK11QMetaObjectRK10QByteArray@Qt_5_PRIVATE_API 5.0.2 1
 _ZN19QQmlPropertyPrivate16signalExpressionERK12QQmlProperty@Qt_5_PRIVATE_API 5.0.2 1
 _ZN19QQmlPropertyPrivate17readValuePropertyEv@Qt_5_PRIVATE_API 5.0.2 1
 _ZN19QQmlPropertyPrivate17writeEnumPropertyERK13QMetaPropertyiP7QObjectRK8QVarianti@Qt_5_PRIVATE_API 5.0.2 1
 _ZN19QQmlPropertyPrivate18valueTypeCoreIndexERK12QQmlProperty@Qt_5_PRIVATE_API 5.0.2 1
 _ZN19QQmlPropertyPrivate18writeValuePropertyEP7QObjectRK16QQmlPropertyDataRK8QVariantP15QQmlContextData6QFlagsINS_9WriteFlagEE@Qt_5_PRIVATE_API 5.0.2 1
 _ZN19QQmlPropertyPrivate18writeValuePropertyERK8QVariant6QFlagsINS_9WriteFlagEE@Qt_5_PRIVATE_API 5.0.2 1
 _ZN19QQmlPropertyPrivate19resolvedUrlSequenceERK8QVariantP15QQmlContextData@Qt_5_PRIVATE_API 5.6.0~beta 1
 _ZN19QQmlPropertyPrivate19setSignalExpressionERK12QQmlPropertyP25QQmlBoundSignalExpression@Qt_5_PRIVATE_API 5.0.2 1
 _ZN19QQmlPropertyPrivate20rawMetaObjectForTypeEP17QQmlEnginePrivatei@Qt_5_PRIVATE_API 5.0.2 1
 _ZN19QQmlPropertyPrivate20takeSignalExpressionERK12QQmlPropertyP25QQmlBoundSignalExpression@Qt_5_PRIVATE_API 5.0.2 1
 _ZN19QQmlPropertyPrivate5writeEP7QObjectRK16QQmlPropertyDataRK8QVariantP15QQmlContextData6QFlagsINS_9WriteFlagEE@Qt_5_PRIVATE_API 5.0.2 1
 _ZN19QQmlPropertyPrivate5writeERK12QQmlPropertyRK8QVariant6QFlagsINS_9WriteFlagEE@Qt_5_PRIVATE_API 5.0.2 1
 _ZN19QQmlPropertyPrivate7bindingEP7QObjecti@Qt_5_PRIVATE_API 5.6.0~beta 1
 _ZN19QQmlPropertyPrivate7bindingERK12QQmlProperty@Qt_5_PRIVATE_API 5.0.2 1
 _ZN19QQmlPropertyPrivate7connectEPK7QObjectiS2_iiPi@Qt_5_PRIVATE_API 5.0.2 1
 _ZN19QQmlPropertyPrivate7restoreEP7QObjectRK16QQmlPropertyDataP15QQmlContextData@Qt_5_PRIVATE_API 5.0.2 1
 _ZN19QQmlPropertyPrivateC1Ev@Qt_5_PRIVATE_API 5.0.2 1
 _ZN19QQmlPropertyPrivateC2Ev@Qt_5_PRIVATE_API 5.0.2 1
 _ZN20QQmlComponentPrivate11beginCreateEP15QQmlContextData@Qt_5_PRIVATE_API 5.0.2 1
 _ZN20QQmlComponentPrivate12fromTypeDataEP12QQmlTypeData@Qt_5_PRIVATE_API 5.0.2 1
 _ZN20QQmlComponentPrivate13beginDeferredEP17QQmlEnginePrivateP7QObjectPNS_17ConstructionStateE@Qt_5_PRIVATE_API 5.0.2 1
 _ZN20QQmlComponentPrivate13typeDataReadyEP12QQmlTypeData@Qt_5_PRIVATE_API 5.0.2 1
 _ZN20QQmlComponentPrivate14completeCreateEv@Qt_5_PRIVATE_API 5.0.2 1
 _ZN20QQmlComponentPrivate16typeDataProgressEP12QQmlTypeDatad@Qt_5_PRIVATE_API 5.2.0 1
 _ZN20QQmlComponentPrivate37initializeObjectWithInitialPropertiesERKN3QV45ValueEP7QObject@Qt_5_PRIVATE_API 5.6.0~beta 1
 _ZN20QQmlComponentPrivate5clearEv@Qt_5_PRIVATE_API 5.0.2 1
 _ZN20QQmlComponentPrivate7loadUrlERK4QUrlN13QQmlComponent15CompilationModeE@Qt_5_PRIVATE_API 5.0.2 1
 _ZN20QQmlComponentPrivate8completeEP17QQmlEnginePrivatePNS_17ConstructionStateE@Qt_5_PRIVATE_API 5.0.2 1
 _ZN20QQmlDebuggingEnabler19startTcpDebugServerEiNS_9StartModeERK7QString@Qt_5 5.5.0
 _ZN20QQmlDebuggingEnabler22connectToLocalDebuggerERK7QStringNS_9StartModeE@Qt_5 5.6.0~beta
 _ZN20QQmlDebuggingEnablerC1Eb@Qt_5 5.0.2
 _ZN20QQmlDebuggingEnablerC2Eb@Qt_5 5.0.2
 _ZN20QQmlInspectorService11qt_metacallEN11QMetaObject4CallEiPPv@Qt_5_PRIVATE_API 5.0.2 1
 _ZN20QQmlInspectorService11qt_metacastEPKc@Qt_5_PRIVATE_API 5.0.2 1
 _ZN20QQmlInspectorService16staticMetaObjectE@Qt_5_PRIVATE_API 5.0.2 1
 _ZN20QQmlInspectorService5s_keyE@Qt_5_PRIVATE_API 5.6.0~beta 1
 _ZN20QQmlStringConverters14dateFromStringERK7QStringPb@Qt_5 5.0.2
 _ZN20QQmlStringConverters14rgbaFromStringERK7QStringPb@Qt_5 5.0.2
 _ZN20QQmlStringConverters14timeFromStringERK7QStringPb@Qt_5 5.0.2
 _ZN20QQmlStringConverters15colorFromStringERK7QStringPb@Qt_5 5.0.2
 _ZN20QQmlStringConverters15rectFFromStringERK7QStringPb@Qt_5 5.0.2
 _ZN20QQmlStringConverters15sizeFFromStringERK7QStringPb@Qt_5 5.0.2
 (subst)_ZN20QQmlStringConverters16createFromStringEiRK7QStringPv{size_t}@Qt_5 5.0.2
 _ZN20QQmlStringConverters16pointFFromStringERK7QStringPb@Qt_5 5.0.2
 _ZN20QQmlStringConverters17variantFromStringERK7QString@Qt_5 5.0.2
 _ZN20QQmlStringConverters17variantFromStringERK7QStringiPb@Qt_5 5.0.2
 _ZN20QQmlStringConverters18dateTimeFromStringERK7QStringPb@Qt_5 5.0.2
 _ZN20QQmlValueTypeFactory11isValueTypeEi@Qt_5_PRIVATE_API 5.0.2 1
 _ZN20QQmlValueTypeFactory18registerValueTypesEPKcii@Qt_5_PRIVATE_API 5.0.2 1
 _ZN20QQmlValueTypeFactory21metaObjectForMetaTypeEi@Qt_5_PRIVATE_API 5.5.0 1
 _ZN20QQmlValueTypeFactory9valueTypeEi@Qt_5_PRIVATE_API 5.0.2 1
 _ZN21QAbstractAnimationJob11updateStateENS_5StateES0_@Qt_5_PRIVATE_API 5.0.2 1
 _ZN21QAbstractAnimationJob12setDirectionENS_9DirectionE@Qt_5_PRIVATE_API 5.0.2 1
 _ZN21QAbstractAnimationJob12setLoopCountEi@Qt_5_PRIVATE_API 5.0.2 1
 _ZN21QAbstractAnimationJob12stateChangedENS_5StateES0_@Qt_5_PRIVATE_API 5.0.2 1
 _ZN21QAbstractAnimationJob14setCurrentTimeEi@Qt_5_PRIVATE_API 5.0.2 1
 _ZN21QAbstractAnimationJob15updateDirectionENS_9DirectionE@Qt_5_PRIVATE_API 5.0.2 1
 _ZN21QAbstractAnimationJob18currentLoopChangedEv@Qt_5_PRIVATE_API 5.0.2 1
 _ZN21QAbstractAnimationJob18currentTimeChangedEi@Qt_5_PRIVATE_API 5.0.2 1
 _ZN21QAbstractAnimationJob20setEnableUserControlEv@Qt_5_PRIVATE_API 5.0.2 1
 _ZN21QAbstractAnimationJob21setDisableUserControlEv@Qt_5_PRIVATE_API 5.0.2 1
 _ZN21QAbstractAnimationJob26addAnimationChangeListenerEP27QAnimationJobChangeListener6QFlagsINS_10ChangeTypeEE@Qt_5_PRIVATE_API 5.0.2 1
 _ZN21QAbstractAnimationJob29removeAnimationChangeListenerEP27QAnimationJobChangeListener6QFlagsINS_10ChangeTypeEE@Qt_5_PRIVATE_API 5.0.2 1
 _ZN21QAbstractAnimationJob32fireTopLevelAnimationLoopChangedEv@Qt_5_PRIVATE_API 5.2.0~beta1 1
 _ZN21QAbstractAnimationJob4stopEv@Qt_5_PRIVATE_API 5.0.2 1
 _ZN21QAbstractAnimationJob5pauseEv@Qt_5_PRIVATE_API 5.0.2 1
 _ZN21QAbstractAnimationJob5startEv@Qt_5_PRIVATE_API 5.0.2 1
 _ZN21QAbstractAnimationJob6resumeEv@Qt_5_PRIVATE_API 5.0.2 1
 _ZN21QAbstractAnimationJob8finishedEv@Qt_5_PRIVATE_API 5.0.2 1
 _ZN21QAbstractAnimationJob8setStateENS_5StateE@Qt_5_PRIVATE_API 5.0.2 1
 _ZN21QAbstractAnimationJobC1Ev@Qt_5_PRIVATE_API 5.0.2 1
 _ZN21QAbstractAnimationJobC2Ev@Qt_5_PRIVATE_API 5.0.2 1
 _ZN21QAbstractAnimationJobD0Ev@Qt_5_PRIVATE_API 5.0.2 1
 _ZN21QAbstractAnimationJobD1Ev@Qt_5_PRIVATE_API 5.0.2 1
 _ZN21QAbstractAnimationJobD2Ev@Qt_5_PRIVATE_API 5.0.2 1
 _ZN21QQmlApplicationEngine11qt_metacallEN11QMetaObject4CallEiPPv@Qt_5 5.1.0
 _ZN21QQmlApplicationEngine11qt_metacastEPKc@Qt_5 5.1.0
 _ZN21QQmlApplicationEngine11rootObjectsEv@Qt_5 5.1.0
 _ZN21QQmlApplicationEngine13objectCreatedEP7QObjectRK4QUrl@Qt_5 5.1.0
 _ZN21QQmlApplicationEngine16staticMetaObjectE@Qt_5 5.1.0
 _ZN21QQmlApplicationEngine4loadERK4QUrl@Qt_5 5.1.0
 _ZN21QQmlApplicationEngine4loadERK7QString@Qt_5 5.1.0
 _ZN21QQmlApplicationEngine8loadDataERK10QByteArrayRK4QUrl@Qt_5 5.1.0
 _ZN21QQmlApplicationEngineC1EP7QObject@Qt_5 5.1.0
 _ZN21QQmlApplicationEngineC1ERK4QUrlP7QObject@Qt_5 5.1.0
 _ZN21QQmlApplicationEngineC1ERK7QStringP7QObject@Qt_5 5.1.0
 _ZN21QQmlApplicationEngineC2EP7QObject@Qt_5 5.1.0
 _ZN21QQmlApplicationEngineC2ERK4QUrlP7QObject@Qt_5 5.1.0
 _ZN21QQmlApplicationEngineC2ERK7QStringP7QObject@Qt_5 5.1.0
 _ZN21QQmlApplicationEngineD0Ev@Qt_5 5.1.0
 _ZN21QQmlApplicationEngineD1Ev@Qt_5 5.1.0
 _ZN21QQmlApplicationEngineD2Ev@Qt_5 5.1.0
 _ZN21QQmlComponentAttached11destructionEv@Qt_5_PRIVATE_API 5.1.0 1
 _ZN21QQmlComponentAttached11qt_metacallEN11QMetaObject4CallEiPPv@Qt_5_PRIVATE_API 5.1.0 1
 _ZN21QQmlComponentAttached11qt_metacastEPKc@Qt_5_PRIVATE_API 5.1.0 1
 _ZN21QQmlComponentAttached16staticMetaObjectE@Qt_5_PRIVATE_API 5.1.0 1
 _ZN21QQmlComponentAttached9completedEv@Qt_5_PRIVATE_API 5.1.0 1
 _ZN21QQmlComponentAttachedC1EP7QObject@Qt_5_PRIVATE_API 5.1.0 1
 _ZN21QQmlComponentAttachedC2EP7QObject@Qt_5_PRIVATE_API 5.1.0 1
 _ZN21QQmlComponentAttachedD0Ev@Qt_5_PRIVATE_API 5.1.0 1
 _ZN21QQmlComponentAttachedD1Ev@Qt_5_PRIVATE_API 5.1.0 1
 _ZN21QQmlComponentAttachedD2Ev@Qt_5_PRIVATE_API 5.1.0 1
 _ZN21QQmlImageProviderBaseC1Ev@Qt_5 5.0.2
 _ZN21QQmlImageProviderBaseC2Ev@Qt_5 5.0.2
 _ZN21QQmlImageProviderBaseD0Ev@Qt_5 5.0.2
 _ZN21QQmlImageProviderBaseD1Ev@Qt_5 5.0.2
 _ZN21QQmlImageProviderBaseD2Ev@Qt_5 5.0.2
 _ZN21QQmlValueTypeProvider13initValueTypeEiR8QVariant@Qt_5_PRIVATE_API 5.6.0~beta 1
 _ZN21QQmlValueTypeProvider13readValueTypeERK8QVariantPvi@Qt_5_PRIVATE_API 5.6.0~beta 1
 _ZN21QQmlValueTypeProvider14equalValueTypeEiPKvRK8QVariant@Qt_5_PRIVATE_API 5.6.0~beta 1
 (subst)_ZN21QQmlValueTypeProvider14storeValueTypeEiPKvPv{size_t}@Qt_5_PRIVATE_API 5.0.2 1
 _ZN21QQmlValueTypeProvider14writeValueTypeEiPKvR8QVariant@Qt_5_PRIVATE_API 5.6.0~beta 1
 _ZN21QQmlValueTypeProvider15createValueTypeEiiPPKv@Qt_5_PRIVATE_API 5.0.2 1
 (subst)_ZN21QQmlValueTypeProvider16createFromStringEiRK7QStringPv{size_t}@Qt_5_PRIVATE_API 5.0.2 1
 _ZN21QQmlValueTypeProvider16createStringFromEiPKvP7QString@Qt_5_PRIVATE_API 5.0.2 1
 _ZN21QQmlValueTypeProvider17variantFromStringERK7QStringP8QVariant@Qt_5_PRIVATE_API 5.0.2 1
 _ZN21QQmlValueTypeProvider17variantFromStringEiRK7QStringP8QVariant@Qt_5_PRIVATE_API 5.0.2 1
 _ZN21QQmlValueTypeProvider19variantFromJsObjectEi12QQmlV4HandlePN3QV415ExecutionEngineEP8QVariant@Qt_5_PRIVATE_API 5.5.0 1
 _ZN21QQmlValueTypeProvider21createStringFromValueEiPKvP7QString@Qt_5_PRIVATE_API 5.0.2 1
 (subst)_ZN21QQmlValueTypeProvider21createValueFromStringEiRK7QStringPv{size_t}@Qt_5_PRIVATE_API 5.0.2 1
 _ZN21QQmlValueTypeProvider21metaObjectForMetaTypeEi@Qt_5_PRIVATE_API 5.5.0 1
 _ZN21QQmlValueTypeProvider23createVariantFromStringERK7QString@Qt_5_PRIVATE_API 5.0.2 1
 _ZN21QQmlValueTypeProvider23createVariantFromStringEiRK7QStringPb@Qt_5_PRIVATE_API 5.0.2 1
 _ZN21QQmlValueTypeProvider24getMetaObjectForMetaTypeEi@Qt_5_PRIVATE_API 5.5.0 1
 _ZN21QQmlValueTypeProvider25createVariantFromJsObjectEi12QQmlV4HandlePN3QV415ExecutionEngineEPb@Qt_5_PRIVATE_API 5.5.0 1
 _ZN21QQmlValueTypeProvider4initEiR8QVariant@Qt_5_PRIVATE_API 5.6.0~beta 1
 _ZN21QQmlValueTypeProvider4readERK8QVariantPvi@Qt_5_PRIVATE_API 5.6.0~beta 1
 _ZN21QQmlValueTypeProvider5equalEiPKvRK8QVariant@Qt_5_PRIVATE_API 5.6.0~beta 1
 (subst)_ZN21QQmlValueTypeProvider5storeEiPKvPv{size_t}@Qt_5_PRIVATE_API 5.0.2 1
 _ZN21QQmlValueTypeProvider5writeEiPKvR8QVariant@Qt_5_PRIVATE_API 5.6.0~beta 1
 _ZN21QQmlValueTypeProvider6createEiiPPKvP8QVariant@Qt_5_PRIVATE_API 5.0.2 1
 _ZN21QQmlValueTypeProviderC1Ev@Qt_5_PRIVATE_API 5.0.2 1
 _ZN21QQmlValueTypeProviderC2Ev@Qt_5_PRIVATE_API 5.0.2 1
 _ZN21QQmlValueTypeProviderD0Ev@Qt_5_PRIVATE_API 5.0.2 1
 _ZN21QQmlValueTypeProviderD1Ev@Qt_5_PRIVATE_API 5.0.2 1
 _ZN21QQmlValueTypeProviderD2Ev@Qt_5_PRIVATE_API 5.0.2 1
 _ZN22QQmlAccessorProperties18registerPropertiesEPK11QMetaObjectiPNS_8PropertyE@Qt_5 5.0.2
 _ZN22QQmlDelegateModelGroup11nameChangedEv@Qt_5_PRIVATE_API 5.1.0 1
 _ZN22QQmlDelegateModelGroup11qt_metacallEN11QMetaObject4CallEiPPv@Qt_5_PRIVATE_API 5.1.0 1
 _ZN22QQmlDelegateModelGroup11qt_metacastEPKc@Qt_5_PRIVATE_API 5.1.0 1
 _ZN22QQmlDelegateModelGroup12countChangedEv@Qt_5_PRIVATE_API 5.1.0 1
 _ZN22QQmlDelegateModelGroup12removeGroupsEP14QQmlV4Function@Qt_5_PRIVATE_API 5.2.0~beta1 1
 _ZN22QQmlDelegateModelGroup16staticMetaObjectE@Qt_5_PRIVATE_API 5.1.0 1
 _ZN22QQmlDelegateModelGroup17setDefaultIncludeEb@Qt_5_PRIVATE_API 5.1.0 1
 _ZN22QQmlDelegateModelGroup21defaultIncludeChangedEv@Qt_5_PRIVATE_API 5.1.0 1
 _ZN22QQmlDelegateModelGroup3getEi@Qt_5_PRIVATE_API 5.1.0 1
 _ZN22QQmlDelegateModelGroup4moveEP14QQmlV4Function@Qt_5_PRIVATE_API 5.2.0~beta1 1
 _ZN22QQmlDelegateModelGroup6createEP14QQmlV4Function@Qt_5_PRIVATE_API 5.2.0~beta1 1
 _ZN22QQmlDelegateModelGroup6insertEP14QQmlV4Function@Qt_5_PRIVATE_API 5.2.0~beta1 1
 _ZN22QQmlDelegateModelGroup6removeEP14QQmlV4Function@Qt_5_PRIVATE_API 5.2.0~beta1 1
 _ZN22QQmlDelegateModelGroup7changedERK12QQmlV4HandleS2_@Qt_5_PRIVATE_API 5.2.0~beta1 1
 _ZN22QQmlDelegateModelGroup7resolveEP14QQmlV4Function@Qt_5_PRIVATE_API 5.2.0~beta1 1
 _ZN22QQmlDelegateModelGroup7setNameERK7QString@Qt_5_PRIVATE_API 5.1.0 1
 _ZN22QQmlDelegateModelGroup9addGroupsEP14QQmlV4Function@Qt_5_PRIVATE_API 5.2.0~beta1 1
 _ZN22QQmlDelegateModelGroup9setGroupsEP14QQmlV4Function@Qt_5_PRIVATE_API 5.2.0~beta1 1
 _ZN22QQmlDelegateModelGroupC1EP7QObject@Qt_5_PRIVATE_API 5.1.0 1
 _ZN22QQmlDelegateModelGroupC1ERK7QStringP17QQmlDelegateModeliP7QObject@Qt_5_PRIVATE_API 5.1.0 1
 _ZN22QQmlDelegateModelGroupC2EP7QObject@Qt_5_PRIVATE_API 5.1.0 1
 _ZN22QQmlDelegateModelGroupC2ERK7QStringP17QQmlDelegateModeliP7QObject@Qt_5_PRIVATE_API 5.1.0 1
 _ZN22QQmlDelegateModelGroupD0Ev@Qt_5_PRIVATE_API 5.1.0 1
 _ZN22QQmlDelegateModelGroupD1Ev@Qt_5_PRIVATE_API 5.1.0 1
 _ZN22QQmlDelegateModelGroupD2Ev@Qt_5_PRIVATE_API 5.1.0 1
 _ZN22QQmlEngineDebugService11qt_metacallEN11QMetaObject4CallEiPPv@Qt_5_PRIVATE_API 5.0.2 1
 _ZN22QQmlEngineDebugService11qt_metacastEPKc@Qt_5_PRIVATE_API 5.0.2 1
 _ZN22QQmlEngineDebugService16staticMetaObjectE@Qt_5_PRIVATE_API 5.0.2 1
 _ZN22QQmlEngineDebugService5s_keyE@Qt_5_PRIVATE_API 5.6.0~beta 1
 _ZN22QQmlNativeDebugService11qt_metacallEN11QMetaObject4CallEiPPv@Qt_5_PRIVATE_API 5.6.0~beta 1
 _ZN22QQmlNativeDebugService11qt_metacastEPKc@Qt_5_PRIVATE_API 5.6.0~beta 1
 _ZN22QQmlNativeDebugService16staticMetaObjectE@Qt_5_PRIVATE_API 5.6.0~beta 1
 _ZN22QQmlNativeDebugService5s_keyE@Qt_5_PRIVATE_API 5.6.0~beta 1
 _ZN22QQmlOpenMetaObjectType14createPropertyERK10QByteArray@Qt_5_PRIVATE_API 5.0.2 1
 _ZN22QQmlOpenMetaObjectType15propertyCreatedEiR20QMetaPropertyBuilder@Qt_5_PRIVATE_API 5.0.2 1
 _ZN22QQmlOpenMetaObjectType16createPropertiesERK7QVectorI10QByteArrayE@Qt_5_PRIVATE_API 5.6.0~beta 1
 _ZN22QQmlOpenMetaObjectType5clearEv@Qt_5_PRIVATE_API 5.0.2 1
 _ZN22QQmlOpenMetaObjectTypeC1EPK11QMetaObjectP10QQmlEngine@Qt_5_PRIVATE_API 5.0.2 1
 _ZN22QQmlOpenMetaObjectTypeC2EPK11QMetaObjectP10QQmlEngine@Qt_5_PRIVATE_API 5.0.2 1
 _ZN22QQmlOpenMetaObjectTypeD0Ev@Qt_5_PRIVATE_API 5.0.2 1
 _ZN22QQmlOpenMetaObjectTypeD1Ev@Qt_5_PRIVATE_API 5.0.2 1
 _ZN22QQmlOpenMetaObjectTypeD2Ev@Qt_5_PRIVATE_API 5.0.2 1
 _ZN23QQmlDebugServiceFactory11qt_metacallEN11QMetaObject4CallEiPPv@Qt_5_PRIVATE_API 5.6.0~beta 1
 _ZN23QQmlDebugServiceFactory11qt_metacastEPKc@Qt_5_PRIVATE_API 5.6.0~beta 1
 _ZN23QQmlDebugServiceFactory16staticMetaObjectE@Qt_5_PRIVATE_API 5.6.0~beta 1
 _ZN23QQmlFileSelectorPrivateC1Ev@Qt_5_PRIVATE_API 5.2.0~beta1 1
 _ZN23QQmlFileSelectorPrivateC2Ev@Qt_5_PRIVATE_API 5.2.0~beta1 1
 _ZN23QQmlFileSelectorPrivateD0Ev@Qt_5_PRIVATE_API 5.6.0~beta 1
 _ZN23QQmlFileSelectorPrivateD1Ev@Qt_5_PRIVATE_API 5.6.0~beta 1
 _ZN23QQmlFileSelectorPrivateD2Ev@Qt_5_PRIVATE_API 5.6.0~beta 1
 _ZN23QQmlPropertyValueSourceC1Ev@Qt_5 5.0.2
 _ZN23QQmlPropertyValueSourceC2Ev@Qt_5 5.0.2
 _ZN23QQmlPropertyValueSourceD0Ev@Qt_5 5.0.2
 _ZN23QQmlPropertyValueSourceD1Ev@Qt_5 5.0.2
 _ZN23QQmlPropertyValueSourceD2Ev@Qt_5 5.0.2
 _ZN24QQmlIncubationController11incubateForEi@Qt_5 5.0.2
 _ZN24QQmlIncubationController13incubateWhileEPVbi@Qt_5 5.0.2
 _ZN24QQmlIncubationController28incubatingObjectCountChangedEi@Qt_5 5.0.2
 _ZN24QQmlIncubationControllerC1Ev@Qt_5 5.0.2
 _ZN24QQmlIncubationControllerC2Ev@Qt_5 5.0.2
 _ZN24QQmlIncubationControllerD0Ev@Qt_5 5.0.2
 _ZN24QQmlIncubationControllerD1Ev@Qt_5 5.0.2
 _ZN24QQmlIncubationControllerD2Ev@Qt_5 5.0.2
 _ZN24QQmlJavaScriptExpression10clearErrorEv@Qt_5_PRIVATE_API 5.6.0~beta 1
 _ZN24QQmlJavaScriptExpression10setContextEP15QQmlContextData@Qt_5_PRIVATE_API 5.6.0~beta 1
 _ZN24QQmlJavaScriptExpression11clearGuardsEv@Qt_5_PRIVATE_API 5.6.0~beta 1
 _ZN24QQmlJavaScriptExpression12delayedErrorEv@Qt_5_PRIVATE_API 5.6.0~beta 1
 _ZN24QQmlJavaScriptExpression12evalFunctionEP15QQmlContextDataP7QObjectRK7QStringS6_t@Qt_5_PRIVATE_API 5.6.0~beta 1
 _ZN24QQmlJavaScriptExpression16createQmlBindingEP15QQmlContextDataP7QObjectRK7QStringS6_t@Qt_5_PRIVATE_API 5.6.0~beta 1
 _ZN24QQmlJavaScriptExpression23setNotifyOnValueChangedEb@Qt_5_PRIVATE_API 5.6.0~beta 1
 _ZN24QQmlJavaScriptExpression25resetNotifyOnValueChangedEv@Qt_5_PRIVATE_API 5.6.0~beta 1
 _ZN24QQmlJavaScriptExpression7refreshEv@Qt_5_PRIVATE_API 5.6.0~beta 1
 _ZN24QQmlJavaScriptExpression8evaluateEPN3QV48CallDataEPb@Qt_5_PRIVATE_API 5.6.0~beta 1
 _ZN24QQmlJavaScriptExpression8evaluateEPb@Qt_5_PRIVATE_API 5.6.0~beta 1
 _ZN24QQmlJavaScriptExpressionC1Ev@Qt_5_PRIVATE_API 5.6.0~beta 1
 _ZN24QQmlJavaScriptExpressionC2Ev@Qt_5_PRIVATE_API 5.6.0~beta 1
 _ZN24QQmlJavaScriptExpressionD0Ev@Qt_5_PRIVATE_API 5.6.0~beta 1
 _ZN24QQmlJavaScriptExpressionD1Ev@Qt_5_PRIVATE_API 5.6.0~beta 1
 _ZN24QQmlJavaScriptExpressionD2Ev@Qt_5_PRIVATE_API 5.6.0~beta 1
 _ZN25QQmlBoundSignalExpression17expressionChangedEv@Qt_5_PRIVATE_API 5.6.0~beta 1
 _ZN25QQmlBoundSignalExpression20expressionIdentifierEv@Qt_5_PRIVATE_API 5.6.0~beta 1
 _ZN25QQmlBoundSignalExpression4initEP15QQmlContextDataP7QObject@Qt_5_PRIVATE_API 5.0.2 1
 _ZN25QQmlBoundSignalExpression8evaluateEPPv@Qt_5_PRIVATE_API 5.0.2 1
 _ZN25QQmlBoundSignalExpression8evaluateERK5QListI8QVariantE@Qt_5_PRIVATE_API 5.6.0~rc 1
 _ZN25QQmlBoundSignalExpressionC1EP7QObjectiP15QQmlContextDataS1_PN3QV48FunctionE@Qt_5_PRIVATE_API 5.3.0 1
 _ZN25QQmlBoundSignalExpressionC1EP7QObjectiP15QQmlContextDataS1_RK7QStringS6_ttS6_S6_@Qt_5_PRIVATE_API 5.2.0~beta1 1
 _ZN25QQmlBoundSignalExpressionC1EP7QObjectiP15QQmlContextDataS1_RKN3QV45ValueE@Qt_5_PRIVATE_API 5.5.0 1
 _ZN25QQmlBoundSignalExpressionC2EP7QObjectiP15QQmlContextDataS1_PN3QV48FunctionE@Qt_5_PRIVATE_API 5.3.0 1
 _ZN25QQmlBoundSignalExpressionC2EP7QObjectiP15QQmlContextDataS1_RK7QStringS6_ttS6_S6_@Qt_5_PRIVATE_API 5.2.0~beta1 1
 _ZN25QQmlBoundSignalExpressionC2EP7QObjectiP15QQmlContextDataS1_RKN3QV45ValueE@Qt_5_PRIVATE_API 5.5.0 1
 _ZN25QQmlBoundSignalExpressionD0Ev@Qt_5_PRIVATE_API 5.0.2 1
 _ZN25QQmlBoundSignalExpressionD1Ev@Qt_5_PRIVATE_API 5.0.2 1
 _ZN25QQmlBoundSignalExpressionD2Ev@Qt_5_PRIVATE_API 5.0.2 1
 _ZN25QQmlDebugConnectorFactory11qt_metacallEN11QMetaObject4CallEiPPv@Qt_5_PRIVATE_API 5.6.0~beta 1
 _ZN25QQmlDebugConnectorFactory11qt_metacastEPKc@Qt_5_PRIVATE_API 5.6.0~beta 1
 _ZN25QQmlDebugConnectorFactory16staticMetaObjectE@Qt_5_PRIVATE_API 5.6.0~beta 1
 _ZN25QQmlDebugConnectorFactoryD0Ev@Qt_5_PRIVATE_API 5.6.0~beta 1
 _ZN25QQmlDebugConnectorFactoryD1Ev@Qt_5_PRIVATE_API 5.6.0~beta 1
 _ZN25QQmlDebugConnectorFactoryD2Ev@Qt_5_PRIVATE_API 5.6.0~beta 1
 _ZN25QQmlInterceptorMetaObject19registerInterceptorEiiP28QQmlPropertyValueInterceptor@Qt_5_PRIVATE_API 5.6.0~beta 1
 _ZN25QQmlInterceptorMetaObject19toDynamicMetaObjectEP7QObject@Qt_5_PRIVATE_API 5.6.0~beta 1
 _ZN25QQmlInterceptorMetaObject8metaCallEP7QObjectN11QMetaObject4CallEiPPv@Qt_5_PRIVATE_API 5.6.0~beta 1
 _ZN25QQmlInterceptorMetaObject9interceptEN11QMetaObject4CallEiPPv@Qt_5_PRIVATE_API 5.6.0~beta 1
 _ZN25QQmlInterceptorMetaObjectC1EP7QObjectP17QQmlPropertyCache@Qt_5_PRIVATE_API 5.6.0~beta 1
 _ZN25QQmlInterceptorMetaObjectC2EP7QObjectP17QQmlPropertyCache@Qt_5_PRIVATE_API 5.6.0~beta 1
 _ZN25QQmlInterceptorMetaObjectD0Ev@Qt_5_PRIVATE_API 5.6.0~beta 1
 _ZN25QQmlInterceptorMetaObjectD1Ev@Qt_5_PRIVATE_API 5.6.0~beta 1
 _ZN25QQmlInterceptorMetaObjectD2Ev@Qt_5_PRIVATE_API 5.6.0~beta 1
 _ZN26QParallelAnimationGroupJob11updateStateEN21QAbstractAnimationJob5StateES1_@Qt_5_PRIVATE_API 5.0.2 1
 _ZN26QParallelAnimationGroupJob15applyGroupStateEP21QAbstractAnimationJob@Qt_5_PRIVATE_API 5.0.2 1
 _ZN26QParallelAnimationGroupJob15updateDirectionEN21QAbstractAnimationJob9DirectionE@Qt_5_PRIVATE_API 5.0.2 1
 _ZN26QParallelAnimationGroupJob17updateCurrentTimeEi@Qt_5_PRIVATE_API 5.0.2 1
 _ZN26QParallelAnimationGroupJob29uncontrolledAnimationFinishedEP21QAbstractAnimationJob@Qt_5_PRIVATE_API 5.0.2 1
 _ZN26QParallelAnimationGroupJobC1Ev@Qt_5_PRIVATE_API 5.0.2 1
 _ZN26QParallelAnimationGroupJobC2Ev@Qt_5_PRIVATE_API 5.0.2 1
 _ZN26QParallelAnimationGroupJobD0Ev@Qt_5_PRIVATE_API 5.0.2 1
 _ZN26QParallelAnimationGroupJobD1Ev@Qt_5_PRIVATE_API 5.0.2 1
 _ZN26QParallelAnimationGroupJobD2Ev@Qt_5_PRIVATE_API 5.0.2 1
 _ZN27QAnimationJobChangeListenerD0Ev@Qt_5_PRIVATE_API 5.0.2 1
 _ZN27QAnimationJobChangeListenerD1Ev@Qt_5_PRIVATE_API 5.0.2 1
 _ZN27QAnimationJobChangeListenerD2Ev@Qt_5_PRIVATE_API 5.0.2 1
 _ZN27QQmlAbstractProfilerAdapter11qt_metacallEN11QMetaObject4CallEiPPv@Qt_5_PRIVATE_API 5.3.0 1
 _ZN27QQmlAbstractProfilerAdapter11qt_metacastEPKc@Qt_5_PRIVATE_API 5.3.0 1
 _ZN27QQmlAbstractProfilerAdapter13dataRequestedEv@Qt_5_PRIVATE_API 5.3.0 1
 _ZN27QQmlAbstractProfilerAdapter13stopProfilingEv@Qt_5_PRIVATE_API 5.3.0 1
 _ZN27QQmlAbstractProfilerAdapter14startProfilingEy@Qt_5_PRIVATE_API 5.4.0 1
 _ZN27QQmlAbstractProfilerAdapter16profilingEnabledEy@Qt_5_PRIVATE_API 5.4.0 1
 _ZN27QQmlAbstractProfilerAdapter16staticMetaObjectE@Qt_5_PRIVATE_API 5.3.0 1
 _ZN27QQmlAbstractProfilerAdapter17profilingDisabledEv@Qt_5_PRIVATE_API 5.3.0 1
 _ZN27QQmlAbstractProfilerAdapter18referenceTimeKnownERK13QElapsedTimer@Qt_5_PRIVATE_API 5.3.0 1
 _ZN27QQmlAbstractProfilerAdapter28profilingEnabledWhileWaitingEy@Qt_5_PRIVATE_API 5.4.0 1
 _ZN27QQmlAbstractProfilerAdapter29profilingDisabledWhileWaitingEv@Qt_5_PRIVATE_API 5.3.0 1
 _ZN27QQmlFileSelectorInterceptor9interceptERK4QUrlN26QQmlAbstractUrlInterceptor8DataTypeE@Qt_5_PRIVATE_API 5.2.0~rc1 1
 _ZN27QQmlFileSelectorInterceptorC1EP23QQmlFileSelectorPrivate@Qt_5_PRIVATE_API 5.2.0~rc1 1
 _ZN27QQmlFileSelectorInterceptorC2EP23QQmlFileSelectorPrivate@Qt_5_PRIVATE_API 5.2.0~rc1 1
 _ZN28QContinuingAnimationGroupJob11updateStateEN21QAbstractAnimationJob5StateES1_@Qt_5_PRIVATE_API 5.3.0 1
 _ZN28QContinuingAnimationGroupJob15updateDirectionEN21QAbstractAnimationJob9DirectionE@Qt_5_PRIVATE_API 5.3.0 1
 _ZN28QContinuingAnimationGroupJob17updateCurrentTimeEi@Qt_5_PRIVATE_API 5.3.0 1
 _ZN28QContinuingAnimationGroupJob29uncontrolledAnimationFinishedEP21QAbstractAnimationJob@Qt_5_PRIVATE_API 5.3.0 1
 _ZN28QContinuingAnimationGroupJobC1Ev@Qt_5_PRIVATE_API 5.3.0 1
 _ZN28QContinuingAnimationGroupJobC2Ev@Qt_5_PRIVATE_API 5.3.0 1
 _ZN28QContinuingAnimationGroupJobD0Ev@Qt_5_PRIVATE_API 5.3.0 1
 _ZN28QContinuingAnimationGroupJobD1Ev@Qt_5_PRIVATE_API 5.3.0 1
 _ZN28QContinuingAnimationGroupJobD2Ev@Qt_5_PRIVATE_API 5.3.0 1
 _ZN28QQmlApplicationEnginePrivate13_q_finishLoadEP7QObject@Qt_5_PRIVATE_API 5.1.0 1
 _ZN28QQmlApplicationEnginePrivate16loadTranslationsERK4QUrl@Qt_5_PRIVATE_API 5.1.0 1
 _ZN28QQmlApplicationEnginePrivate4initEv@Qt_5_PRIVATE_API 5.1.0 1
 _ZN28QQmlApplicationEnginePrivate7cleanUpEv@Qt_5_PRIVATE_API 5.2.0~beta1 1
 _ZN28QQmlApplicationEnginePrivate9startLoadERK4QUrlRK10QByteArrayb@Qt_5_PRIVATE_API 5.1.0 1
 _ZN28QQmlApplicationEnginePrivateC1EP10QQmlEngine@Qt_5_PRIVATE_API 5.1.0 1
 _ZN28QQmlApplicationEnginePrivateC2EP10QQmlEngine@Qt_5_PRIVATE_API 5.1.0 1
 _ZN28QQmlApplicationEnginePrivateD0Ev@Qt_5_PRIVATE_API 5.1.0 1
 _ZN28QQmlApplicationEnginePrivateD1Ev@Qt_5_PRIVATE_API 5.1.0 1
 _ZN28QQmlApplicationEnginePrivateD2Ev@Qt_5_PRIVATE_API 5.1.0 1
 _ZN28QQmlPropertyValueInterceptorC1Ev@Qt_5_PRIVATE_API 5.0.2 1
 _ZN28QQmlPropertyValueInterceptorC2Ev@Qt_5_PRIVATE_API 5.0.2 1
 _ZN28QQmlPropertyValueInterceptorD0Ev@Qt_5_PRIVATE_API 5.0.2 1
 _ZN28QQmlPropertyValueInterceptorD1Ev@Qt_5_PRIVATE_API 5.0.2 1
 _ZN28QQmlPropertyValueInterceptorD2Ev@Qt_5_PRIVATE_API 5.0.2 1
 _ZN28QSequentialAnimationGroupJob11updateStateEN21QAbstractAnimationJob5StateES1_@Qt_5_PRIVATE_API 5.0.2 1
 _ZN28QSequentialAnimationGroupJob14rewindForwardsERKNS_14AnimationIndexE@Qt_5_PRIVATE_API 5.0.2 1
 _ZN28QSequentialAnimationGroupJob15advanceForwardsERKNS_14AnimationIndexE@Qt_5_PRIVATE_API 5.0.2 1
 _ZN28QSequentialAnimationGroupJob15updateDirectionEN21QAbstractAnimationJob9DirectionE@Qt_5_PRIVATE_API 5.0.2 1
 _ZN28QSequentialAnimationGroupJob16animationRemovedEP21QAbstractAnimationJobS1_S1_@Qt_5_PRIVATE_API 5.0.2 1
 _ZN28QSequentialAnimationGroupJob17animationInsertedEP21QAbstractAnimationJob@Qt_5_PRIVATE_API 5.0.2 1
 _ZN28QSequentialAnimationGroupJob17updateCurrentTimeEi@Qt_5_PRIVATE_API 5.0.2 1
 _ZN28QSequentialAnimationGroupJob19setCurrentAnimationEP21QAbstractAnimationJobb@Qt_5_PRIVATE_API 5.0.2 1
 _ZN28QSequentialAnimationGroupJob24activateCurrentAnimationEb@Qt_5_PRIVATE_API 5.0.2 1
 _ZN28QSequentialAnimationGroupJob29uncontrolledAnimationFinishedEP21QAbstractAnimationJob@Qt_5_PRIVATE_API 5.0.2 1
 _ZN28QSequentialAnimationGroupJob7restartEv@Qt_5_PRIVATE_API 5.0.2 1
 _ZN28QSequentialAnimationGroupJobC1Ev@Qt_5_PRIVATE_API 5.0.2 1
 _ZN28QSequentialAnimationGroupJobC2Ev@Qt_5_PRIVATE_API 5.0.2 1
 _ZN28QSequentialAnimationGroupJobD0Ev@Qt_5_PRIVATE_API 5.0.2 1
 _ZN28QSequentialAnimationGroupJobD1Ev@Qt_5_PRIVATE_API 5.0.2 1
 _ZN28QSequentialAnimationGroupJobD2Ev@Qt_5_PRIVATE_API 5.0.2 1
 _ZN31QQmlNetworkAccessManagerFactoryD0Ev@Qt_5 5.0.2
 _ZN31QQmlNetworkAccessManagerFactoryD1Ev@Qt_5 5.0.2
 _ZN31QQmlNetworkAccessManagerFactoryD2Ev@Qt_5 5.0.2
 _ZN32QQmlBoundSignalExpressionPointer4takeEP25QQmlBoundSignalExpression@Qt_5_PRIVATE_API 5.0.2 1
 _ZN32QQmlBoundSignalExpressionPointerC1EP25QQmlBoundSignalExpression@Qt_5_PRIVATE_API 5.0.2 1
 _ZN32QQmlBoundSignalExpressionPointerC1ERKS_@Qt_5_PRIVATE_API 5.0.2 1
 _ZN32QQmlBoundSignalExpressionPointerC2EP25QQmlBoundSignalExpression@Qt_5_PRIVATE_API 5.0.2 1
 _ZN32QQmlBoundSignalExpressionPointerC2ERKS_@Qt_5_PRIVATE_API 5.0.2 1
 _ZN32QQmlBoundSignalExpressionPointerD1Ev@Qt_5_PRIVATE_API 5.0.2 1
 _ZN32QQmlBoundSignalExpressionPointerD2Ev@Qt_5_PRIVATE_API 5.0.2 1
 _ZN32QQmlBoundSignalExpressionPointeraSEP25QQmlBoundSignalExpression@Qt_5_PRIVATE_API 5.0.2 1
 _ZN32QQmlBoundSignalExpressionPointeraSERKS_@Qt_5_PRIVATE_API 5.0.2 1
 _ZN3QV410TypedArray10getIndexedEPKNS_7ManagedEjPb@Qt_5_PRIVATE_API 5.6.0~beta 1
 _ZN3QV410TypedArray10putIndexedEPNS_7ManagedEjRKNS_5ValueE@Qt_5_PRIVATE_API 5.5.0 1
 _ZN3QV410TypedArray11markObjectsEPNS_4Heap4BaseEPNS_15ExecutionEngineE@Qt_5_PRIVATE_API 5.5.0 1
 _ZN3QV410TypedArray11static_vtblE@Qt_5_PRIVATE_API 5.5.0 1
 _ZN3QV410TypedArray6createEPNS_15ExecutionEngineENS_4Heap10TypedArray4TypeE@Qt_5_PRIVATE_API 5.6.0~beta 1
 _ZN3QV411ArrayBuffer11static_vtblE@Qt_5_PRIVATE_API 5.5.0 1
 _ZN3QV411ArrayBuffer6detachEv@Qt_5_PRIVATE_API 5.5.0 1
 _ZN3QV411CallContext11static_vtblE@Qt_5_PRIVATE_API 5.6.0~beta 1
 _ZN3QV411SparseArray10createNodeEjPNS_15SparseArrayNodeEb@Qt_5_PRIVATE_API 5.2.0~beta1 1
 _ZN3QV411SparseArray10deleteNodeEPNS_15SparseArrayNodeE@Qt_5_PRIVATE_API 5.2.0~beta1 1
 _ZN3QV411SparseArray10rotateLeftEPNS_15SparseArrayNodeE@Qt_5_PRIVATE_API 5.2.0~beta1 1
 _ZN3QV411SparseArray11rotateRightEPNS_15SparseArrayNodeE@Qt_5_PRIVATE_API 5.2.0~beta1 1
 _ZN3QV411SparseArray18recalcMostLeftNodeEv@Qt_5_PRIVATE_API 5.2.0~beta1 1
 _ZN3QV411SparseArray6insertEj@Qt_5_PRIVATE_API 5.2.0~beta1 1
 _ZN3QV411SparseArray8freeTreeEPNS_15SparseArrayNodeEi@Qt_5_PRIVATE_API 5.2.0~beta1 1
 _ZN3QV411SparseArray9rebalanceEPNS_15SparseArrayNodeE@Qt_5_PRIVATE_API 5.2.0~beta1 1
 _ZN3QV411SparseArrayC1ERKS0_@Qt_5_PRIVATE_API 5.2.0~beta1 1
 _ZN3QV411SparseArrayC1Ev@Qt_5_PRIVATE_API 5.2.0~beta1 1
 _ZN3QV411SparseArrayC2ERKS0_@Qt_5_PRIVATE_API 5.2.0~beta1 1
 _ZN3QV411SparseArrayC2Ev@Qt_5_PRIVATE_API 5.2.0~beta1 1
 _ZN3QV412CompiledData15CompilationUnit11markObjectsEPNS_15ExecutionEngineE@Qt_5_PRIVATE_API 5.2.0~rc1 1
 _ZN3QV412CompiledData15CompilationUnit12linkToEngineEPNS_15ExecutionEngineE@Qt_5_PRIVATE_API 5.2.0~beta1 1
 _ZN3QV412CompiledData15CompilationUnit14createUnitDataEPN5QmlIR8DocumentE@Qt_5_PRIVATE_API 5.3.0 1
 _ZN3QV412CompiledData15CompilationUnit6unlinkEv@Qt_5_PRIVATE_API 5.2.0~beta1 1
 _ZN3QV412CompiledData15CompilationUnitC1Ev@Qt_5_PRIVATE_API 5.5.0 1
 _ZN3QV412CompiledData15CompilationUnitC2Ev@Qt_5_PRIVATE_API 5.5.0 1
 _ZN3QV412CompiledData15CompilationUnitD0Ev@Qt_5_PRIVATE_API 5.2.0~beta1 1
 _ZN3QV412CompiledData15CompilationUnitD1Ev@Qt_5_PRIVATE_API 5.2.0~beta1 1
 _ZN3QV412CompiledData15CompilationUnitD2Ev@Qt_5_PRIVATE_API 5.2.0~beta1 1
 _ZN3QV412CompiledData7Binding13escapedStringERK7QString@Qt_5_PRIVATE_API 5.4.0 1
 _ZN3QV412EvalFunction11static_vtblE@Qt_5_PRIVATE_API 5.2.0~beta1 1
 _ZN3QV412EvalFunction4callEPKNS_7ManagedEPNS_8CallDataE@Qt_5_PRIVATE_API 5.6.0~beta 1
 (optional=templinst|arch=armel armhf i386 kfreebsd-i386 mips mipsel powerpc)_ZN3QV413MemoryManager11allocObjectINS_15BuiltinFunctionEPNS_16ExecutionContextEPNS_6StringEPFyPNS_11CallContextEEEEPNT_4DataET0_T1_T2_@Qt_5_PRIVATE_API 5.6.0~beta 1
 (optional=templinst|arch=alpha mips mips64el powerpc)_ZN3QV413MemoryManager11allocObjectINS_6ObjectEEEPNT_4DataEPNS_13InternalClassEPS2_@Qt_5_PRIVATE_API 5.6.0~beta 1
 (optional=templinst|arch=alpha armel armhf i386 kfreebsd-i386 mips mips64el mipsel powerpc)_ZN3QV413MemoryManager11allocObjectINS_6ObjectEEEPNT_4DataEv@Qt_5_PRIVATE_API 5.6.0~beta 1
 _ZN3QV413MemoryManager12setGCBlockedEb@Qt_5_PRIVATE_API 5.2.0~beta1 1
 (subst)_ZN3QV413MemoryManager26growUnmanagedHeapSizeUsageE{size_t}@Qt_5_PRIVATE_API 5.5.1 1
 _ZN3QV413MemoryManager4markEv@Qt_5_PRIVATE_API 5.2.0~beta1 1
 _ZN3QV413MemoryManager5runGCEv@Qt_5_PRIVATE_API 5.2.0~beta1 1
 _ZN3QV413MemoryManager5sweepEb@Qt_5_PRIVATE_API 5.2.0~beta1 1
 (subst)_ZN3QV413MemoryManager9allocDataE{size_t}{size_t}@Qt_5_PRIVATE_API 5.5.1 1
 _ZN3QV413MemoryManagerC1EPNS_15ExecutionEngineE@Qt_5_PRIVATE_API 5.5.0 1
 _ZN3QV413MemoryManagerC2EPNS_15ExecutionEngineE@Qt_5_PRIVATE_API 5.5.0 1
 _ZN3QV413MemoryManagerD1Ev@Qt_5_PRIVATE_API 5.2.0~beta1 1
 _ZN3QV413MemoryManagerD2Ev@Qt_5_PRIVATE_API 5.2.0~beta1 1
 _ZN3QV413QObjectMethod11markObjectsEPNS_4Heap4BaseEPNS_15ExecutionEngineE@Qt_5_PRIVATE_API 5.5.0 1
 _ZN3QV413QObjectMethod11static_vtblE@Qt_5_PRIVATE_API 5.4.0 1
 _ZN3QV413QObjectMethod4callEPKNS_7ManagedEPNS_8CallDataE@Qt_5_PRIVATE_API 5.6.0~beta 1
 _ZN3QV413QObjectMethod6createEPNS_16ExecutionContextEP7QObjecti@Qt_5_PRIVATE_API 5.6.0~beta 1
 _ZN3QV413QObjectMethod6createEPNS_16ExecutionContextEPKNS_20QQmlValueTypeWrapperEi@Qt_5_PRIVATE_API 5.6.0~beta 1
 _ZN3QV414FunctionObject11markObjectsEPNS_4Heap4BaseEPNS_15ExecutionEngineE@Qt_5_PRIVATE_API 5.5.0 1
 _ZN3QV414FunctionObject11newInstanceEv@Qt_5_PRIVATE_API 5.2.0~beta1 1
 _ZN3QV414FunctionObject11static_vtblE@Qt_5_PRIVATE_API 5.2.0~beta1 1
 _ZN3QV414FunctionObject17createQmlFunctionEP15QQmlContextDataP7QObjectPNS_8FunctionERK5QListI10QByteArrayEP7QString@Qt_5_PRIVATE_API 5.6.0~beta 1
 _ZN3QV414FunctionObject20createScriptFunctionEPNS_16ExecutionContextEPNS_8FunctionEb@Qt_5_PRIVATE_API 5.3.0 1
 _ZN3QV414FunctionObject4callEPKNS_7ManagedEPNS_8CallDataE@Qt_5_PRIVATE_API 5.6.0~beta 1
 _ZN3QV414FunctionObject4initEPNS_6StringEb@Qt_5_PRIVATE_API 5.4.0 1
 _ZN3QV414FunctionObject9constructEPKNS_7ManagedEPNS_8CallDataE@Qt_5_PRIVATE_API 5.6.0~beta 1
 _ZN3QV414ObjectIterator16nextPropertyNameEPNS_5ValueE@Qt_5_PRIVATE_API 5.5.0 1
 _ZN3QV414ObjectIterator24nextPropertyNameAsStringEPNS_5ValueE@Qt_5_PRIVATE_API 5.5.0 1
 _ZN3QV414ObjectIterator24nextPropertyNameAsStringEv@Qt_5_PRIVATE_API 5.2.0~beta1 1
 _ZN3QV414ObjectIterator4initEPKNS_6ObjectE@Qt_5_PRIVATE_API 5.6.0~beta 1
 _ZN3QV414ObjectIterator4nextEPNS_5ValueEPjPNS_8PropertyEPNS_18PropertyAttributesE@Qt_5_PRIVATE_API 5.6.0~beta 1
 _ZN3QV414ObjectIteratorC1EPNS_15ExecutionEngineEPNS_5ValueES4_PNS_6ObjectEj@Qt_5_PRIVATE_API 5.5.0 1
 _ZN3QV414ObjectIteratorC1ERNS_5ScopeEPKNS_6ObjectEj@Qt_5_PRIVATE_API 5.6.0~beta 1
 _ZN3QV414ObjectIteratorC2EPNS_15ExecutionEngineEPNS_5ValueES4_PNS_6ObjectEj@Qt_5_PRIVATE_API 5.5.0 1
 _ZN3QV414ObjectIteratorC2ERNS_5ScopeEPKNS_6ObjectEj@Qt_5_PRIVATE_API 5.6.0~beta 1
 _ZN3QV414QObjectWrapper11getPropertyEPNS_15ExecutionEngineEP7QObjectP16QQmlPropertyDatab@Qt_5_PRIVATE_API 5.6.0~beta 1
 _ZN3QV414QObjectWrapper11getPropertyEPNS_15ExecutionEngineEP7QObjectib@Qt_5_PRIVATE_API 5.6.0~beta 1
 _ZN3QV414QObjectWrapper11markObjectsEPNS_4Heap4BaseEPNS_15ExecutionEngineE@Qt_5_PRIVATE_API 5.5.0 1
 _ZN3QV414QObjectWrapper11markWrapperEP7QObjectPNS_15ExecutionEngineE@Qt_5_PRIVATE_API 5.5.0 1
 _ZN3QV414QObjectWrapper11setPropertyEPNS_15ExecutionEngineEP7QObjectP16QQmlPropertyDataRKNS_5ValueE@Qt_5_PRIVATE_API 5.6.0~beta 1
 _ZN3QV414QObjectWrapper11setPropertyEPNS_15ExecutionEngineEP7QObjectiRKNS_5ValueE@Qt_5_PRIVATE_API 5.6.0~beta 1
 _ZN3QV414QObjectWrapper11setPropertyEPNS_15ExecutionEngineEiRKNS_5ValueE@Qt_5_PRIVATE_API 5.6.0~beta 1
 _ZN3QV414QObjectWrapper11static_vtblE@Qt_5_PRIVATE_API 5.2.0~beta1 1
 _ZN3QV414QObjectWrapper13destroyObjectEb@Qt_5_PRIVATE_API 5.6.0~beta 1
 _ZN3QV414QObjectWrapper14getQmlPropertyEPNS_15ExecutionEngineEP15QQmlContextDataP7QObjectPNS_6StringENS0_12RevisionModeEPb@Qt_5_PRIVATE_API 5.5.0 1
 _ZN3QV414QObjectWrapper14method_connectEPNS_11CallContextE@Qt_5_PRIVATE_API 5.2.0~rc1 1
 _ZN3QV414QObjectWrapper14setQmlPropertyEPNS_15ExecutionEngineEP15QQmlContextDataP7QObjectPNS_6StringENS0_12RevisionModeERKNS_5ValueE@Qt_5_PRIVATE_API 5.5.0 1
 _ZN3QV414QObjectWrapper15advanceIteratorEPNS_7ManagedEPNS_14ObjectIteratorEPNS_5ValueEPjPNS_8PropertyEPNS_18PropertyAttributesE@Qt_5_PRIVATE_API 5.6.0~beta 1
 _ZN3QV414QObjectWrapper17method_disconnectEPNS_11CallContextE@Qt_5_PRIVATE_API 5.2.0~rc1 1
 _ZN3QV414QObjectWrapper18initializeBindingsEPNS_15ExecutionEngineE@Qt_5_PRIVATE_API 5.2.0~beta1 1
 _ZN3QV414QObjectWrapper3getEPKNS_7ManagedEPNS_6StringEPb@Qt_5_PRIVATE_API 5.6.0~beta 1
 _ZN3QV414QObjectWrapper3putEPNS_7ManagedEPNS_6StringERKNS_5ValueE@Qt_5_PRIVATE_API 5.5.0 1
 _ZN3QV414QObjectWrapper4wrapEPNS_15ExecutionEngineEP7QObject@Qt_5_PRIVATE_API 5.2.0~beta1 1
 _ZN3QV414QObjectWrapper5queryEPKNS_7ManagedEPNS_6StringE@Qt_5_PRIVATE_API 5.4.0 1
 _ZN3QV414QObjectWrapper6createEPNS_15ExecutionEngineEP7QObject@Qt_5_PRIVATE_API 5.2.1 1
 _ZN3QV414QObjectWrapper9isEqualToEPNS_7ManagedES2_@Qt_5_PRIVATE_API 5.2.0~rc1 1
 _ZN3QV414QmlListWrapper10getIndexedEPKNS_7ManagedEjPb@Qt_5_PRIVATE_API 5.6.0~beta 1
 _ZN3QV414QmlListWrapper11static_vtblE@Qt_5_PRIVATE_API 5.2.0~beta1 1
 _ZN3QV414QmlListWrapper15advanceIteratorEPNS_7ManagedEPNS_14ObjectIteratorEPNS_5ValueEPjPNS_8PropertyEPNS_18PropertyAttributesE@Qt_5_PRIVATE_API 5.6.0~beta 1
 _ZN3QV414QmlListWrapper3getEPKNS_7ManagedEPNS_6StringEPb@Qt_5_PRIVATE_API 5.6.0~beta 1
 _ZN3QV414QmlListWrapper3putEPNS_7ManagedEPNS_6StringERKNS_5ValueE@Qt_5_PRIVATE_API 5.5.0 1
 _ZN3QV414QmlListWrapper6createEPNS_15ExecutionEngineEP7QObjectii@Qt_5_PRIVATE_API 5.5.0 1
 _ZN3QV414QmlListWrapper6createEPNS_15ExecutionEngineERK16QQmlListPropertyI7QObjectEi@Qt_5_PRIVATE_API 5.5.0 1
 _ZN3QV414QmlTypeWrapper11static_vtblE@Qt_5_PRIVATE_API 5.2.0~beta1 1
 _ZN3QV414QmlTypeWrapper3getEPKNS_7ManagedEPNS_6StringEPb@Qt_5_PRIVATE_API 5.6.0~beta 1
 _ZN3QV414QmlTypeWrapper3putEPNS_7ManagedEPNS_6StringERKNS_5ValueE@Qt_5_PRIVATE_API 5.5.0 1
 _ZN3QV414QmlTypeWrapper5queryEPKNS_7ManagedEPNS_6StringE@Qt_5_PRIVATE_API 5.4.0 1
 _ZN3QV414QmlTypeWrapper6createEPNS_15ExecutionEngineEP7QObjectP17QQmlTypeNameCachePKvNS_4Heap14QmlTypeWrapper12TypeNameModeE@Qt_5_PRIVATE_API 5.5.0 1
 _ZN3QV414QmlTypeWrapper6createEPNS_15ExecutionEngineEP7QObjectP8QQmlTypeNS_4Heap14QmlTypeWrapper12TypeNameModeE@Qt_5_PRIVATE_API 5.5.0 1
 _ZN3QV414QmlTypeWrapper9isEqualToEPNS_7ManagedES2_@Qt_5_PRIVATE_API 5.2.0~rc1 1
 _ZN3QV414RuntimeHelpers11equalHelperERKNS_5ValueES3_@Qt_5_PRIVATE_API 5.5.0 1
 _ZN3QV414RuntimeHelpers11strictEqualERKNS_5ValueES3_@Qt_5_PRIVATE_API 5.5.0 1
 _ZN3QV414RuntimeHelpers14numberToStringEP7QStringdi@Qt_5_PRIVATE_API 5.3.0 1
 _ZN3QV414RuntimeHelpers14stringToNumberERK7QString@Qt_5_PRIVATE_API 5.3.0 1
 _ZN3QV414RuntimeHelpers15convertToObjectEPNS_15ExecutionEngineERKNS_5ValueE@Qt_5_PRIVATE_API 5.5.0 1
 _ZN3QV414RuntimeHelpers15convertToStringEPNS_15ExecutionEngineERKNS_5ValueE@Qt_5_PRIVATE_API 5.5.0 1
 _ZN3QV414RuntimeHelpers16stringFromNumberEPNS_15ExecutionEngineEd@Qt_5_PRIVATE_API 5.5.0 1
 _ZN3QV414RuntimeHelpers18objectDefaultValueEPKNS_6ObjectEi@Qt_5_PRIVATE_API 5.6.0~beta 1
 _ZN3QV414RuntimeHelpers8toObjectEPNS_15ExecutionEngineERKNS_5ValueE@Qt_5_PRIVATE_API 5.5.0 1
 _ZN3QV414RuntimeHelpers8toStringEPNS_15ExecutionEngineERKNS_5ValueE@Qt_5_PRIVATE_API 5.5.0 1
 _ZN3QV414RuntimeHelpers9addHelperEPNS_15ExecutionEngineERKNS_5ValueES5_@Qt_5_PRIVATE_API 5.5.0 1
 _ZN3QV415BuiltinFunction11static_vtblE@Qt_5_PRIVATE_API 5.4.0 1
 _ZN3QV415BuiltinFunction4callEPKNS_7ManagedEPNS_8CallDataE@Qt_5_PRIVATE_API 5.6.0~beta 1
 _ZN3QV415BuiltinFunction9constructEPKNS_7ManagedEPNS_8CallDataE@Qt_5_PRIVATE_API 5.6.0~beta 1
 _ZN3QV415EvalISelFactoryD0Ev@Qt_5_PRIVATE_API 5.3.0 1
 _ZN3QV415EvalISelFactoryD1Ev@Qt_5_PRIVATE_API 5.3.0 1
 _ZN3QV415EvalISelFactoryD2Ev@Qt_5_PRIVATE_API 5.3.0 1
 _ZN3QV415ExecutionEngine10throwErrorERK7QString@Qt_5_PRIVATE_API 5.5.0 1
 _ZN3QV415ExecutionEngine10throwErrorERKNS_5ValueE@Qt_5_PRIVATE_API 5.5.0 1
 _ZN3QV415ExecutionEngine11fromVariantERK8QVariant@Qt_5_PRIVATE_API 5.5.0 1
 _ZN3QV415ExecutionEngine11markObjectsEv@Qt_5_PRIVATE_API 5.2.0~beta1 1
 _ZN3QV415ExecutionEngine11resolvedUrlERK7QString@Qt_5_PRIVATE_API 5.2.0~beta1 1
 _ZN3QV415ExecutionEngine11setDebuggerEPNS_9Debugging8DebuggerE@Qt_5_PRIVATE_API 5.6.0~beta 1
 _ZN3QV415ExecutionEngine12metaTypeToJSEiPKv@Qt_5_PRIVATE_API 5.5.0 1
 _ZN3QV415ExecutionEngine13newDateObjectERK9QDateTime@Qt_5_PRIVATE_API 5.2.0~beta1 1
 _ZN3QV415ExecutionEngine13newDateObjectERKNS_5ValueE@Qt_5_PRIVATE_API 5.5.0 1
 _ZN3QV415ExecutionEngine13newIdentifierERK7QString@Qt_5_PRIVATE_API 5.2.0~beta1 1
 _ZN3QV415ExecutionEngine13throwURIErrorERKNS_5ValueE@Qt_5_PRIVATE_API 5.5.0 1
 _ZN3QV415ExecutionEngine14catchExceptionEP7QVectorINS_10StackFrameEE@Qt_5_PRIVATE_API 5.5.0 1
 _ZN3QV415ExecutionEngine14enableProfilerEv@Qt_5_PRIVATE_API 5.3.0 1
 _ZN3QV415ExecutionEngine14metaTypeFromJSEPKNS_5ValueEiPv@Qt_5_PRIVATE_API 5.6.0~beta 1
 _ZN3QV415ExecutionEngine14newArrayBufferERK10QByteArray@Qt_5_PRIVATE_API 5.5.0 1
 (subst)_ZN3QV415ExecutionEngine14newArrayBufferE{size_t}@Qt_5_PRIVATE_API 5.6.0~beta 1
 _ZN3QV415ExecutionEngine14newArrayObjectEPKNS_5ValueEi@Qt_5_PRIVATE_API 5.6.0~beta 1
 _ZN3QV415ExecutionEngine14newArrayObjectEPNS_13InternalClassEPNS_6ObjectE@Qt_5_PRIVATE_API 5.5.0 1
 _ZN3QV415ExecutionEngine14newArrayObjectERK11QStringList@Qt_5_PRIVATE_API 5.2.0~beta1 1
 _ZN3QV415ExecutionEngine14newArrayObjectEi@Qt_5_PRIVATE_API 5.2.0~beta1 1
 _ZN3QV415ExecutionEngine14newErrorObjectERKNS_5ValueE@Qt_5_PRIVATE_API 5.5.0 1
 _ZN3QV415ExecutionEngine14throwTypeErrorERK7QString@Qt_5_PRIVATE_API 5.5.0 1
 _ZN3QV415ExecutionEngine14throwTypeErrorEv@Qt_5_PRIVATE_API 5.5.0 1
 _ZN3QV415ExecutionEngine15initRootContextEv@Qt_5_PRIVATE_API 5.2.0~beta1 1
 _ZN3QV415ExecutionEngine15newNumberObjectEd@Qt_5_PRIVATE_API 5.5.0 1
 _ZN3QV415ExecutionEngine15newRegExpObjectEPNS_6RegExpEb@Qt_5_PRIVATE_API 5.4.0 1
 _ZN3QV415ExecutionEngine15newRegExpObjectERK7QRegExp@Qt_5_PRIVATE_API 5.2.0~beta1 1
 _ZN3QV415ExecutionEngine15newRegExpObjectERK7QStringi@Qt_5_PRIVATE_API 5.2.0~beta1 1
 _ZN3QV415ExecutionEngine15newStringObjectEPKNS_6StringE@Qt_5_PRIVATE_API 5.6.0~beta 1
 _ZN3QV415ExecutionEngine15throwRangeErrorERK7QString@Qt_5_PRIVATE_API 5.5.0 1
 _ZN3QV415ExecutionEngine15throwRangeErrorERKNS_5ValueE@Qt_5_PRIVATE_API 5.5.0 1
 _ZN3QV415ExecutionEngine16newBooleanObjectEb@Qt_5_PRIVATE_API 5.5.0 1
 _ZN3QV415ExecutionEngine16newVariantObjectERK8QVariant@Qt_5_PRIVATE_API 5.2.0~beta1 1
 _ZN3QV415ExecutionEngine16throwSyntaxErrorERK7QString@Qt_5_PRIVATE_API 5.5.0 1
 _ZN3QV415ExecutionEngine16throwSyntaxErrorERK7QStringS3_ii@Qt_5_PRIVATE_API 5.5.0 1
 _ZN3QV415ExecutionEngine16variantMapFromJSEPKNS_6ObjectE@Qt_5_PRIVATE_API 5.6.0~beta 1
 _ZN3QV415ExecutionEngine17newURIErrorObjectERKNS_5ValueE@Qt_5_PRIVATE_API 5.5.0 1
 _ZN3QV415ExecutionEngine17pushGlobalContextEv@Qt_5_PRIVATE_API 5.2.0~beta1 1
 _ZN3QV415ExecutionEngine18newTypeErrorObjectERK7QString@Qt_5_PRIVATE_API 5.2.0~beta1 1
 _ZN3QV415ExecutionEngine18throwUnimplementedERK7QString@Qt_5_PRIVATE_API 5.5.0 1
 _ZN3QV415ExecutionEngine19newRangeErrorObjectERK7QString@Qt_5_PRIVATE_API 5.2.0~beta1 1
 _ZN3QV415ExecutionEngine19qmlSingletonWrapperEPNS_6StringE@Qt_5_PRIVATE_API 5.6.0~beta 1
 _ZN3QV415ExecutionEngine19recheckCStackLimitsEv@Qt_5_PRIVATE_API 5.2.0~rc1 1
 _ZN3QV415ExecutionEngine19throwReferenceErrorERK7QStringS3_ii@Qt_5_PRIVATE_API 5.5.0 1
 _ZN3QV415ExecutionEngine19throwReferenceErrorERKNS_5ValueE@Qt_5_PRIVATE_API 5.5.0 1
 _ZN3QV415ExecutionEngine20newSyntaxErrorObjectERK7QString@Qt_5_PRIVATE_API 5.2.0~beta1 1
 _ZN3QV415ExecutionEngine20newSyntaxErrorObjectERK7QStringS3_ii@Qt_5_PRIVATE_API 5.2.0~beta1 1
 _ZN3QV415ExecutionEngine23newReferenceErrorObjectERK7QString@Qt_5_PRIVATE_API 5.2.0~beta1 1
 _ZN3QV415ExecutionEngine23newReferenceErrorObjectERK7QStringS3_ii@Qt_5_PRIVATE_API 5.2.0~beta1 1
 _ZN3QV415ExecutionEngine24catchExceptionAsQmlErrorEv@Qt_5_PRIVATE_API 5.5.0 1
 _ZN3QV415ExecutionEngine24newForEachIteratorObjectEPNS_6ObjectE@Qt_5_PRIVATE_API 5.5.0 1
 _ZN3QV415ExecutionEngine25requireArgumentsAccessorsEi@Qt_5_PRIVATE_API 5.2.0~beta1 1
 _ZN3QV415ExecutionEngine27assertObjectBelongsToEngineERKNS_4Heap4BaseE@Qt_5_PRIVATE_API 5.6.0~beta 1
 _ZN3QV415ExecutionEngine8newClassERKNS_13InternalClassE@Qt_5_PRIVATE_API 5.2.0~beta1 1
 _ZN3QV415ExecutionEngine9newObjectEPNS_13InternalClassEPNS_6ObjectE@Qt_5_PRIVATE_API 5.5.0 1
 _ZN3QV415ExecutionEngine9newObjectEv@Qt_5_PRIVATE_API 5.2.0~beta1 1
 _ZN3QV415ExecutionEngine9newStringERK7QString@Qt_5_PRIVATE_API 5.2.0~beta1 1
 _ZN3QV415ExecutionEngine9toVariantERKNS_5ValueEib@Qt_5_PRIVATE_API 5.5.0 1
 _ZN3QV415ExecutionEngineC1EPNS_15EvalISelFactoryE@Qt_5_PRIVATE_API 5.3.0 1
 _ZN3QV415ExecutionEngineC2EPNS_15EvalISelFactoryE@Qt_5_PRIVATE_API 5.3.0 1
 _ZN3QV415ExecutionEngineD1Ev@Qt_5_PRIVATE_API 5.2.0~beta1 1
 _ZN3QV415ExecutionEngineD2Ev@Qt_5_PRIVATE_API 5.2.0~beta1 1
 _ZN3QV415PersistentValue3setEPNS_15ExecutionEngineEPNS_4Heap4BaseE@Qt_5_PRIVATE_API 5.5.0 1
 _ZN3QV415PersistentValue3setEPNS_15ExecutionEngineERKNS_5ValueE@Qt_5_PRIVATE_API 5.5.0 1
 _ZN3QV415PersistentValue3setEPNS_15ExecutionEngineEy@Qt_5_PRIVATE_API 5.5.0 1
 _ZN3QV415PersistentValueC1EPNS_15ExecutionEngineEPNS_6ObjectE@Qt_5_PRIVATE_API 5.5.0 1
 _ZN3QV415PersistentValueC1EPNS_15ExecutionEngineERKNS_5ValueE@Qt_5_PRIVATE_API 5.5.0 1
 _ZN3QV415PersistentValueC1EPNS_15ExecutionEngineEy@Qt_5_PRIVATE_API 5.5.0 1
 _ZN3QV415PersistentValueC1ERKS0_@Qt_5_PRIVATE_API 5.2.0~beta1 1
 _ZN3QV415PersistentValueC2EPNS_15ExecutionEngineEPNS_6ObjectE@Qt_5_PRIVATE_API 5.5.0 1
 _ZN3QV415PersistentValueC2EPNS_15ExecutionEngineERKNS_5ValueE@Qt_5_PRIVATE_API 5.5.0 1
 _ZN3QV415PersistentValueC2EPNS_15ExecutionEngineEy@Qt_5_PRIVATE_API 5.5.0 1
 _ZN3QV415PersistentValueC2ERKS0_@Qt_5_PRIVATE_API 5.2.0~beta1 1
 _ZN3QV415PersistentValueD1Ev@Qt_5_PRIVATE_API 5.2.0~beta1 1
 _ZN3QV415PersistentValueD2Ev@Qt_5_PRIVATE_API 5.2.0~beta1 1
 _ZN3QV415PersistentValueaSEPNS_6ObjectE@Qt_5_PRIVATE_API 5.5.0 1
 _ZN3QV415PersistentValueaSERKNS_9WeakValueE@Qt_5_PRIVATE_API 5.5.0 1
 _ZN3QV415PersistentValueaSERKS0_@Qt_5_PRIVATE_API 5.2.0~beta1 1
 _ZN3QV415SimpleArrayData10push_frontEPNS_6ObjectEPKNS_5ValueEj@Qt_5_PRIVATE_API 5.5.0 1
 _ZN3QV415SimpleArrayData10reallocateEPNS_6ObjectEjb@Qt_5_PRIVATE_API 5.3.0 1
 _ZN3QV415SimpleArrayData11markObjectsEPNS_4Heap4BaseEPNS_15ExecutionEngineE@Qt_5_PRIVATE_API 5.5.0 1
 _ZN3QV415SimpleArrayData11static_vtblE@Qt_5_PRIVATE_API 5.3.0 1
 _ZN3QV415SimpleArrayData12setAttributeEPNS_6ObjectEjNS_18PropertyAttributesE@Qt_5_PRIVATE_API 5.3.0 1
 _ZN3QV415SimpleArrayData3delEPNS_6ObjectEj@Qt_5_PRIVATE_API 5.3.0 1
 _ZN3QV415SimpleArrayData3getEPKNS_4Heap9ArrayDataEj@Qt_5_PRIVATE_API 5.5.0 1
 _ZN3QV415SimpleArrayData3putEPNS_6ObjectEjRKNS_5ValueE@Qt_5_PRIVATE_API 5.5.0 1
 _ZN3QV415SimpleArrayData6lengthEPKNS_4Heap9ArrayDataE@Qt_5_PRIVATE_API 5.5.0 1
 _ZN3QV415SimpleArrayData8putArrayEPNS_6ObjectEjPKNS_5ValueEj@Qt_5_PRIVATE_API 5.5.0 1
 _ZN3QV415SimpleArrayData8truncateEPNS_6ObjectEj@Qt_5_PRIVATE_API 5.3.0 1
 _ZN3QV415SimpleArrayData9pop_frontEPNS_6ObjectE@Qt_5_PRIVATE_API 5.3.0 1
 _ZN3QV415SparseArrayData10push_frontEPNS_6ObjectEPKNS_5ValueEj@Qt_5_PRIVATE_API 5.5.0 1
 _ZN3QV415SparseArrayData10reallocateEPNS_6ObjectEjb@Qt_5_PRIVATE_API 5.3.0 1
 _ZN3QV415SparseArrayData11markObjectsEPNS_4Heap4BaseEPNS_15ExecutionEngineE@Qt_5_PRIVATE_API 5.5.0 1
 _ZN3QV415SparseArrayData11static_vtblE@Qt_5_PRIVATE_API 5.3.0 1
 _ZN3QV415SparseArrayData12setAttributeEPNS_6ObjectEjNS_18PropertyAttributesE@Qt_5_PRIVATE_API 5.3.0 1
 _ZN3QV415SparseArrayData3delEPNS_6ObjectEj@Qt_5_PRIVATE_API 5.3.0 1
 _ZN3QV415SparseArrayData3getEPKNS_4Heap9ArrayDataEj@Qt_5_PRIVATE_API 5.5.0 1
 _ZN3QV415SparseArrayData3putEPNS_6ObjectEjRKNS_5ValueE@Qt_5_PRIVATE_API 5.5.0 1
 _ZN3QV415SparseArrayData4freeEPNS_4Heap9ArrayDataEj@Qt_5_PRIVATE_API 5.5.0 1
 _ZN3QV415SparseArrayData6lengthEPKNS_4Heap9ArrayDataE@Qt_5_PRIVATE_API 5.5.0 1
 _ZN3QV415SparseArrayData8allocateEPNS_6ObjectEb@Qt_5_PRIVATE_API 5.3.0 1
 _ZN3QV415SparseArrayData8putArrayEPNS_6ObjectEjPKNS_5ValueEj@Qt_5_PRIVATE_API 5.5.0 1
 _ZN3QV415SparseArrayData8truncateEPNS_6ObjectEj@Qt_5_PRIVATE_API 5.3.0 1
 _ZN3QV415SparseArrayData9pop_frontEPNS_6ObjectE@Qt_5_PRIVATE_API 5.3.0 1
 _ZN3QV416ExecutionContext11getPropertyEPNS_6StringE@Qt_5_PRIVATE_API 5.4.0 1
 _ZN3QV416ExecutionContext11markObjectsEPNS_4Heap4BaseEPNS_15ExecutionEngineE@Qt_5_PRIVATE_API 5.5.0 1
 _ZN3QV416ExecutionContext11setPropertyEPNS_6StringERKNS_5ValueE@Qt_5_PRIVATE_API 5.5.0 1
 _ZN3QV416ExecutionContext11static_vtblE@Qt_5_PRIVATE_API 5.2.1 1
 _ZN3QV416ExecutionContext13newQmlContextEP15QQmlContextDataP7QObject@Qt_5_PRIVATE_API 5.6.0~beta 1
 _ZN3QV416ExecutionContext13newQmlContextEPNS_17QmlContextWrapperE@Qt_5_PRIVATE_API 5.6.0~beta 1
 _ZN3QV416ExecutionContext14deletePropertyEPNS_6StringE@Qt_5_PRIVATE_API 5.4.0 1
 _ZN3QV416ExecutionContext14newCallContextEPKNS_14FunctionObjectEPNS_8CallDataE@Qt_5_PRIVATE_API 5.6.0~beta 1
 _ZN3QV416ExecutionContext14newWithContextEPNS_4Heap6ObjectE@Qt_5_PRIVATE_API 5.6.0~beta 1
 _ZN3QV416ExecutionContext15newCatchContextEPNS_4Heap6StringEy@Qt_5_PRIVATE_API 5.6.0~beta 1
 _ZN3QV416ExecutionContext18getPropertyAndBaseEPNS_6StringEPNS_5ValueE@Qt_5_PRIVATE_API 5.6.0~beta 1
 _ZN3QV416ExecutionContext20createMutableBindingEPNS_6StringEb@Qt_5_PRIVATE_API 5.4.0 1
 _ZN3QV417QmlContextWrapper11static_vtblE@Qt_5_PRIVATE_API 5.2.0~beta1 1
 _ZN3QV417QmlContextWrapper3getEPKNS_7ManagedEPNS_6StringEPb@Qt_5_PRIVATE_API 5.6.0~beta 1
 _ZN3QV417QmlContextWrapper3putEPNS_7ManagedEPNS_6StringERKNS_5ValueE@Qt_5_PRIVATE_API 5.5.0 1
 _ZN3QV417QmlContextWrapper8qmlScopeEPNS_15ExecutionEngineEP15QQmlContextDataP7QObject@Qt_5_PRIVATE_API 5.5.0 1
 _ZN3QV417QmlContextWrapper8urlScopeEPNS_15ExecutionEngineERK4QUrl@Qt_5_PRIVATE_API 5.5.0 1
 _ZN3QV420QQmlValueTypeWrapper11static_vtblE@Qt_5_PRIVATE_API 5.5.0 1
 _ZN3QV420QQmlValueTypeWrapper15method_toStringEPNS_11CallContextE@Qt_5_PRIVATE_API 5.5.0 1
 _ZN3QV420QQmlValueTypeWrapper3getEPKNS_7ManagedEPNS_6StringEPb@Qt_5_PRIVATE_API 5.6.0~beta 1
 _ZN3QV420QQmlValueTypeWrapper3putEPNS_7ManagedEPNS_6StringERKNS_5ValueE@Qt_5_PRIVATE_API 5.5.0 1
 _ZN3QV420QQmlValueTypeWrapper5queryEPKNS_7ManagedEPNS_6StringE@Qt_5_PRIVATE_API 5.5.0 1
 _ZN3QV420QQmlValueTypeWrapper6createEPNS_15ExecutionEngineEP7QObjectiPK11QMetaObjecti@Qt_5_PRIVATE_API 5.5.0 1
 _ZN3QV420QQmlValueTypeWrapper6createEPNS_15ExecutionEngineERK8QVariantPK11QMetaObjecti@Qt_5_PRIVATE_API 5.5.0 1
 _ZN3QV420QQmlValueTypeWrapper7destroyEPNS_4Heap4BaseE@Qt_5_PRIVATE_API 5.5.0 1
 _ZN3QV420QQmlValueTypeWrapper7isEqualERK8QVariant@Qt_5_PRIVATE_API 5.5.0 1
 _ZN3QV420QQmlValueTypeWrapper9initProtoEPNS_15ExecutionEngineE@Qt_5_PRIVATE_API 5.5.0 1
 _ZN3QV420QQmlValueTypeWrapper9isEqualToEPNS_7ManagedES2_@Qt_5_PRIVATE_API 5.5.0 1
 _ZN3QV422PersistentValueStorage4freeEPNS_5ValueE@Qt_5_PRIVATE_API 5.5.0 1
 _ZN3QV422PersistentValueStorage4markEPNS_15ExecutionEngineE@Qt_5_PRIVATE_API 5.5.0 1
 _ZN3QV422PersistentValueStorage8IteratorC1EPvi@Qt_5_PRIVATE_API 5.6.0~beta 1
 _ZN3QV422PersistentValueStorage8IteratorC1ERKS1_@Qt_5_PRIVATE_API 5.6.0~beta 1
 _ZN3QV422PersistentValueStorage8IteratorC2EPvi@Qt_5_PRIVATE_API 5.6.0~beta 1
 _ZN3QV422PersistentValueStorage8IteratorC2ERKS1_@Qt_5_PRIVATE_API 5.6.0~beta 1
 _ZN3QV422PersistentValueStorage8IteratorD1Ev@Qt_5_PRIVATE_API 5.6.0~beta 1
 _ZN3QV422PersistentValueStorage8IteratorD2Ev@Qt_5_PRIVATE_API 5.6.0~beta 1
 _ZN3QV422PersistentValueStorage8IteratoraSERKS1_@Qt_5_PRIVATE_API 5.6.0~beta 1
 _ZN3QV422PersistentValueStorage8IteratordeEv@Qt_5_PRIVATE_API 5.5.0 1
 _ZN3QV422PersistentValueStorage8IteratorppEv@Qt_5_PRIVATE_API 5.5.0 1
 _ZN3QV422PersistentValueStorage8allocateEv@Qt_5_PRIVATE_API 5.5.0 1
 _ZN3QV422PersistentValueStorage8freePageEPv@Qt_5_PRIVATE_API 5.6.0~beta 1
 _ZN3QV422PersistentValueStorage9getEngineEPNS_5ValueE@Qt_5_PRIVATE_API 5.5.0 1
 _ZN3QV422PersistentValueStorageC1EPNS_15ExecutionEngineE@Qt_5_PRIVATE_API 5.5.0 1
 _ZN3QV422PersistentValueStorageC2EPNS_15ExecutionEngineE@Qt_5_PRIVATE_API 5.5.0 1
 _ZN3QV422PersistentValueStorageD1Ev@Qt_5_PRIVATE_API 5.5.0 1
 _ZN3QV422PersistentValueStorageD2Ev@Qt_5_PRIVATE_API 5.5.0 1
 _ZN3QV424EvalInstructionSelection7compileEb@Qt_5_PRIVATE_API 5.3.0 1
 _ZN3QV424EvalInstructionSelectionC1EPNS_19ExecutableAllocatorEPNS_2IR6ModuleEPNS_8Compiler15JSUnitGeneratorE@Qt_5_PRIVATE_API 5.3.0 1
 _ZN3QV424EvalInstructionSelectionC2EPNS_19ExecutableAllocatorEPNS_2IR6ModuleEPNS_8Compiler15JSUnitGeneratorE@Qt_5_PRIVATE_API 5.3.0 1
 _ZN3QV424EvalInstructionSelectionD0Ev@Qt_5_PRIVATE_API 5.3.0 1
 _ZN3QV424EvalInstructionSelectionD1Ev@Qt_5_PRIVATE_API 5.3.0 1
 _ZN3QV424EvalInstructionSelectionD2Ev@Qt_5_PRIVATE_API 5.3.0 1
 _ZN3QV42IR6Module11newFunctionERK7QStringPNS0_8FunctionE@Qt_5_PRIVATE_API 5.3.0 1
 _ZN3QV42IR6Module11setFileNameERK7QString@Qt_5_PRIVATE_API 5.3.0 1
 _ZN3QV42IR6ModuleD1Ev@Qt_5_PRIVATE_API 5.3.0 1
 _ZN3QV42IR6ModuleD2Ev@Qt_5_PRIVATE_API 5.3.0 1
 _ZN3QV42IR9IRDecoder11callBuiltinEPNS0_4CallEPNS0_4ExprE@Qt_5_PRIVATE_API 5.4.0 1
 _ZN3QV42IR9IRDecoder8visitExpEPNS0_3ExpE@Qt_5_PRIVATE_API 5.3.0 1
 _ZN3QV42IR9IRDecoder9visitMoveEPNS0_4MoveE@Qt_5_PRIVATE_API 5.3.0 1
 _ZN3QV42IR9IRDecoderD0Ev@Qt_5_PRIVATE_API 5.3.0 1
 _ZN3QV42IR9IRDecoderD1Ev@Qt_5_PRIVATE_API 5.3.0 1
 _ZN3QV42IR9IRDecoderD2Ev@Qt_5_PRIVATE_API 5.3.0 1
 _ZN3QV42IR9Optimizer13showMeTheCodeEPNS0_8FunctionEPKc@Qt_5_PRIVATE_API 5.5.0 1
 _ZN3QV42IR9Optimizer15convertOutOfSSAEv@Qt_5_PRIVATE_API 5.3.0 1
 _ZN3QV42IR9Optimizer22calculateOptionalJumpsEv@Qt_5_PRIVATE_API 5.3.0 1
 _ZN3QV42IR9Optimizer3runEP17QQmlEnginePrivatebb@Qt_5_PRIVATE_API 5.4.0 1
 _ZN3QV42IR9OptimizerC1EPNS0_8FunctionE@Qt_5_PRIVATE_API 5.3.1 1
 _ZN3QV42IR9OptimizerC2EPNS0_8FunctionE@Qt_5_PRIVATE_API 5.3.1 1
 (arch=amd64 armhf i386)_ZN3QV43JIT20InstructionSelection10getElementEPNS_2IR4ExprES4_S4_@Qt_5_PRIVATE_API 5.4.0 1
 (arch=amd64 armhf i386)_ZN3QV43JIT20InstructionSelection10loadRegexpEPNS_2IR6RegExpEPNS2_4ExprE@Qt_5_PRIVATE_API 5.4.0 1
 (arch=amd64 armhf i386)_ZN3QV43JIT20InstructionSelection10loadStringERK7QStringPNS_2IR4ExprE@Qt_5_PRIVATE_API 5.4.0 1
 (arch=amd64 armhf i386)_ZN3QV43JIT20InstructionSelection10setElementEPNS_2IR4ExprES4_S4_@Qt_5_PRIVATE_API 5.3.0 1
 (arch=amd64 armhf i386)_ZN3QV43JIT20InstructionSelection10swapValuesEPNS_2IR4ExprES4_@Qt_5_PRIVATE_API 5.4.0 1
 (arch=amd64 armhf i386)_ZN3QV43JIT20InstructionSelection10visitCJumpEPNS_2IR5CJumpE@Qt_5_PRIVATE_API 5.3.0 1
 (arch=amd64 armhf i386)_ZN3QV43JIT20InstructionSelection11convertTypeEPNS_2IR4ExprES4_@Qt_5_PRIVATE_API 5.4.0 1
 (arch=amd64 armhf i386)_ZN3QV43JIT20InstructionSelection11getPropertyEPNS_2IR4ExprERK7QStringS4_@Qt_5_PRIVATE_API 5.4.0 1
 (arch=amd64 armhf i386)_ZN3QV43JIT20InstructionSelection11initClosureEPNS_2IR7ClosureEPNS2_4ExprE@Qt_5_PRIVATE_API 5.4.0 1
 (arch=amd64 armhf i386)_ZN3QV43JIT20InstructionSelection11setPropertyEPNS_2IR4ExprES4_RK7QString@Qt_5_PRIVATE_API 5.3.0 1
 (arch=amd64 armhf i386)_ZN3QV43JIT20InstructionSelection12callPropertyEPNS_2IR4ExprERK7QStringPNS2_8ExprListES4_@Qt_5_PRIVATE_API 5.4.0 1
 (arch=amd64 armhf i386)_ZN3QV43JIT20InstructionSelection13callSubscriptEPNS_2IR4ExprES4_PNS2_8ExprListES4_@Qt_5_PRIVATE_API 5.4.0 1
 (arch=amd64 armhf i386)_ZN3QV43JIT20InstructionSelection14constructValueEPNS_2IR4ExprEPNS2_8ExprListES4_@Qt_5_PRIVATE_API 5.4.0 1
 (arch=amd64 armhf i386)_ZN3QV43JIT20InstructionSelection14loadQmlContextEPNS_2IR4ExprE@Qt_5_PRIVATE_API 5.6.0~beta 1
 (arch=amd64 armhf i386)_ZN3QV43JIT20InstructionSelection14loadThisObjectEPNS_2IR4ExprE@Qt_5_PRIVATE_API 5.4.0 1
 (arch=amd64 armhf i386)_ZN3QV43JIT20InstructionSelection15prepareCallDataEPNS_2IR8ExprListEPNS2_4ExprE@Qt_5_PRIVATE_API 5.3.0 1
 (arch=amd64 armhf i386)_ZN3QV43JIT20InstructionSelection15visitCJumpEqualEPNS_2IR5BinopEPNS2_10BasicBlockES6_@Qt_5_PRIVATE_API 5.3.0 1
 (arch=amd64 armhf i386)_ZN3QV43JIT20InstructionSelection16addConstantTableEP7QVectorINS_9PrimitiveEE@Qt_5_PRIVATE_API 5.3.0 1
 (arch=amd64 armhf i386)_ZN3QV43JIT20InstructionSelection16callBuiltinThrowEPNS_2IR4ExprE@Qt_5_PRIVATE_API 5.3.0 1
 (arch=amd64 armhf i386)_ZN3QV43JIT20InstructionSelection16loadQmlSingletonERK7QStringPNS_2IR4ExprE@Qt_5_PRIVATE_API 5.4.0 1
 (arch=amd64 armhf i386)_ZN3QV43JIT20InstructionSelection16visitCJumpDoubleENS_2IR5AluOpEPNS2_4ExprES5_PNS2_10BasicBlockES7_@Qt_5_PRIVATE_API 5.3.0 1
 (arch=amd64 armhf i386)_ZN3QV43JIT20InstructionSelection16visitCJumpSInt32ENS_2IR5AluOpEPNS2_4ExprES5_PNS2_10BasicBlockES7_@Qt_5_PRIVATE_API 5.4.0 1
 (arch=amd64 armhf i386)_ZN3QV43JIT20InstructionSelection16visitCJumpStrictEPNS_2IR5BinopEPNS2_10BasicBlockES6_@Qt_5_PRIVATE_API 5.3.0 1
 (arch=amd64 armhf i386)_ZN3QV43JIT20InstructionSelection17constructPropertyEPNS_2IR4ExprERK7QStringPNS2_8ExprListES4_@Qt_5_PRIVATE_API 5.4.0 1
 (arch=amd64 armhf i386)_ZN3QV43JIT20InstructionSelection17convertTypeToBoolEPNS_2IR4ExprES4_@Qt_5_PRIVATE_API 5.4.0 1
 (arch=amd64 armhf i386)_ZN3QV43JIT20InstructionSelection18backendCompileStepEv@Qt_5_PRIVATE_API 5.3.0 1
 (arch=amd64 armhf i386)_ZN3QV43JIT20InstructionSelection18callBuiltinInvalidEPNS_2IR4NameEPNS2_8ExprListEPNS2_4ExprE@Qt_5_PRIVATE_API 5.4.0 1
 (arch=amd64 armhf i386)_ZN3QV43JIT20InstructionSelection18callBuiltinReThrowEv@Qt_5_PRIVATE_API 5.3.0 1
 (arch=amd64 armhf i386)_ZN3QV43JIT20InstructionSelection18getQObjectPropertyEPNS_2IR4ExprEibbiS4_@Qt_5_PRIVATE_API 5.4.0 1
 (arch=amd64 armhf i386)_ZN3QV43JIT20InstructionSelection18setQObjectPropertyEPNS_2IR4ExprES4_i@Qt_5_PRIVATE_API 5.3.0 1
 (arch=amd64 armhf i386)_ZN3QV43JIT20InstructionSelection19callBuiltinPopScopeEv@Qt_5_PRIVATE_API 5.3.0 1
 (arch=amd64 armhf i386)_ZN3QV43JIT20InstructionSelection19convertTypeSlowPathEPNS_2IR4ExprES4_@Qt_5_PRIVATE_API 5.4.0 1
 (arch=amd64 armhf i386)_ZN3QV43JIT20InstructionSelection19convertTypeToDoubleEPNS_2IR4ExprES4_@Qt_5_PRIVATE_API 5.4.0 1
 (arch=amd64 armhf i386)_ZN3QV43JIT20InstructionSelection19convertTypeToSInt32EPNS_2IR4ExprES4_@Qt_5_PRIVATE_API 5.4.0 1
 (arch=amd64 armhf i386)_ZN3QV43JIT20InstructionSelection19convertTypeToUInt32EPNS_2IR4ExprES4_@Qt_5_PRIVATE_API 5.4.0 1
 (arch=amd64 armhf i386)_ZN3QV43JIT20InstructionSelection20visitCJumpStrictBoolEPNS_2IR5BinopEPNS2_10BasicBlockES6_@Qt_5_PRIVATE_API 5.3.0 1
 (arch=amd64 armhf i386)_ZN3QV43JIT20InstructionSelection21callBuiltinDeclareVarEbRK7QString@Qt_5_PRIVATE_API 5.3.0 1
 (arch=amd64 armhf i386)_ZN3QV43JIT20InstructionSelection21callBuiltinDeleteNameERK7QStringPNS_2IR4ExprE@Qt_5_PRIVATE_API 5.4.0 1
 (arch=amd64 armhf i386)_ZN3QV43JIT20InstructionSelection21callBuiltinTypeofNameERK7QStringPNS_2IR4ExprE@Qt_5_PRIVATE_API 5.4.0 1
 (arch=amd64 armhf i386)_ZN3QV43JIT20InstructionSelection21getActivationPropertyEPKNS_2IR4NameEPNS2_4ExprE@Qt_5_PRIVATE_API 5.4.0 1
 (arch=amd64 armhf i386)_ZN3QV43JIT20InstructionSelection21getQmlContextPropertyEPNS_2IR4ExprENS2_6Member10MemberKindEiS4_@Qt_5_PRIVATE_API 5.6.0~beta 1
 (arch=amd64 armhf i386)_ZN3QV43JIT20InstructionSelection21setActivationPropertyEPNS_2IR4ExprERK7QString@Qt_5_PRIVATE_API 5.3.0 1
 (arch=amd64 armhf i386)_ZN3QV43JIT20InstructionSelection21setQmlContextPropertyEPNS_2IR4ExprES4_NS2_6Member10MemberKindEi@Qt_5_PRIVATE_API 5.6.0~beta 1
 (arch=amd64 armhf i386)_ZN3QV43JIT20InstructionSelection22callBuiltinDefineArrayEPNS_2IR4ExprEPNS2_8ExprListE@Qt_5_PRIVATE_API 5.4.0 1
 (arch=amd64 armhf i386)_ZN3QV43JIT20InstructionSelection22callBuiltinDeleteValueEPNS_2IR4ExprE@Qt_5_PRIVATE_API 5.4.0 1
 (arch=amd64 armhf i386)_ZN3QV43JIT20InstructionSelection22callBuiltinTypeofValueEPNS_2IR4ExprES4_@Qt_5_PRIVATE_API 5.4.0 1
 (arch=amd64 armhf i386)_ZN3QV43JIT20InstructionSelection22callQmlContextPropertyEPNS_2IR4ExprENS2_6Member10MemberKindEiPNS2_8ExprListES4_@Qt_5_PRIVATE_API 5.6.0~beta 1
 (arch=amd64 armhf i386)_ZN3QV43JIT20InstructionSelection22loadQmlImportedScriptsEPNS_2IR4ExprE@Qt_5_PRIVATE_API 5.4.0 1
 (arch=amd64 armhf i386)_ZN3QV43JIT20InstructionSelection23callBuiltinDeleteMemberEPNS_2IR4ExprERK7QStringS4_@Qt_5_PRIVATE_API 5.4.0 1
 (arch=amd64 armhf i386)_ZN3QV43JIT20InstructionSelection23callBuiltinTypeofMemberEPNS_2IR4ExprERK7QStringS4_@Qt_5_PRIVATE_API 5.4.0 1
 (arch=amd64 armhf i386)_ZN3QV43JIT20InstructionSelection23visitCJumpNullUndefinedENS_2IR4TypeEPNS2_5BinopEPNS2_10BasicBlockES7_@Qt_5_PRIVATE_API 5.3.0 1
 (arch=amd64 armhf i386)_ZN3QV43JIT20InstructionSelection24calculateRegistersToSaveERK7QVectorINS0_12RegisterInfoEE@Qt_5_PRIVATE_API 5.4.0 1
 (arch=amd64 armhf i386)_ZN3QV43JIT20InstructionSelection24callBuiltinPushWithScopeEPNS_2IR4ExprE@Qt_5_PRIVATE_API 5.4.0 1
 (arch=amd64 armhf i386)_ZN3QV43JIT20InstructionSelection24prepareVariableArgumentsEPNS_2IR8ExprListE@Qt_5_PRIVATE_API 5.3.0 1
 (arch=amd64 armhf i386)_ZN3QV43JIT20InstructionSelection25callBuiltinPushCatchScopeERK7QString@Qt_5_PRIVATE_API 5.3.0 1
 (arch=amd64 armhf i386)_ZN3QV43JIT20InstructionSelection26callBuiltinDeleteSubscriptEPNS_2IR4ExprES4_S4_@Qt_5_PRIVATE_API 5.4.0 1
 (arch=amd64 armhf i386)_ZN3QV43JIT20InstructionSelection26callBuiltinTypeofSubscriptEPNS_2IR4ExprES4_S4_@Qt_5_PRIVATE_API 5.4.0 1
 (arch=amd64 armhf i386)_ZN3QV43JIT20InstructionSelection26callBuiltinUnwindExceptionEPNS_2IR4ExprE@Qt_5_PRIVATE_API 5.4.0 1
 (arch=amd64 armhf i386)_ZN3QV43JIT20InstructionSelection27constructActivationPropertyEPNS_2IR4NameEPNS2_8ExprListEPNS2_4ExprE@Qt_5_PRIVATE_API 5.4.0 1
 (arch=amd64 armhf i386)_ZN3QV43JIT20InstructionSelection29visitCJumpStrictNullUndefinedENS_2IR4TypeEPNS2_5BinopEPNS2_10BasicBlockES7_@Qt_5_PRIVATE_API 5.3.0 1
 (arch=amd64 armhf i386)_ZN3QV43JIT20InstructionSelection30callBuiltinConvertThisToObjectEv@Qt_5_PRIVATE_API 5.3.0 1
 (arch=amd64 armhf i386)_ZN3QV43JIT20InstructionSelection30callBuiltinDefineObjectLiteralEPNS_2IR4ExprEiPNS2_8ExprListES6_b@Qt_5_PRIVATE_API 5.4.0 1
 (arch=amd64 armhf i386)_ZN3QV43JIT20InstructionSelection30callBuiltinSetupArgumentObjectEPNS_2IR4ExprE@Qt_5_PRIVATE_API 5.4.0 1
 (arch=amd64 armhf i386)_ZN3QV43JIT20InstructionSelection32callBuiltinForeachIteratorObjectEPNS_2IR4ExprES4_@Qt_5_PRIVATE_API 5.4.0 1
 (arch=amd64 armhf i386)_ZN3QV43JIT20InstructionSelection34callBuiltinForeachNextPropertynameEPNS_2IR4ExprES4_@Qt_5_PRIVATE_API 5.4.0 1
 (arch=amd64 armhf i386)_ZN3QV43JIT20InstructionSelection35callBuiltinTypeofQmlContextPropertyEPNS_2IR4ExprENS2_6Member10MemberKindEiS4_@Qt_5_PRIVATE_API 5.6.0~beta 1
 (arch=amd64 armhf i386)_ZN3QV43JIT20InstructionSelection3runEi@Qt_5_PRIVATE_API 5.3.0 1
 (arch=amd64 armhf i386)_ZN3QV43JIT20InstructionSelection4unopENS_2IR5AluOpEPNS2_4ExprES5_@Qt_5_PRIVATE_API 5.4.0 1
 (arch=amd64 armhf i386)_ZN3QV43JIT20InstructionSelection5binopENS_2IR5AluOpEPNS2_4ExprES5_S5_@Qt_5_PRIVATE_API 5.4.0 1
 (arch=amd64 armhf i386)_ZN3QV43JIT20InstructionSelection8visitRetEPNS_2IR3RetE@Qt_5_PRIVATE_API 5.3.0 1
 (arch=amd64 armhf i386)_ZN3QV43JIT20InstructionSelection9callValueEPNS_2IR4ExprEPNS2_8ExprListES4_@Qt_5_PRIVATE_API 5.4.0 1
 (arch=amd64 armhf i386)_ZN3QV43JIT20InstructionSelection9copyValueEPNS_2IR4ExprES4_@Qt_5_PRIVATE_API 5.4.0 1
 (arch=amd64 armhf i386)_ZN3QV43JIT20InstructionSelection9loadConstEPNS_2IR5ConstEPNS2_4ExprE@Qt_5_PRIVATE_API 5.4.0 1
 (arch=amd64 armhf i386)_ZN3QV43JIT20InstructionSelection9visitJumpEPNS_2IR4JumpE@Qt_5_PRIVATE_API 5.3.0 1
 (arch=amd64 armhf i386)_ZN3QV43JIT20InstructionSelectionC1EP17QQmlEnginePrivatePNS_19ExecutableAllocatorEPNS_2IR6ModuleEPNS_8Compiler15JSUnitGeneratorE@Qt_5_PRIVATE_API 5.3.0 1
 (arch=amd64 armhf i386)_ZN3QV43JIT20InstructionSelectionC2EP17QQmlEnginePrivatePNS_19ExecutableAllocatorEPNS_2IR6ModuleEPNS_8Compiler15JSUnitGeneratorE@Qt_5_PRIVATE_API 5.3.0 1
 (optional=gccinternal|arch=amd64 armhf i386)_ZN3QV43JIT20InstructionSelectionD0Ev@Qt_5_PRIVATE_API 5.3.0 1
 (optional=gccinternal|arch=amd64 armhf i386)_ZN3QV43JIT20InstructionSelectionD1Ev@Qt_5_PRIVATE_API 5.3.0 1
 (optional=gccinternal|arch=amd64 armhf i386)_ZN3QV43JIT20InstructionSelectionD2Ev@Qt_5_PRIVATE_API 5.3.0 1
 _ZN3QV44Heap11ArrayBufferC1ERK10QByteArray@Qt_5_PRIVATE_API 5.6.0~beta 1
 (subst)_ZN3QV44Heap11ArrayBufferC1E{size_t}@Qt_5_PRIVATE_API 5.6.0~beta 1
 _ZN3QV44Heap11ArrayBufferC2ERK10QByteArray@Qt_5_PRIVATE_API 5.6.0~beta 1
 (subst)_ZN3QV44Heap11ArrayBufferC2E{size_t}@Qt_5_PRIVATE_API 5.6.0~beta 1
 _ZN3QV44Heap11ArrayBufferD1Ev@Qt_5_PRIVATE_API 5.5.0 1
 _ZN3QV44Heap11ArrayBufferD2Ev@Qt_5_PRIVATE_API 5.5.0 1
 _ZN3QV44Heap14FunctionObjectC1EPNS0_16ExecutionContextERK7QStringb@Qt_5_PRIVATE_API 5.5.0 1
 _ZN3QV44Heap14FunctionObjectC1EPNS0_16ExecutionContextEy@Qt_5_PRIVATE_API 5.5.0 1
 _ZN3QV44Heap14FunctionObjectC1EPNS_16ExecutionContextEPNS_6StringEb@Qt_5_PRIVATE_API 5.5.0 1
 _ZN3QV44Heap14FunctionObjectC1EPNS_16ExecutionContextEPNS_8FunctionEb@Qt_5_PRIVATE_API 5.5.0 1
 _ZN3QV44Heap14FunctionObjectC1EPNS_16ExecutionContextERK7QStringb@Qt_5_PRIVATE_API 5.5.0 1
 _ZN3QV44Heap14FunctionObjectC1EPNS_16ExecutionContextEy@Qt_5_PRIVATE_API 5.5.0 1
 _ZN3QV44Heap14FunctionObjectC1Ev@Qt_5_PRIVATE_API 5.6.0~beta 1
 _ZN3QV44Heap14FunctionObjectC2EPNS0_16ExecutionContextERK7QStringb@Qt_5_PRIVATE_API 5.5.0 1
 _ZN3QV44Heap14FunctionObjectC2EPNS0_16ExecutionContextEy@Qt_5_PRIVATE_API 5.5.0 1
 _ZN3QV44Heap14FunctionObjectC2EPNS_16ExecutionContextEPNS_6StringEb@Qt_5_PRIVATE_API 5.5.0 1
 _ZN3QV44Heap14FunctionObjectC2EPNS_16ExecutionContextEPNS_8FunctionEb@Qt_5_PRIVATE_API 5.5.0 1
 _ZN3QV44Heap14FunctionObjectC2EPNS_16ExecutionContextERK7QStringb@Qt_5_PRIVATE_API 5.5.0 1
 _ZN3QV44Heap14FunctionObjectC2EPNS_16ExecutionContextEy@Qt_5_PRIVATE_API 5.5.0 1
 _ZN3QV44Heap14FunctionObjectC2Ev@Qt_5_PRIVATE_API 5.6.0~beta 1
 _ZN3QV44Heap14FunctionObjectD1Ev@Qt_5_PRIVATE_API 5.5.0 1
 _ZN3QV44Heap14FunctionObjectD2Ev@Qt_5_PRIVATE_API 5.5.0 1
 _ZN3QV44Heap15BuiltinFunctionC1EPNS_16ExecutionContextEPNS_6StringEPFyPNS_11CallContextEE@Qt_5_PRIVATE_API 5.5.0 1
 _ZN3QV44Heap15BuiltinFunctionC2EPNS_16ExecutionContextEPNS_6StringEPFyPNS_11CallContextEE@Qt_5_PRIVATE_API 5.5.0 1
 _ZN3QV44Heap6String6appendEPKS1_P5QChar@Qt_5_PRIVATE_API 5.5.0 1
 _ZN3QV44Heap6StringC1EPNS_13MemoryManagerEPS1_S4_@Qt_5_PRIVATE_API 5.5.1 1
 _ZN3QV44Heap6StringC1EPNS_13MemoryManagerERK7QString@Qt_5_PRIVATE_API 5.5.1 1
 _ZN3QV44Heap6StringC2EPNS_13MemoryManagerEPS1_S4_@Qt_5_PRIVATE_API 5.5.1 1
 _ZN3QV44Heap6StringC2EPNS_13MemoryManagerERK7QString@Qt_5_PRIVATE_API 5.5.1 1
 _ZN3QV44Moth20InstructionSelection10getElementEPNS_2IR4ExprES4_S4_@Qt_5_PRIVATE_API 5.4.0 1
 _ZN3QV44Moth20InstructionSelection10loadRegexpEPNS_2IR6RegExpEPNS2_4ExprE@Qt_5_PRIVATE_API 5.4.0 1
 _ZN3QV44Moth20InstructionSelection10loadStringERK7QStringPNS_2IR4ExprE@Qt_5_PRIVATE_API 5.4.0 1
 _ZN3QV44Moth20InstructionSelection10setElementEPNS_2IR4ExprES4_S4_@Qt_5_PRIVATE_API 5.3.0 1
 _ZN3QV44Moth20InstructionSelection10swapValuesEPNS_2IR4ExprES4_@Qt_5_PRIVATE_API 5.4.0 1
 _ZN3QV44Moth20InstructionSelection10visitCJumpEPNS_2IR5CJumpE@Qt_5_PRIVATE_API 5.3.0 1
 _ZN3QV44Moth20InstructionSelection11binopHelperENS_2IR5AluOpEPNS2_4ExprES5_S5_@Qt_5_PRIVATE_API 5.4.0 1
 _ZN3QV44Moth20InstructionSelection11convertTypeEPNS_2IR4ExprES4_@Qt_5_PRIVATE_API 5.4.0 1
 _ZN3QV44Moth20InstructionSelection11getPropertyEPNS_2IR4ExprERK7QStringS4_@Qt_5_PRIVATE_API 5.4.0 1
 _ZN3QV44Moth20InstructionSelection11initClosureEPNS_2IR7ClosureEPNS2_4ExprE@Qt_5_PRIVATE_API 5.4.0 1
 _ZN3QV44Moth20InstructionSelection11setPropertyEPNS_2IR4ExprES4_RK7QString@Qt_5_PRIVATE_API 5.3.0 1
 _ZN3QV44Moth20InstructionSelection12callPropertyEPNS_2IR4ExprERK7QStringPNS2_8ExprListES4_@Qt_5_PRIVATE_API 5.4.0 1
 _ZN3QV44Moth20InstructionSelection13callSubscriptEPNS_2IR4ExprES4_PNS2_8ExprListES4_@Qt_5_PRIVATE_API 5.4.0 1
 _ZN3QV44Moth20InstructionSelection14constructValueEPNS_2IR4ExprEPNS2_8ExprListES4_@Qt_5_PRIVATE_API 5.4.0 1
 _ZN3QV44Moth20InstructionSelection14loadQmlContextEPNS_2IR4ExprE@Qt_5_PRIVATE_API 5.6.0~beta 1
 _ZN3QV44Moth20InstructionSelection14loadThisObjectEPNS_2IR4ExprE@Qt_5_PRIVATE_API 5.4.0 1
 _ZN3QV44Moth20InstructionSelection15prepareCallArgsEPNS_2IR8ExprListERjPj@Qt_5_PRIVATE_API 5.3.0 1
 _ZN3QV44Moth20InstructionSelection16callBuiltinThrowEPNS_2IR4ExprE@Qt_5_PRIVATE_API 5.3.0 1
 _ZN3QV44Moth20InstructionSelection16loadQmlSingletonERK7QStringPNS_2IR4ExprE@Qt_5_PRIVATE_API 5.4.0 1
 _ZN3QV44Moth20InstructionSelection17constructPropertyEPNS_2IR4ExprERK7QStringPNS2_8ExprListES4_@Qt_5_PRIVATE_API 5.4.0 1
 _ZN3QV44Moth20InstructionSelection18backendCompileStepEv@Qt_5_PRIVATE_API 5.3.0 1
 _ZN3QV44Moth20InstructionSelection18callBuiltinInvalidEPNS_2IR4NameEPNS2_8ExprListEPNS2_4ExprE@Qt_5_PRIVATE_API 5.4.0 1
 _ZN3QV44Moth20InstructionSelection18callBuiltinReThrowEv@Qt_5_PRIVATE_API 5.3.0 1
 _ZN3QV44Moth20InstructionSelection18getQObjectPropertyEPNS_2IR4ExprEibbiS4_@Qt_5_PRIVATE_API 5.4.0 1
 _ZN3QV44Moth20InstructionSelection18patchJumpAddressesEv@Qt_5_PRIVATE_API 5.3.0 1
 _ZN3QV44Moth20InstructionSelection18setQObjectPropertyEPNS_2IR4ExprES4_i@Qt_5_PRIVATE_API 5.3.0 1
 _ZN3QV44Moth20InstructionSelection19callBuiltinPopScopeEv@Qt_5_PRIVATE_API 5.3.0 1
 _ZN3QV44Moth20InstructionSelection20addInstructionHelperENS0_5Instr4TypeERS2_@Qt_5_PRIVATE_API 5.3.0 1
 _ZN3QV44Moth20InstructionSelection21callBuiltinDeclareVarEbRK7QString@Qt_5_PRIVATE_API 5.3.0 1
 _ZN3QV44Moth20InstructionSelection21callBuiltinDeleteNameERK7QStringPNS_2IR4ExprE@Qt_5_PRIVATE_API 5.4.0 1
 _ZN3QV44Moth20InstructionSelection21callBuiltinTypeofNameERK7QStringPNS_2IR4ExprE@Qt_5_PRIVATE_API 5.4.0 1
 _ZN3QV44Moth20InstructionSelection21getActivationPropertyEPKNS_2IR4NameEPNS2_4ExprE@Qt_5_PRIVATE_API 5.4.0 1
 _ZN3QV44Moth20InstructionSelection21getQmlContextPropertyEPNS_2IR4ExprENS2_6Member10MemberKindEiS4_@Qt_5_PRIVATE_API 5.6.0~beta 1
 _ZN3QV44Moth20InstructionSelection21setActivationPropertyEPNS_2IR4ExprERK7QString@Qt_5_PRIVATE_API 5.3.0 1
 _ZN3QV44Moth20InstructionSelection21setQmlContextPropertyEPNS_2IR4ExprES4_NS2_6Member10MemberKindEi@Qt_5_PRIVATE_API 5.6.0~beta 1
 _ZN3QV44Moth20InstructionSelection22callBuiltinDefineArrayEPNS_2IR4ExprEPNS2_8ExprListE@Qt_5_PRIVATE_API 5.4.0 1
 _ZN3QV44Moth20InstructionSelection22callBuiltinDeleteValueEPNS_2IR4ExprE@Qt_5_PRIVATE_API 5.4.0 1
 _ZN3QV44Moth20InstructionSelection22callBuiltinTypeofValueEPNS_2IR4ExprES4_@Qt_5_PRIVATE_API 5.4.0 1
 _ZN3QV44Moth20InstructionSelection22callQmlContextPropertyEPNS_2IR4ExprENS2_6Member10MemberKindEiPNS2_8ExprListES4_@Qt_5_PRIVATE_API 5.6.0~beta 1
 _ZN3QV44Moth20InstructionSelection22loadQmlImportedScriptsEPNS_2IR4ExprE@Qt_5_PRIVATE_API 5.4.0 1
 _ZN3QV44Moth20InstructionSelection23callBuiltinDeleteMemberEPNS_2IR4ExprERK7QStringS4_@Qt_5_PRIVATE_API 5.4.0 1
 _ZN3QV44Moth20InstructionSelection23callBuiltinTypeofMemberEPNS_2IR4ExprERK7QStringS4_@Qt_5_PRIVATE_API 5.4.0 1
 _ZN3QV44Moth20InstructionSelection24callBuiltinPushWithScopeEPNS_2IR4ExprE@Qt_5_PRIVATE_API 5.4.0 1
 _ZN3QV44Moth20InstructionSelection25callBuiltinPushCatchScopeERK7QString@Qt_5_PRIVATE_API 5.3.0 1
 _ZN3QV44Moth20InstructionSelection26callBuiltinDeleteSubscriptEPNS_2IR4ExprES4_S4_@Qt_5_PRIVATE_API 5.4.0 1
 _ZN3QV44Moth20InstructionSelection26callBuiltinTypeofSubscriptEPNS_2IR4ExprES4_S4_@Qt_5_PRIVATE_API 5.4.0 1
 _ZN3QV44Moth20InstructionSelection26callBuiltinUnwindExceptionEPNS_2IR4ExprE@Qt_5_PRIVATE_API 5.4.0 1
 _ZN3QV44Moth20InstructionSelection27constructActivationPropertyEPNS_2IR4NameEPNS2_8ExprListEPNS2_4ExprE@Qt_5_PRIVATE_API 5.4.0 1
 _ZN3QV44Moth20InstructionSelection30callBuiltinConvertThisToObjectEv@Qt_5_PRIVATE_API 5.3.0 1
 _ZN3QV44Moth20InstructionSelection30callBuiltinDefineObjectLiteralEPNS_2IR4ExprEiPNS2_8ExprListES6_b@Qt_5_PRIVATE_API 5.4.0 1
 _ZN3QV44Moth20InstructionSelection30callBuiltinSetupArgumentObjectEPNS_2IR4ExprE@Qt_5_PRIVATE_API 5.4.0 1
 _ZN3QV44Moth20InstructionSelection32callBuiltinForeachIteratorObjectEPNS_2IR4ExprES4_@Qt_5_PRIVATE_API 5.4.0 1
 _ZN3QV44Moth20InstructionSelection34callBuiltinForeachNextPropertynameEPNS_2IR4ExprES4_@Qt_5_PRIVATE_API 5.4.0 1
 _ZN3QV44Moth20InstructionSelection35callBuiltinTypeofQmlContextPropertyEPNS_2IR4ExprENS2_6Member10MemberKindEiS4_@Qt_5_PRIVATE_API 5.6.0~beta 1
 _ZN3QV44Moth20InstructionSelection3runEi@Qt_5_PRIVATE_API 5.3.0 1
 _ZN3QV44Moth20InstructionSelection4unopENS_2IR5AluOpEPNS2_4ExprES5_@Qt_5_PRIVATE_API 5.4.0 1
 _ZN3QV44Moth20InstructionSelection5binopENS_2IR5AluOpEPNS2_4ExprES5_S5_@Qt_5_PRIVATE_API 5.4.0 1
 _ZN3QV44Moth20InstructionSelection8getParamEPNS_2IR4ExprE@Qt_5_PRIVATE_API 5.3.0 1
 _ZN3QV44Moth20InstructionSelection8visitRetEPNS_2IR3RetE@Qt_5_PRIVATE_API 5.3.0 1
 _ZN3QV44Moth20InstructionSelection9callValueEPNS_2IR4ExprEPNS2_8ExprListES4_@Qt_5_PRIVATE_API 5.4.0 1
 _ZN3QV44Moth20InstructionSelection9copyValueEPNS_2IR4ExprES4_@Qt_5_PRIVATE_API 5.4.0 1
 _ZN3QV44Moth20InstructionSelection9loadConstEPNS_2IR5ConstEPNS2_4ExprE@Qt_5_PRIVATE_API 5.4.0 1
 _ZN3QV44Moth20InstructionSelection9visitJumpEPNS_2IR4JumpE@Qt_5_PRIVATE_API 5.3.0 1
 _ZN3QV44Moth20InstructionSelectionC1EP17QQmlEnginePrivatePNS_19ExecutableAllocatorEPNS_2IR6ModuleEPNS_8Compiler15JSUnitGeneratorE@Qt_5_PRIVATE_API 5.3.0 1
 _ZN3QV44Moth20InstructionSelectionC2EP17QQmlEnginePrivatePNS_19ExecutableAllocatorEPNS_2IR6ModuleEPNS_8Compiler15JSUnitGeneratorE@Qt_5_PRIVATE_API 5.3.0 1
 _ZN3QV44Moth20InstructionSelectionD0Ev@Qt_5_PRIVATE_API 5.3.0 1
 _ZN3QV44Moth20InstructionSelectionD1Ev@Qt_5_PRIVATE_API 5.3.0 1
 _ZN3QV44Moth20InstructionSelectionD2Ev@Qt_5_PRIVATE_API 5.3.0 1
 _ZN3QV46Object10getIndexedEPKNS_7ManagedEjPb@Qt_5_PRIVATE_API 5.6.0~beta 1
 _ZN3QV46Object10putIndexedEPNS_7ManagedEjRKNS_5ValueE@Qt_5_PRIVATE_API 5.5.0 1
 _ZN3QV46Object11internalPutEPNS_6StringERKNS_5ValueE@Qt_5_PRIVATE_API 5.5.0 1
 _ZN3QV46Object11markObjectsEPNS_4Heap4BaseEPNS_15ExecutionEngineE@Qt_5_PRIVATE_API 5.5.0 1
 _ZN3QV46Object11setPropertyEjPKNS_8PropertyE@Qt_5_PRIVATE_API 5.6.0~beta 1
 _ZN3QV46Object11static_vtblE@Qt_5_PRIVATE_API 5.2.0~beta1 1
 _ZN3QV46Object12insertMemberEPNS_6StringEPKNS_8PropertyENS_18PropertyAttributesE@Qt_5_PRIVATE_API 5.5.0 1
 _ZN3QV46Object12queryIndexedEPKNS_7ManagedEj@Qt_5_PRIVATE_API 5.2.0~beta1 1
 _ZN3QV46Object12setPrototypeEPS0_@Qt_5_PRIVATE_API 5.2.0~beta1 1
 _ZN3QV46Object13copyArrayDataEPS0_@Qt_5_PRIVATE_API 5.2.0~beta1 1
 _ZN3QV46Object14deletePropertyEPNS_7ManagedEPNS_6StringE@Qt_5_PRIVATE_API 5.4.0 1
 _ZN3QV46Object14getOwnPropertyEPNS_6StringEPNS_18PropertyAttributesEPNS_8PropertyE@Qt_5_PRIVATE_API 5.6.0~beta 1
 _ZN3QV46Object14getOwnPropertyEjPNS_18PropertyAttributesEPNS_8PropertyE@Qt_5_PRIVATE_API 5.6.0~beta 1
 _ZN3QV46Object14setArrayLengthEj@Qt_5_PRIVATE_API 5.2.0~beta1 1
 _ZN3QV46Object15advanceIteratorEPNS_7ManagedEPNS_14ObjectIteratorEPNS_5ValueEPjPNS_8PropertyEPNS_18PropertyAttributesE@Qt_5_PRIVATE_API 5.6.0~beta 1
 _ZN3QV46Object15initSparseArrayEv@Qt_5_PRIVATE_API 5.3.0 1
 _ZN3QV46Object16ensureMemberDataEv@Qt_5_PRIVATE_API 5.6.0~beta 1
 _ZN3QV46Object16getValueOrSetterEPNS_6StringEPNS_18PropertyAttributesE@Qt_5_PRIVATE_API 5.6.0~beta 1
 _ZN3QV46Object16getValueOrSetterEjPNS_18PropertyAttributesE@Qt_5_PRIVATE_API 5.6.0~beta 1
 _ZN3QV46Object16setInternalClassEPNS_13InternalClassE@Qt_5_PRIVATE_API 5.6.0~beta 1
 _ZN3QV46Object18defineOwnProperty2EPNS_15ExecutionEngineEjPKNS_8PropertyENS_18PropertyAttributesE@Qt_5_PRIVATE_API 5.5.0 1
 _ZN3QV46Object18internalPutIndexedEjRKNS_5ValueE@Qt_5_PRIVATE_API 5.5.0 1
 _ZN3QV46Object21__defineOwnProperty__EPNS_15ExecutionEngineEPNS_6StringEPKNS_8PropertyENS_18PropertyAttributesE@Qt_5_PRIVATE_API 5.5.0 1
 _ZN3QV46Object21__defineOwnProperty__EPNS_15ExecutionEngineERK7QStringPKNS_8PropertyENS_18PropertyAttributesE@Qt_5_PRIVATE_API 5.5.0 1
 _ZN3QV46Object21__defineOwnProperty__EPNS_15ExecutionEngineEjPKNS_8PropertyENS_18PropertyAttributesE@Qt_5_PRIVATE_API 5.5.0 1
 _ZN3QV46Object21__defineOwnProperty__EPNS_15ExecutionEngineEjPNS_6StringEPKNS_8PropertyENS_18PropertyAttributesE@Qt_5_PRIVATE_API 5.5.0 1
 _ZN3QV46Object21defineDefaultPropertyEPNS_6StringEPFyPNS_11CallContextEEi@Qt_5_PRIVATE_API 5.4.0 1
 _ZN3QV46Object21defineDefaultPropertyERK7QStringPFyPNS_11CallContextEEi@Qt_5_PRIVATE_API 5.2.0~rc1 1
 _ZN3QV46Object21defineDefaultPropertyERK7QStringRKNS_5ValueE@Qt_5_PRIVATE_API 5.5.0 1
 _ZN3QV46Object21deleteIndexedPropertyEPNS_7ManagedEj@Qt_5_PRIVATE_API 5.2.0~beta1 1
 _ZN3QV46Object22defineAccessorPropertyEPNS_6StringEPFyPNS_11CallContextEES6_@Qt_5_PRIVATE_API 5.4.0 1
 _ZN3QV46Object22defineAccessorPropertyERK7QStringPFyPNS_11CallContextEES7_@Qt_5_PRIVATE_API 5.2.0~rc1 1
 _ZN3QV46Object22defineReadonlyPropertyEPNS_6StringERKNS_5ValueE@Qt_5_PRIVATE_API 5.5.0 1
 _ZN3QV46Object22defineReadonlyPropertyERK7QStringRKNS_5ValueE@Qt_5_PRIVATE_API 5.5.0 1
 _ZN3QV46Object22internalDeletePropertyEPNS_6StringE@Qt_5_PRIVATE_API 5.4.0 1
 (arch=!amd64 !i386 !kfreebsd-amd64 !kfreebsd-i386)_ZN3QV46Object23setArrayLengthUncheckedEj@Qt_5_PRIVATE_API 5.6.0~beta 1
 _ZN3QV46Object29internalDeleteIndexedPropertyEj@Qt_5_PRIVATE_API 5.2.0~beta1 1
 _ZN3QV46Object3getEPKNS_7ManagedEPNS_6StringEPb@Qt_5_PRIVATE_API 5.6.0~beta 1
 _ZN3QV46Object3putEPNS_15ExecutionEngineERK7QStringRKNS_5ValueE@Qt_5_PRIVATE_API 5.5.0 1
 _ZN3QV46Object3putEPNS_7ManagedEPNS_6StringERKNS_5ValueE@Qt_5_PRIVATE_API 5.5.0 1
 _ZN3QV46Object4callEPKNS_7ManagedEPNS_8CallDataE@Qt_5_PRIVATE_API 5.6.0~beta 1
 _ZN3QV46Object5queryEPKNS_7ManagedEPNS_6StringE@Qt_5_PRIVATE_API 5.4.0 1
 _ZN3QV46Object8getValueERKNS_5ValueES3_NS_18PropertyAttributesE@Qt_5_PRIVATE_API 5.6.0~beta 1
 _ZN3QV46Object8putValueEjRKNS_5ValueE@Qt_5_PRIVATE_API 5.6.0~beta 1
 _ZN3QV46Object9constructEPKNS_7ManagedEPNS_8CallDataE@Qt_5_PRIVATE_API 5.6.0~beta 1
 _ZN3QV46Object9getLengthEPKNS_7ManagedE@Qt_5_PRIVATE_API 5.3.0 1
 _ZN3QV46Object9getLookupEPKNS_7ManagedEPNS_6LookupE@Qt_5_PRIVATE_API 5.6.0~beta 1
 _ZN3QV46Object9push_backERKNS_5ValueE@Qt_5_PRIVATE_API 5.5.0 1
 _ZN3QV46Object9setLookupEPNS_7ManagedEPNS_6LookupERKNS_5ValueE@Qt_5_PRIVATE_API 5.5.0 1
 _ZN3QV46Script10precompileEPNS_2IR6ModuleEPNS_8Compiler15JSUnitGeneratorEPNS_15ExecutionEngineERK4QUrlRK7QStringP5QListI9QQmlErrorEPN6QQmlJS10DirectivesE@Qt_5_PRIVATE_API 5.5.0 1
 _ZN3QV46Script10qmlBindingEv@Qt_5_PRIVATE_API 5.2.0~beta1 1
 _ZN3QV46Script3runEv@Qt_5_PRIVATE_API 5.2.0~beta1 1
 _ZN3QV46Script5parseEv@Qt_5_PRIVATE_API 5.2.0~beta1 1
 _ZN3QV46Script8evaluateEPNS_15ExecutionEngineERK7QStringPNS_10QmlContextE@Qt_5_PRIVATE_API 5.6.0~beta 1
 _ZN3QV46Script8functionEv@Qt_5_PRIVATE_API 5.2.0~beta1 1
 _ZN3QV46ScriptC1EPNS_15ExecutionEngineEPNS_10QmlContextEPNS_12CompiledData15CompilationUnitE@Qt_5_PRIVATE_API 5.6.0~beta 1
 _ZN3QV46ScriptC2EPNS_15ExecutionEngineEPNS_10QmlContextEPNS_12CompiledData15CompilationUnitE@Qt_5_PRIVATE_API 5.6.0~beta 1
 _ZN3QV46ScriptD1Ev@Qt_5_PRIVATE_API 5.2.0~beta1 1
 _ZN3QV46ScriptD2Ev@Qt_5_PRIVATE_API 5.2.0~beta1 1
 _ZN3QV46String11markObjectsEPNS_4Heap4BaseEPNS_15ExecutionEngineE@Qt_5_PRIVATE_API 5.5.0 1
 _ZN3QV46String11static_vtblE@Qt_5_PRIVATE_API 5.2.0~beta1 1
 _ZN3QV46String12toArrayIndexERK7QString@Qt_5_PRIVATE_API 5.2.1 1
 _ZN3QV46String15createHashValueEPK5QChari@Qt_5_PRIVATE_API 5.2.0~beta1 1
 _ZN3QV46String15createHashValueEPKci@Qt_5_PRIVATE_API 5.2.0~beta1 1
 _ZN3QV46String9getLengthEPKNS_7ManagedE@Qt_5_PRIVATE_API 5.3.0 1
 _ZN3QV46String9isEqualToEPNS_7ManagedES2_@Qt_5_PRIVATE_API 5.2.0~beta1 1
 _ZN3QV47Managed11static_vtblE@Qt_5_PRIVATE_API 5.2.0~beta1 1
 _ZN3QV47Managed9isEqualToEPS0_S1_@Qt_5_PRIVATE_API 5.2.0~beta1 1
 (arch=amd64 armhf i386)_ZN3QV47Runtime10complementERKNS_5ValueE@Qt_5_PRIVATE_API 5.5.0 1
 _ZN3QV47Runtime10declareVarEPNS_15ExecutionEngineEbi@Qt_5_PRIVATE_API 5.5.0 1
 _ZN3QV47Runtime10deleteNameEPNS_15ExecutionEngineEi@Qt_5_PRIVATE_API 5.5.0 1
 _ZN3QV47Runtime10getElementEPNS_15ExecutionEngineERKNS_5ValueES5_@Qt_5_PRIVATE_API 5.5.0 1
 _ZN3QV47Runtime10instanceofEPNS_15ExecutionEngineERKNS_5ValueES5_@Qt_5_PRIVATE_API 5.5.0 1
 _ZN3QV47Runtime10setElementEPNS_15ExecutionEngineERKNS_5ValueES5_S5_@Qt_5_PRIVATE_API 5.5.0 1
 _ZN3QV47Runtime10typeofNameEPNS_15ExecutionEngineEi@Qt_5_PRIVATE_API 5.5.0 1
 _ZN3QV47Runtime11callElementEPNS_15ExecutionEngineERKNS_5ValueEPNS_8CallDataE@Qt_5_PRIVATE_API 5.5.0 1
 _ZN3QV47Runtime11doubleToIntERKd@Qt_5_PRIVATE_API 5.3.0 1
 _ZN3QV47Runtime11getPropertyEPNS_15ExecutionEngineERKNS_5ValueEi@Qt_5_PRIVATE_API 5.5.0 1
 _ZN3QV47Runtime11greaterThanERKNS_5ValueES3_@Qt_5_PRIVATE_API 5.5.0 1
 _ZN3QV47Runtime11setPropertyEPNS_15ExecutionEngineERKNS_5ValueEiS5_@Qt_5_PRIVATE_API 5.5.0 1
 _ZN3QV47Runtime11strictEqualERKNS_5ValueES3_@Qt_5_PRIVATE_API 5.5.0 1
 _ZN3QV47Runtime11typeofValueEPNS_15ExecutionEngineERKNS_5ValueE@Qt_5_PRIVATE_API 5.5.0 1
 _ZN3QV47Runtime12arrayLiteralEPNS_15ExecutionEngineEPNS_5ValueEj@Qt_5_PRIVATE_API 5.5.0 1
 _ZN3QV47Runtime12callPropertyEPNS_15ExecutionEngineEiPNS_8CallDataE@Qt_5_PRIVATE_API 5.5.0 1
 _ZN3QV47Runtime12compareEqualERKNS_5ValueES3_@Qt_5_PRIVATE_API 5.5.0 1
 _ZN3QV47Runtime12deleteMemberEPNS_15ExecutionEngineERKNS_5ValueEi@Qt_5_PRIVATE_API 5.5.0 1
 _ZN3QV47Runtime12doubleToUIntERKd@Qt_5_PRIVATE_API 5.3.0 1
 _ZN3QV47Runtime12greaterEqualERKNS_5ValueES3_@Qt_5_PRIVATE_API 5.5.0 1
 _ZN3QV47Runtime12typeofMemberEPNS_15ExecutionEngineERKNS_5ValueEi@Qt_5_PRIVATE_API 5.5.0 1
 _ZN3QV47Runtime13deleteElementEPNS_15ExecutionEngineERKNS_5ValueES5_@Qt_5_PRIVATE_API 5.5.0 1
 _ZN3QV47Runtime13getQmlContextEPNS_13NoThrowEngineE@Qt_5_PRIVATE_API 5.6.0~beta 1
 _ZN3QV47Runtime13objectLiteralEPNS_15ExecutionEngineEPKNS_5ValueEiii@Qt_5_PRIVATE_API 5.5.0 1
 _ZN3QV47Runtime13pushWithScopeERKNS_5ValueEPNS_15ExecutionEngineE@Qt_5_PRIVATE_API 5.5.0 1
 _ZN3QV47Runtime13regexpLiteralEPNS_15ExecutionEngineEi@Qt_5_PRIVATE_API 5.5.0 1
 _ZN3QV47Runtime13typeofElementEPNS_15ExecutionEngineERKNS_5ValueES5_@Qt_5_PRIVATE_API 5.5.0 1
 _ZN3QV47Runtime14constructValueEPNS_15ExecutionEngineERKNS_5ValueEPNS_8CallDataE@Qt_5_PRIVATE_API 5.5.0 1
 _ZN3QV47Runtime14getQmlIdObjectEPNS_15ExecutionEngineERKNS_5ValueEj@Qt_5_PRIVATE_API 5.6.0~beta 1
 _ZN3QV47Runtime14pushCatchScopeEPNS_13NoThrowEngineEi@Qt_5_PRIVATE_API 5.5.0 1
 _ZN3QV47Runtime14strictNotEqualERKNS_5ValueES3_@Qt_5_PRIVATE_API 5.5.0 1
 _ZN3QV47Runtime14throwExceptionEPNS_15ExecutionEngineERKNS_5ValueE@Qt_5_PRIVATE_API 5.5.0 1
 _ZN3QV47Runtime15compareLessThanERKNS_5ValueES3_@Qt_5_PRIVATE_API 5.5.0 1
 (arch=amd64 armhf i386)_ZN3QV47Runtime15compareNotEqualERKNS_5ValueES3_@Qt_5_PRIVATE_API 5.5.0 1
 _ZN3QV47Runtime15foreachIteratorEPNS_15ExecutionEngineERKNS_5ValueE@Qt_5_PRIVATE_API 5.5.0 1
 _ZN3QV47Runtime15getQmlSingletonEPNS_13NoThrowEngineEi@Qt_5_PRIVATE_API 5.5.0 1
 _ZN3QV47Runtime15unwindExceptionEPNS_15ExecutionEngineE@Qt_5_PRIVATE_API 5.5.0 1
 _ZN3QV47Runtime16callGlobalLookupEPNS_15ExecutionEngineEjPNS_8CallDataE@Qt_5_PRIVATE_API 5.5.0 1
 _ZN3QV47Runtime16compareLessEqualERKNS_5ValueES3_@Qt_5_PRIVATE_API 5.5.0 1
 _ZN3QV47Runtime17compareInstanceofEPNS_15ExecutionEngineERKNS_5ValueES5_@Qt_5_PRIVATE_API 5.5.0 1
 _ZN3QV47Runtime17constructPropertyEPNS_15ExecutionEngineEiPNS_8CallDataE@Qt_5_PRIVATE_API 5.5.0 1
 _ZN3QV47Runtime18callPropertyLookupEPNS_15ExecutionEngineEjPNS_8CallDataE@Qt_5_PRIVATE_API 5.5.0 1
 _ZN3QV47Runtime18compareGreaterThanERKNS_5ValueES3_@Qt_5_PRIVATE_API 5.5.0 1
 (arch=amd64 armhf i386)_ZN3QV47Runtime18compareStrictEqualERKNS_5ValueES3_@Qt_5_PRIVATE_API 5.5.0 1
 _ZN3QV47Runtime18deleteMemberStringEPNS_15ExecutionEngineERKNS_5ValueEPNS_6StringE@Qt_5_PRIVATE_API 5.5.0 1
 _ZN3QV47Runtime19compareGreaterEqualERKNS_5ValueES3_@Qt_5_PRIVATE_API 5.5.0 1
 _ZN3QV47Runtime19convertThisToObjectEPNS_15ExecutionEngineE@Qt_5_PRIVATE_API 5.5.0 1
 _ZN3QV47Runtime20setupArgumentsObjectEPNS_15ExecutionEngineE@Qt_5_PRIVATE_API 5.5.0 1
 (arch=amd64 armhf i386)_ZN3QV47Runtime21compareStrictNotEqualERKNS_5ValueES3_@Qt_5_PRIVATE_API 5.5.0 1
 _ZN3QV47Runtime21constructGlobalLookupEPNS_15ExecutionEngineEjPNS_8CallDataE@Qt_5_PRIVATE_API 5.5.0 1
 _ZN3QV47Runtime21getActivationPropertyEPNS_15ExecutionEngineEi@Qt_5_PRIVATE_API 5.5.0 1
 _ZN3QV47Runtime21getQmlImportedScriptsEPNS_13NoThrowEngineE@Qt_5_PRIVATE_API 5.5.0 1
 _ZN3QV47Runtime21getQmlQObjectPropertyEPNS_15ExecutionEngineERKNS_5ValueEib@Qt_5_PRIVATE_API 5.5.0 1
 _ZN3QV47Runtime21setActivationPropertyEPNS_15ExecutionEngineEiRKNS_5ValueE@Qt_5_PRIVATE_API 5.5.0 1
 _ZN3QV47Runtime21setQmlQObjectPropertyEPNS_15ExecutionEngineERKNS_5ValueEiS5_@Qt_5_PRIVATE_API 5.5.0 1
 _ZN3QV47Runtime22callActivationPropertyEPNS_15ExecutionEngineEiPNS_8CallDataE@Qt_5_PRIVATE_API 5.5.0 1
 _ZN3QV47Runtime22getQmlAttachedPropertyEPNS_15ExecutionEngineEii@Qt_5_PRIVATE_API 5.5.0 1
 _ZN3QV47Runtime23constructPropertyLookupEPNS_15ExecutionEngineEjPNS_8CallDataE@Qt_5_PRIVATE_API 5.5.0 1
 _ZN3QV47Runtime23foreachNextPropertyNameERKNS_5ValueE@Qt_5_PRIVATE_API 5.5.0 1
 _ZN3QV47Runtime25getQmlScopeObjectPropertyEPNS_15ExecutionEngineERKNS_5ValueEi@Qt_5_PRIVATE_API 5.6.0~beta 1
 _ZN3QV47Runtime25setQmlScopeObjectPropertyEPNS_15ExecutionEngineERKNS_5ValueEiS5_@Qt_5_PRIVATE_API 5.6.0~beta 1
 _ZN3QV47Runtime25typeofScopeObjectPropertyEPNS_15ExecutionEngineERKNS_5ValueEi@Qt_5_PRIVATE_API 5.6.0~beta 1
 _ZN3QV47Runtime26callQmlScopeObjectPropertyEPNS_15ExecutionEngineEiPNS_8CallDataE@Qt_5_PRIVATE_API 5.6.0~beta 1
 _ZN3QV47Runtime27constructActivationPropertyEPNS_15ExecutionEngineEiPNS_8CallDataE@Qt_5_PRIVATE_API 5.5.0 1
 _ZN3QV47Runtime27getQmlContextObjectPropertyEPNS_15ExecutionEngineERKNS_5ValueEi@Qt_5_PRIVATE_API 5.6.0~beta 1
 _ZN3QV47Runtime27setQmlContextObjectPropertyEPNS_15ExecutionEngineERKNS_5ValueEiS5_@Qt_5_PRIVATE_API 5.6.0~beta 1
 _ZN3QV47Runtime27typeofContextObjectPropertyEPNS_15ExecutionEngineERKNS_5ValueEi@Qt_5_PRIVATE_API 5.6.0~beta 1
 _ZN3QV47Runtime28callQmlContextObjectPropertyEPNS_15ExecutionEngineEiPNS_8CallDataE@Qt_5_PRIVATE_API 5.6.0~beta 1
 _ZN3QV47Runtime2inEPNS_15ExecutionEngineERKNS_5ValueES5_@Qt_5_PRIVATE_API 5.5.0 1
 _ZN3QV47Runtime30getQmlSingletonQObjectPropertyEPNS_15ExecutionEngineERKNS_5ValueEib@Qt_5_PRIVATE_API 5.5.0 1
 _ZN3QV47Runtime3addEPNS_15ExecutionEngineERKNS_5ValueES5_@Qt_5_PRIVATE_API 5.5.0 1
 _ZN3QV47Runtime3divERKNS_5ValueES3_@Qt_5_PRIVATE_API 5.5.0 1
 _ZN3QV47Runtime3modERKNS_5ValueES3_@Qt_5_PRIVATE_API 5.5.0 1
 _ZN3QV47Runtime3mulERKNS_5ValueES3_@Qt_5_PRIVATE_API 5.5.0 1
 _ZN3QV47Runtime3shlERKNS_5ValueES3_@Qt_5_PRIVATE_API 5.5.0 1
 _ZN3QV47Runtime3shrERKNS_5ValueES3_@Qt_5_PRIVATE_API 5.5.0 1
 _ZN3QV47Runtime3subERKNS_5ValueES3_@Qt_5_PRIVATE_API 5.5.0 1
 (arch=amd64 armhf i386)_ZN3QV47Runtime4uNotERKNS_5ValueE@Qt_5_PRIVATE_API 5.5.0 1
 _ZN3QV47Runtime4ushrERKNS_5ValueES3_@Qt_5_PRIVATE_API 5.5.0 1
 _ZN3QV47Runtime5bitOrERKNS_5ValueES3_@Qt_5_PRIVATE_API 5.5.0 1
 _ZN3QV47Runtime5equalERKNS_5ValueES3_@Qt_5_PRIVATE_API 5.5.0 1
 _ZN3QV47Runtime5toIntERKNS_5ValueE@Qt_5_PRIVATE_API 5.5.0 1
 (arch=amd64 armhf i386)_ZN3QV47Runtime5uPlusERKNS_5ValueE@Qt_5_PRIVATE_API 5.5.0 1
 _ZN3QV47Runtime6bitAndERKNS_5ValueES3_@Qt_5_PRIVATE_API 5.5.0 1
 _ZN3QV47Runtime6bitXorERKNS_5ValueES3_@Qt_5_PRIVATE_API 5.5.0 1
 _ZN3QV47Runtime6toUIntERKNS_5ValueE@Qt_5_PRIVATE_API 5.5.0 1
 (arch=amd64 armhf i386)_ZN3QV47Runtime6uMinusERKNS_5ValueE@Qt_5_PRIVATE_API 5.5.0 1
 _ZN3QV47Runtime7closureEPNS_15ExecutionEngineEi@Qt_5_PRIVATE_API 5.5.0 1
 _ZN3QV47Runtime8lessThanERKNS_5ValueES3_@Qt_5_PRIVATE_API 5.5.0 1
 _ZN3QV47Runtime8notEqualERKNS_5ValueES3_@Qt_5_PRIVATE_API 5.5.0 1
 _ZN3QV47Runtime8popScopeEPNS_15ExecutionEngineE@Qt_5_PRIVATE_API 5.5.0 1
 _ZN3QV47Runtime8toDoubleERKNS_5ValueE@Qt_5_PRIVATE_API 5.5.0 1
 _ZN3QV47Runtime9addStringEPNS_15ExecutionEngineERKNS_5ValueES5_@Qt_5_PRIVATE_API 5.5.0 1
 _ZN3QV47Runtime9callValueEPNS_15ExecutionEngineERKNS_5ValueEPNS_8CallDataE@Qt_5_PRIVATE_API 5.5.0 1
 _ZN3QV47Runtime9compareInEPNS_15ExecutionEngineERKNS_5ValueES5_@Qt_5_PRIVATE_API 5.5.0 1
 _ZN3QV47Runtime9decrementERKNS_5ValueE@Qt_5_PRIVATE_API 5.5.0 1
 _ZN3QV47Runtime9incrementERKNS_5ValueE@Qt_5_PRIVATE_API 5.5.0 1
 _ZN3QV47Runtime9lessEqualERKNS_5ValueES3_@Qt_5_PRIVATE_API 5.5.0 1
 (arch=amd64 armhf i386)_ZN3QV47Runtime9toBooleanERKNS_5ValueE@Qt_5_PRIVATE_API 5.5.0 1
 _ZN3QV48Compiler15JSUnitGenerator12generateUnitENS1_15GeneratorOptionE@Qt_5_PRIVATE_API 5.4.0 1
 _ZN3QV48Compiler15JSUnitGenerator13writeFunctionEPciPNS_2IR8FunctionE@Qt_5_PRIVATE_API 5.3.0 1
 _ZN3QV48Compiler15JSUnitGenerator14registerRegExpEPNS_2IR6RegExpE@Qt_5_PRIVATE_API 5.3.0 1
 _ZN3QV48Compiler15JSUnitGenerator15registerJSClassEiPNS_2IR8ExprListE@Qt_5_PRIVATE_API 5.3.0 1
 _ZN3QV48Compiler15JSUnitGenerator16registerConstantEy@Qt_5_PRIVATE_API 5.2.0~rc1 1
 _ZN3QV48Compiler15JSUnitGenerator20registerGetterLookupERK7QString@Qt_5_PRIVATE_API 5.2.0~beta1 1
 _ZN3QV48Compiler15JSUnitGenerator20registerSetterLookupERK7QString@Qt_5_PRIVATE_API 5.2.0~beta1 1
 _ZN3QV48Compiler15JSUnitGenerator26registerGlobalGetterLookupERK7QString@Qt_5_PRIVATE_API 5.2.0~beta1 1
 _ZN3QV48Compiler15JSUnitGenerator27registerIndexedGetterLookupEv@Qt_5_PRIVATE_API 5.3.0 1
 _ZN3QV48Compiler15JSUnitGenerator27registerIndexedSetterLookupEv@Qt_5_PRIVATE_API 5.3.0 1
 _ZN3QV48Compiler15JSUnitGeneratorC1EPNS_2IR6ModuleE@Qt_5_PRIVATE_API 5.4.0 1
 _ZN3QV48Compiler15JSUnitGeneratorC2EPNS_2IR6ModuleE@Qt_5_PRIVATE_API 5.4.0 1
 _ZN3QV48Compiler20StringTableGenerator14registerStringERK7QString@Qt_5_PRIVATE_API 5.3.0 1
 _ZN3QV48Compiler20StringTableGenerator5clearEv@Qt_5_PRIVATE_API 5.3.0 1
 _ZN3QV48Compiler20StringTableGenerator9serializeEPNS_12CompiledData4UnitE@Qt_5_PRIVATE_API 5.4.0 1
 _ZN3QV48Compiler20StringTableGeneratorC1Ev@Qt_5_PRIVATE_API 5.3.0 1
 _ZN3QV48Compiler20StringTableGeneratorC2Ev@Qt_5_PRIVATE_API 5.3.0 1
 _ZN3QV48Function19updateInternalClassEPNS_15ExecutionEngineERK5QListI10QByteArrayE@Qt_5_PRIVATE_API 5.6.0~beta 1
 _ZN3QV48FunctionC1EPNS_15ExecutionEngineEPNS_12CompiledData15CompilationUnitEPKNS3_8FunctionEPFyS2_PKhE@Qt_5_PRIVATE_API 5.5.0 1
 _ZN3QV48FunctionC2EPNS_15ExecutionEngineEPNS_12CompiledData15CompilationUnitEPKNS3_8FunctionEPFyS2_PKhE@Qt_5_PRIVATE_API 5.5.0 1
 _ZN3QV48FunctionD1Ev@Qt_5_PRIVATE_API 5.3.0 1
 _ZN3QV48FunctionD2Ev@Qt_5_PRIVATE_API 5.3.0 1
 _ZN3QV49ArrayData11static_vtblE@Qt_5_PRIVATE_API 5.4.0 1
 _ZN3QV49ArrayData16ensureAttributesEPNS_6ObjectE@Qt_5_PRIVATE_API 5.3.0 1
 _ZN3QV49ArrayData4sortEPNS_15ExecutionEngineEPNS_6ObjectERKNS_5ValueEj@Qt_5_PRIVATE_API 5.5.0 1
 _ZN3QV49ArrayData6appendEPNS_6ObjectEPNS_11ArrayObjectEj@Qt_5_PRIVATE_API 5.4.0 1
 _ZN3QV49ArrayData6insertEPNS_6ObjectEjPKNS_5ValueEb@Qt_5_PRIVATE_API 5.6.0~beta 1
 _ZN3QV49ArrayData7reallocEPNS_6ObjectENS_4Heap9ArrayData4TypeEjb@Qt_5_PRIVATE_API 5.5.0 1
 _ZN3QV49Debugging10V4Debugger11qt_metacallEN11QMetaObject4CallEiPPv@Qt_5_PRIVATE_API 5.6.0~beta 1
 _ZN3QV49Debugging10V4Debugger11qt_metacastEPKc@Qt_5_PRIVATE_API 5.6.0~beta 1
 _ZN3QV49Debugging10V4Debugger11runInEngineEPNS1_3JobE@Qt_5_PRIVATE_API 5.6.0~beta 1
 _ZN3QV49Debugging10V4Debugger12aboutToThrowEv@Qt_5_PRIVATE_API 5.6.0~beta 1
 _ZN3QV49Debugging10V4Debugger12pauseAndWaitENS0_11PauseReasonE@Qt_5_PRIVATE_API 5.6.0~beta 1
 _ZN3QV49Debugging10V4Debugger13JavaScriptJob3runEv@Qt_5_PRIVATE_API 5.6.0~beta 1
 _ZN3QV49Debugging10V4Debugger13JavaScriptJobC1EPNS_15ExecutionEngineEiRK7QString@Qt_5_PRIVATE_API 5.6.0~beta 1
 _ZN3QV49Debugging10V4Debugger13JavaScriptJobC2EPNS_15ExecutionEngineEiRK7QString@Qt_5_PRIVATE_API 5.6.0~beta 1
 _ZN3QV49Debugging10V4Debugger13addBreakPointERK7QStringiS4_@Qt_5_PRIVATE_API 5.6.0~beta 1
 _ZN3QV49Debugging10V4Debugger14debuggerPausedEPS1_NS0_11PauseReasonE@Qt_5_PRIVATE_API 5.6.0~beta 1
 _ZN3QV49Debugging10V4Debugger15leavingFunctionERKy@Qt_5_PRIVATE_API 5.6.0~beta 1
 _ZN3QV49Debugging10V4Debugger15setBreakOnThrowEb@Qt_5_PRIVATE_API 5.6.0~beta 1
 _ZN3QV49Debugging10V4Debugger16enteringFunctionEv@Qt_5_PRIVATE_API 5.6.0~beta 1
 _ZN3QV49Debugging10V4Debugger16removeBreakPointERK7QStringi@Qt_5_PRIVATE_API 5.6.0~beta 1
 _ZN3QV49Debugging10V4Debugger16sourcesCollectedEPS1_RK11QStringListi@Qt_5_PRIVATE_API 5.6.0~beta 1
 _ZN3QV49Debugging10V4Debugger16staticMetaObjectE@Qt_5_PRIVATE_API 5.6.0~beta 1
 _ZN3QV49Debugging10V4Debugger22reallyHitTheBreakPointERK7QStringi@Qt_5_PRIVATE_API 5.6.0~beta 1
 _ZN3QV49Debugging10V4Debugger22runInEngine_havingLockEPNS1_3JobE@Qt_5_PRIVATE_API 5.6.0~beta 1
 _ZN3QV49Debugging10V4Debugger23maybeBreakAtInstructionEv@Qt_5_PRIVATE_API 5.6.0~beta 1
 _ZN3QV49Debugging10V4Debugger3JobD0Ev@Qt_5_PRIVATE_API 5.6.0~beta 1
 _ZN3QV49Debugging10V4Debugger3JobD1Ev@Qt_5_PRIVATE_API 5.6.0~beta 1
 _ZN3QV49Debugging10V4Debugger3JobD2Ev@Qt_5_PRIVATE_API 5.6.0~beta 1
 _ZN3QV49Debugging10V4Debugger5pauseEv@Qt_5_PRIVATE_API 5.6.0~beta 1
 _ZN3QV49Debugging10V4Debugger6resumeENS1_5SpeedE@Qt_5_PRIVATE_API 5.6.0~beta 1
 _ZN3QV49Debugging10V4DebuggerC1EPNS_15ExecutionEngineE@Qt_5_PRIVATE_API 5.6.0~beta 1
 _ZN3QV49Debugging10V4DebuggerC2EPNS_15ExecutionEngineE@Qt_5_PRIVATE_API 5.6.0~beta 1
 _ZN3QV49Debugging8Debugger11qt_metacallEN11QMetaObject4CallEiPPv@Qt_5_PRIVATE_API 5.6.0~beta 1
 _ZN3QV49Debugging8Debugger11qt_metacastEPKc@Qt_5_PRIVATE_API 5.6.0~beta 1
 _ZN3QV49Debugging8Debugger16staticMetaObjectE@Qt_5_PRIVATE_API 5.6.0~beta 1
 _ZN3QV49Primitive7toInt32Ed@Qt_5_PRIVATE_API 5.2.0~beta1 1
 _ZN3QV49Primitive8toUInt32Ed@Qt_5_PRIVATE_API 5.2.0~beta1 1
 _ZN3QV49Primitive9toIntegerEd@Qt_5_PRIVATE_API 5.2.0~beta1 1
 _ZN3QV49Profiling8Profiler10reportDataEv@Qt_5_PRIVATE_API 5.3.0 1
 _ZN3QV49Profiling8Profiler11qt_metacallEN11QMetaObject4CallEiPPv@Qt_5_PRIVATE_API 5.3.0 1
 _ZN3QV49Profiling8Profiler11qt_metacastEPKc@Qt_5_PRIVATE_API 5.3.0 1
 _ZN3QV49Profiling8Profiler13stopProfilingEv@Qt_5_PRIVATE_API 5.3.0 1
 _ZN3QV49Profiling8Profiler14startProfilingEy@Qt_5_PRIVATE_API 5.4.0 1
 _ZN3QV49Profiling8Profiler16staticMetaObjectE@Qt_5_PRIVATE_API 5.3.0 1
 _ZN3QV49Profiling8Profiler9dataReadyERK7QVectorINS0_22FunctionCallPropertiesEERKS2_INS0_26MemoryAllocationPropertiesEE@Qt_5_PRIVATE_API 5.6.0~beta 1
 _ZN3QV49Profiling8ProfilerC1EPNS_15ExecutionEngineE@Qt_5_PRIVATE_API 5.4.0 1
 _ZN3QV49Profiling8ProfilerC2EPNS_15ExecutionEngineE@Qt_5_PRIVATE_API 5.4.0 1
 _ZN3QV49WeakValue3setEPNS_15ExecutionEngineEPNS_4Heap4BaseE@Qt_5_PRIVATE_API 5.5.0 1
 _ZN3QV49WeakValue3setEPNS_15ExecutionEngineERKNS_5ValueE@Qt_5_PRIVATE_API 5.5.0 1
 _ZN3QV49WeakValue3setEPNS_15ExecutionEngineEy@Qt_5_PRIVATE_API 5.5.0 1
 _ZN3QV49WeakValue4freeEv@Qt_5_PRIVATE_API 5.6.0~rc 1
 _ZN3QV49WeakValue8markOnceEPNS_15ExecutionEngineE@Qt_5_PRIVATE_API 5.2.0~rc1 1
 _ZN3QV49WeakValueC1EPNS_15ExecutionEngineERKNS_5ValueE@Qt_5_PRIVATE_API 5.6.0~beta 1
 _ZN3QV49WeakValueC1ERKS0_@Qt_5_PRIVATE_API 5.2.0~beta1 1
 _ZN3QV49WeakValueC2EPNS_15ExecutionEngineERKNS_5ValueE@Qt_5_PRIVATE_API 5.6.0~beta 1
 _ZN3QV49WeakValueC2ERKS0_@Qt_5_PRIVATE_API 5.2.0~beta1 1
 _ZN3QV49WeakValueD1Ev@Qt_5_PRIVATE_API 5.2.0~beta1 1
 _ZN3QV49WeakValueD2Ev@Qt_5_PRIVATE_API 5.2.0~beta1 1
 _ZN3QV49WeakValueaSERKS0_@Qt_5_PRIVATE_API 5.2.0~beta1 1
 _ZN5QmlIR16PropertyResolver6signalERK7QStringPb@Qt_5_PRIVATE_API 5.6.0~rc 1
 _ZN5QmlIR16PropertyResolver8propertyERK7QStringPbNS0_13RevisionCheckE@Qt_5_PRIVATE_API 5.6.0~rc 1
 _ZN5QmlIR16QmlUnitGenerator8generateERNS_8DocumentE@Qt_5_PRIVATE_API 5.3.0 1
 _ZN5QmlIR25ScriptDirectivesCollector10importFileERK7QStringS3_ii@Qt_5_PRIVATE_API 5.5.0 1
 _ZN5QmlIR25ScriptDirectivesCollector12importModuleERK7QStringS3_S3_ii@Qt_5_PRIVATE_API 5.5.0 1
 _ZN5QmlIR25ScriptDirectivesCollector13pragmaLibraryEv@Qt_5_PRIVATE_API 5.5.0 1
 _ZN5QmlIR25ScriptDirectivesCollectorC1EPN6QQmlJS6EngineEPN3QV48Compiler15JSUnitGeneratorE@Qt_5_PRIVATE_API 5.5.0 1
 _ZN5QmlIR25ScriptDirectivesCollectorC2EPN6QQmlJS6EngineEPN3QV48Compiler15JSUnitGeneratorE@Qt_5_PRIVATE_API 5.5.0 1
 _ZN5QmlIR6Object12appendSignalEPNS_6SignalE@Qt_5_PRIVATE_API 5.3.0 1
 _ZN5QmlIR6Object12insertSortedEPNS_7BindingE@Qt_5_PRIVATE_API 5.3.0 1
 _ZN5QmlIR6Object13appendBindingEPNS_7BindingEb@Qt_5_PRIVATE_API 5.3.0 1
 _ZN5QmlIR6Object14appendFunctionEPNS_8FunctionE@Qt_5_PRIVATE_API 5.3.0 1
 _ZN5QmlIR6Object14appendPropertyEPNS_8PropertyERK7QStringbRKN6QQmlJS3AST14SourceLocationEPS8_@Qt_5_PRIVATE_API 5.3.0 1
 _ZN5QmlIR6Object24sanityCheckFunctionNamesERK4QSetI7QStringEPN6QQmlJS3AST14SourceLocationE@Qt_5_PRIVATE_API 5.3.0 1
 _ZN5QmlIR6Object4initEPN6QQmlJS10MemoryPoolEiiRKNS1_3AST14SourceLocationE@Qt_5_PRIVATE_API 5.3.0 1
 _ZN5QmlIR8Document19removeScriptPragmasER7QString@Qt_5_PRIVATE_API 5.3.0 1
 _ZN5QmlIR8Document21collectTypeReferencesEv@Qt_5_PRIVATE_API 5.3.0 1
 _ZN5QmlIR8DocumentC1Eb@Qt_5_PRIVATE_API 5.3.0 1
 _ZN5QmlIR8DocumentC2Eb@Qt_5_PRIVATE_API 5.3.0 1
 _ZN5QmlIR9IRBuilder11asStringRefEPN6QQmlJS3AST4NodeE@Qt_5_PRIVATE_API 5.3.0 1
 _ZN5QmlIR9IRBuilder11recordErrorERKN6QQmlJS3AST14SourceLocationERK7QString@Qt_5_PRIVATE_API 5.3.0 1
 _ZN5QmlIR9IRBuilder13appendBindingEPN6QQmlJS3AST13UiQualifiedIdEPNS2_9StatementE@Qt_5_PRIVATE_API 5.3.0 1
 _ZN5QmlIR9IRBuilder13appendBindingEPN6QQmlJS3AST13UiQualifiedIdEib@Qt_5_PRIVATE_API 5.3.0 1
 _ZN5QmlIR9IRBuilder13appendBindingERKN6QQmlJS3AST14SourceLocationES5_jPNS2_9StatementE@Qt_5_PRIVATE_API 5.3.0 1
 _ZN5QmlIR9IRBuilder13appendBindingERKN6QQmlJS3AST14SourceLocationES5_jibb@Qt_5_PRIVATE_API 5.3.0 1
 _ZN5QmlIR9IRBuilder14extractVersionE10QStringRefPiS2_@Qt_5_PRIVATE_API 5.3.0 1
 _ZN5QmlIR9IRBuilder15defineQMLObjectEPiPN6QQmlJS3AST13UiQualifiedIdERKNS3_14SourceLocationEPNS3_19UiObjectInitializerEPNS_6ObjectE@Qt_5_PRIVATE_API 5.3.0 1
 _ZN5QmlIR9IRBuilder15generateFromQmlERK7QStringS3_PNS_8DocumentE@Qt_5_PRIVATE_API 5.4.0 1
 _ZN5QmlIR9IRBuilder15setBindingValueEPN3QV412CompiledData7BindingEPN6QQmlJS3AST9StatementE@Qt_5_PRIVATE_API 5.3.0 1
 _ZN5QmlIR9IRBuilder18resolveQualifiedIdEPPN6QQmlJS3AST13UiQualifiedIdEPPNS_6ObjectEb@Qt_5_PRIVATE_API 5.3.0 1
 _ZN5QmlIR9IRBuilder20isSignalPropertyNameERK7QString@Qt_5_PRIVATE_API 5.3.0 1
 _ZN5QmlIR9IRBuilder21isStatementNodeScriptEPN6QQmlJS3AST9StatementE@Qt_5_PRIVATE_API 5.3.0 1
 _ZN5QmlIR9IRBuilder5setIdERKN6QQmlJS3AST14SourceLocationEPNS2_9StatementE@Qt_5_PRIVATE_API 5.3.0 1
 _ZN5QmlIR9IRBuilder5visitEPN6QQmlJS3AST13UiQualifiedIdE@Qt_5_PRIVATE_API 5.3.0 1
 _ZN5QmlIR9IRBuilder5visitEPN6QQmlJS3AST14UiArrayBindingE@Qt_5_PRIVATE_API 5.3.0 1
 _ZN5QmlIR9IRBuilder5visitEPN6QQmlJS3AST14UiPublicMemberE@Qt_5_PRIVATE_API 5.3.0 1
 _ZN5QmlIR9IRBuilder5visitEPN6QQmlJS3AST15UiObjectBindingE@Qt_5_PRIVATE_API 5.3.0 1
 _ZN5QmlIR9IRBuilder5visitEPN6QQmlJS3AST15UiParameterListE@Qt_5_PRIVATE_API 5.3.0 1
 _ZN5QmlIR9IRBuilder5visitEPN6QQmlJS3AST15UiScriptBindingE@Qt_5_PRIVATE_API 5.3.0 1
 _ZN5QmlIR9IRBuilder5visitEPN6QQmlJS3AST15UiSourceElementE@Qt_5_PRIVATE_API 5.3.0 1
 _ZN5QmlIR9IRBuilder5visitEPN6QQmlJS3AST16UiHeaderItemListE@Qt_5_PRIVATE_API 5.3.0 1
 _ZN5QmlIR9IRBuilder5visitEPN6QQmlJS3AST17UiArrayMemberListE@Qt_5_PRIVATE_API 5.3.0 1
 _ZN5QmlIR9IRBuilder5visitEPN6QQmlJS3AST18UiObjectDefinitionE@Qt_5_PRIVATE_API 5.3.0 1
 _ZN5QmlIR9IRBuilder5visitEPN6QQmlJS3AST18UiObjectMemberListE@Qt_5_PRIVATE_API 5.3.0 1
 _ZN5QmlIR9IRBuilder5visitEPN6QQmlJS3AST19UiObjectInitializerE@Qt_5_PRIVATE_API 5.3.0 1
 _ZN5QmlIR9IRBuilder5visitEPN6QQmlJS3AST8UiImportE@Qt_5_PRIVATE_API 5.3.0 1
 _ZN5QmlIR9IRBuilder5visitEPN6QQmlJS3AST8UiPragmaE@Qt_5_PRIVATE_API 5.3.0 1
 _ZN5QmlIR9IRBuilder5visitEPN6QQmlJS3AST9UiProgramE@Qt_5_PRIVATE_API 5.3.0 1
 _ZN5QmlIR9IRBuilder6acceptEPN6QQmlJS3AST4NodeE@Qt_5_PRIVATE_API 5.3.0 1
 _ZN5QmlIR9IRBuilder8asStringEPN6QQmlJS3AST13UiQualifiedIdE@Qt_5_PRIVATE_API 5.3.0 1
 _ZN5QmlIR9IRBuilderC1ERK4QSetI7QStringE@Qt_5_PRIVATE_API 5.3.0 1
 _ZN5QmlIR9IRBuilderC2ERK4QSetI7QStringE@Qt_5_PRIVATE_API 5.3.0 1
 _ZN5QmlIR9JSCodeGen16beginObjectScopeEP17QQmlPropertyCache@Qt_5_PRIVATE_API 5.3.0 1
 _ZN5QmlIR9JSCodeGen17beginContextScopeERK7QVectorINS0_9IdMappingEEP17QQmlPropertyCache@Qt_5_PRIVATE_API 5.3.0 1
 _ZN5QmlIR9JSCodeGen18fallbackNameLookupERK7QStringii@Qt_5_PRIVATE_API 5.3.0 1
 _ZN5QmlIR9JSCodeGen21beginFunctionBodyHookEv@Qt_5_PRIVATE_API 5.3.0 1
 _ZN5QmlIR9JSCodeGen26lookupQmlCompliantPropertyEP17QQmlPropertyCacheRK7QStringPb@Qt_5_PRIVATE_API 5.3.0 1
 _ZN5QmlIR9JSCodeGen37generateJSCodeForFunctionsAndBindingsERK5QListINS_28CompiledFunctionOrExpressionEE@Qt_5_PRIVATE_API 5.3.0 1
 _ZN5QmlIR9JSCodeGenC1ERK7QStringS3_PN3QV42IR6ModuleEPN6QQmlJS6EngineEPNS8_3AST9UiProgramEP17QQmlTypeNameCachePKNS4_8Compiler20StringTableGeneratorE@Qt_5_PRIVATE_API 5.3.0 1
 _ZN5QmlIR9JSCodeGenC2ERK7QStringS3_PN3QV42IR6ModuleEPN6QQmlJS6EngineEPNS8_3AST9UiProgramEP17QQmlTypeNameCachePKNS4_8Compiler20StringTableGeneratorE@Qt_5_PRIVATE_API 5.3.0 1
 _ZN5QtQml10qmlContextEPK7QObject@Qt_5 5.1.0
 _ZN5QtQml18qmlExecuteDeferredEP7QObject@Qt_5 5.1.0
 _ZN5QtQml27qmlAttachedPropertiesObjectEPiPK7QObjectPK11QMetaObjectb@Qt_5 5.1.0
 _ZN5QtQml31qmlAttachedPropertiesObjectByIdEiPK7QObjectb@Qt_5 5.1.0
 _ZN5QtQml7qmlInfoEPK7QObject@Qt_5 5.1.0
 _ZN5QtQml7qmlInfoEPK7QObjectRK5QListI9QQmlErrorE@Qt_5 5.1.0
 _ZN5QtQml7qmlInfoEPK7QObjectRK9QQmlError@Qt_5 5.1.0
 _ZN5QtQml9qmlEngineEPK7QObject@Qt_5 5.1.0
 _ZN6QQmlJS3AST10CaseClause7accept0EPNS0_7VisitorE@Qt_5 5.3.0
 _ZN6QQmlJS3AST10Expression7accept0EPNS0_7VisitorE@Qt_5 5.3.0
 _ZN6QQmlJS3AST11CaseClauses7accept0EPNS0_7VisitorE@Qt_5 5.3.0
 _ZN6QQmlJS3AST11ElementList7accept0EPNS0_7VisitorE@Qt_5 5.3.0
 _ZN6QQmlJS3AST11IfStatement7accept0EPNS0_7VisitorE@Qt_5 5.3.0
 _ZN6QQmlJS3AST11TrueLiteral7accept0EPNS0_7VisitorE@Qt_5 5.3.0
 _ZN6QQmlJS3AST12ArgumentList7accept0EPNS0_7VisitorE@Qt_5 5.3.0
 _ZN6QQmlJS3AST12ArrayLiteral7accept0EPNS0_7VisitorE@Qt_5 5.3.0
 _ZN6QQmlJS3AST12FalseLiteral7accept0EPNS0_7VisitorE@Qt_5 5.3.0
 _ZN6QQmlJS3AST12ForStatement7accept0EPNS0_7VisitorE@Qt_5 5.3.0
 _ZN6QQmlJS3AST12FunctionBody7accept0EPNS0_7VisitorE@Qt_5 5.3.0
 _ZN6QQmlJS3AST12TryStatement7accept0EPNS0_7VisitorE@Qt_5 5.3.0
 _ZN6QQmlJS3AST13DefaultClause7accept0EPNS0_7VisitorE@Qt_5 5.3.0
 _ZN6QQmlJS3AST13NewExpression7accept0EPNS0_7VisitorE@Qt_5 5.3.0
 _ZN6QQmlJS3AST13NotExpression7accept0EPNS0_7VisitorE@Qt_5 5.3.0
 _ZN6QQmlJS3AST13ObjectLiteral7accept0EPNS0_7VisitorE@Qt_5 5.3.0
 _ZN6QQmlJS3AST13RegExpLiteral7accept0EPNS0_7VisitorE@Qt_5 5.3.0
 _ZN6QQmlJS3AST13StatementList7accept0EPNS0_7VisitorE@Qt_5 5.3.0
 _ZN6QQmlJS3AST13StringLiteral7accept0EPNS0_7VisitorE@Qt_5 5.3.0
 _ZN6QQmlJS3AST13UiQualifiedId7accept0EPNS0_7VisitorE@Qt_5 5.3.0
 _ZN6QQmlJS3AST13WithStatement7accept0EPNS0_7VisitorE@Qt_5 5.3.0
 _ZN6QQmlJS3AST14BreakStatement7accept0EPNS0_7VisitorE@Qt_5 5.3.0
 _ZN6QQmlJS3AST14CallExpression7accept0EPNS0_7VisitorE@Qt_5 5.3.0
 _ZN6QQmlJS3AST14EmptyStatement7accept0EPNS0_7VisitorE@Qt_5 5.3.0
 _ZN6QQmlJS3AST14ExpressionNode14expressionCastEv@Qt_5_PRIVATE_API 5.3.0 1
 _ZN6QQmlJS3AST14NullExpression7accept0EPNS0_7VisitorE@Qt_5 5.3.0
 _ZN6QQmlJS3AST14NumericLiteral7accept0EPNS0_7VisitorE@Qt_5 5.3.0
 _ZN6QQmlJS3AST14SourceElements7accept0EPNS0_7VisitorE@Qt_5 5.3.0
 _ZN6QQmlJS3AST14ThisExpression7accept0EPNS0_7VisitorE@Qt_5 5.3.0
 _ZN6QQmlJS3AST14ThrowStatement7accept0EPNS0_7VisitorE@Qt_5 5.3.0
 _ZN6QQmlJS3AST14UiArrayBinding7accept0EPNS0_7VisitorE@Qt_5 5.3.0
 _ZN6QQmlJS3AST14UiObjectMember18uiObjectMemberCastEv@Qt_5 5.3.0
 _ZN6QQmlJS3AST14UiPublicMember7accept0EPNS0_7VisitorE@Qt_5 5.3.0
 _ZN6QQmlJS3AST14VoidExpression7accept0EPNS0_7VisitorE@Qt_5 5.3.0
 _ZN6QQmlJS3AST14WhileStatement7accept0EPNS0_7VisitorE@Qt_5 5.3.0
 _ZN6QQmlJS3AST15ReturnStatement7accept0EPNS0_7VisitorE@Qt_5 5.3.0
 _ZN6QQmlJS3AST15SwitchStatement7accept0EPNS0_7VisitorE@Qt_5 5.3.0
 _ZN6QQmlJS3AST15TildeExpression7accept0EPNS0_7VisitorE@Qt_5 5.3.0
 _ZN6QQmlJS3AST15UiObjectBinding7accept0EPNS0_7VisitorE@Qt_5 5.3.0
 _ZN6QQmlJS3AST15UiParameterList7accept0EPNS0_7VisitorE@Qt_5 5.3.0
 _ZN6QQmlJS3AST15UiScriptBinding7accept0EPNS0_7VisitorE@Qt_5 5.3.0
 _ZN6QQmlJS3AST15UiSourceElement7accept0EPNS0_7VisitorE@Qt_5 5.3.0
 _ZN6QQmlJS3AST16BinaryExpression20binaryExpressionCastEv@Qt_5 5.3.0
 _ZN6QQmlJS3AST16BinaryExpression7accept0EPNS0_7VisitorE@Qt_5 5.3.0
 _ZN6QQmlJS3AST16DeleteExpression7accept0EPNS0_7VisitorE@Qt_5 5.3.0
 _ZN6QQmlJS3AST16DoWhileStatement7accept0EPNS0_7VisitorE@Qt_5 5.3.0
 _ZN6QQmlJS3AST16ForEachStatement7accept0EPNS0_7VisitorE@Qt_5 5.3.0
 _ZN6QQmlJS3AST16NestedExpression7accept0EPNS0_7VisitorE@Qt_5 5.3.0
 _ZN6QQmlJS3AST16TypeOfExpression7accept0EPNS0_7VisitorE@Qt_5 5.3.0
 _ZN6QQmlJS3AST16UiHeaderItemList7accept0EPNS0_7VisitorE@Qt_5 5.3.0
 _ZN6QQmlJS3AST17ContinueStatement7accept0EPNS0_7VisitorE@Qt_5 5.3.0
 _ZN6QQmlJS3AST17DebuggerStatement7accept0EPNS0_7VisitorE@Qt_5 5.3.0
 _ZN6QQmlJS3AST17LabelledStatement7accept0EPNS0_7VisitorE@Qt_5 5.3.0
 _ZN6QQmlJS3AST17LocalForStatement7accept0EPNS0_7VisitorE@Qt_5 5.3.0
 _ZN6QQmlJS3AST17UiArrayMemberList7accept0EPNS0_7VisitorE@Qt_5 5.3.0
 _ZN6QQmlJS3AST17VariableStatement7accept0EPNS0_7VisitorE@Qt_5 5.3.0
 _ZN6QQmlJS3AST18FunctionExpression7accept0EPNS0_7VisitorE@Qt_5_PRIVATE_API 5.3.0 1
 _ZN6QQmlJS3AST18UiObjectDefinition7accept0EPNS0_7VisitorE@Qt_5 5.3.0
 _ZN6QQmlJS3AST18UiObjectMemberList7accept0EPNS0_7VisitorE@Qt_5 5.3.0
 _ZN6QQmlJS3AST19ExpressionStatement7accept0EPNS0_7VisitorE@Qt_5 5.3.0
 _ZN6QQmlJS3AST19FormalParameterList7accept0EPNS0_7VisitorE@Qt_5 5.3.0
 _ZN6QQmlJS3AST19FunctionDeclaration7accept0EPNS0_7VisitorE@Qt_5 5.3.0
 _ZN6QQmlJS3AST19NewMemberExpression7accept0EPNS0_7VisitorE@Qt_5 5.3.0
 _ZN6QQmlJS3AST19UiObjectInitializer7accept0EPNS0_7VisitorE@Qt_5 5.3.0
 _ZN6QQmlJS3AST19UiQualifiedPragmaId7accept0EPNS0_7VisitorE@Qt_5 5.3.0
 _ZN6QQmlJS3AST19UnaryPlusExpression7accept0EPNS0_7VisitorE@Qt_5 5.3.0
 _ZN6QQmlJS3AST19VariableDeclaration7accept0EPNS0_7VisitorE@Qt_5 5.3.0
 _ZN6QQmlJS3AST20IdentifierExpression7accept0EPNS0_7VisitorE@Qt_5 5.3.0
 _ZN6QQmlJS3AST20PropertyGetterSetter7accept0EPNS0_7VisitorE@Qt_5 5.3.0
 _ZN6QQmlJS3AST20PropertyNameAndValue7accept0EPNS0_7VisitorE@Qt_5 5.3.0
 _ZN6QQmlJS3AST20UnaryMinusExpression7accept0EPNS0_7VisitorE@Qt_5 5.3.0
 _ZN6QQmlJS3AST21ArrayMemberExpression7accept0EPNS0_7VisitorE@Qt_5 5.3.0
 _ZN6QQmlJS3AST21ConditionalExpression7accept0EPNS0_7VisitorE@Qt_5 5.3.0
 _ZN6QQmlJS3AST21FieldMemberExpression7accept0EPNS0_7VisitorE@Qt_5 5.3.0
 _ZN6QQmlJS3AST21FunctionSourceElement7accept0EPNS0_7VisitorE@Qt_5 5.3.0
 _ZN6QQmlJS3AST21LocalForEachStatement7accept0EPNS0_7VisitorE@Qt_5 5.3.0
 _ZN6QQmlJS3AST22IdentifierPropertyName7accept0EPNS0_7VisitorE@Qt_5 5.3.0
 _ZN6QQmlJS3AST22PreDecrementExpression7accept0EPNS0_7VisitorE@Qt_5 5.3.0
 _ZN6QQmlJS3AST22PreIncrementExpression7accept0EPNS0_7VisitorE@Qt_5 5.3.0
 _ZN6QQmlJS3AST22PropertyAssignmentList7accept0EPNS0_7VisitorE@Qt_5 5.3.0
 _ZN6QQmlJS3AST22StatementSourceElement7accept0EPNS0_7VisitorE@Qt_5 5.3.0
 _ZN6QQmlJS3AST23PostDecrementExpression7accept0EPNS0_7VisitorE@Qt_5 5.3.0
 _ZN6QQmlJS3AST23PostIncrementExpression7accept0EPNS0_7VisitorE@Qt_5 5.3.0
 _ZN6QQmlJS3AST23VariableDeclarationList7accept0EPNS0_7VisitorE@Qt_5 5.3.0
 _ZN6QQmlJS3AST25StringLiteralPropertyName7accept0EPNS0_7VisitorE@Qt_5 5.3.0
 _ZN6QQmlJS3AST26NumericLiteralPropertyName7accept0EPNS0_7VisitorE@Qt_5 5.3.0
 _ZN6QQmlJS3AST4Node13statementCastEv@Qt_5 5.3.0
 _ZN6QQmlJS3AST4Node14expressionCastEv@Qt_5 5.3.0
 _ZN6QQmlJS3AST4Node18uiObjectMemberCastEv@Qt_5 5.3.0
 _ZN6QQmlJS3AST4Node20binaryExpressionCastEv@Qt_5 5.3.0
 _ZN6QQmlJS3AST4Node6acceptEPNS0_7VisitorE@Qt_5 5.3.0
 _ZN6QQmlJS3AST4Node6acceptEPS1_PNS0_7VisitorE@Qt_5 5.3.0
 _ZN6QQmlJS3AST5Block7accept0EPNS0_7VisitorE@Qt_5 5.3.0
 _ZN6QQmlJS3AST5Catch7accept0EPNS0_7VisitorE@Qt_5 5.3.0
 _ZN6QQmlJS3AST7Elision7accept0EPNS0_7VisitorE@Qt_5 5.3.0
 _ZN6QQmlJS3AST7Finally7accept0EPNS0_7VisitorE@Qt_5 5.3.0
 _ZN6QQmlJS3AST7Program7accept0EPNS0_7VisitorE@Qt_5 5.3.0
 _ZN6QQmlJS3AST7VisitorC1Ev@Qt_5 5.3.0
 _ZN6QQmlJS3AST7VisitorC2Ev@Qt_5 5.3.0
 _ZN6QQmlJS3AST7VisitorD0Ev@Qt_5 5.3.0
 _ZN6QQmlJS3AST7VisitorD1Ev@Qt_5 5.3.0
 _ZN6QQmlJS3AST7VisitorD2Ev@Qt_5 5.3.0
 _ZN6QQmlJS3AST8UiImport7accept0EPNS0_7VisitorE@Qt_5 5.3.0
 _ZN6QQmlJS3AST8UiPragma7accept0EPNS0_7VisitorE@Qt_5 5.3.0
 _ZN6QQmlJS3AST9CaseBlock7accept0EPNS0_7VisitorE@Qt_5 5.3.0
 _ZN6QQmlJS3AST9Statement13statementCastEv@Qt_5 5.3.0
 _ZN6QQmlJS3AST9UiProgram7accept0EPNS0_7VisitorE@Qt_5 5.3.0
 _ZN6QQmlJS5Lexer10isHexDigitE5QChar@Qt_5 5.3.0
 _ZN6QQmlJS5Lexer10scanNumberE5QChar@Qt_5 5.3.0
 _ZN6QQmlJS5Lexer10scanRegExpENS0_16RegExpBodyPrefixE@Qt_5 5.3.0
 _ZN6QQmlJS5Lexer12isOctalDigitEt@Qt_5 5.3.0
 _ZN6QQmlJS5Lexer13isIdentLetterE5QChar@Qt_5 5.3.0
 _ZN6QQmlJS5Lexer14isDecimalDigitEt@Qt_5 5.3.0
 _ZN6QQmlJS5Lexer14scanDirectivesEPNS_10DirectivesEPNS_17DiagnosticMessageE@Qt_5 5.5.0
 _ZN6QQmlJS5Lexer23isUnicodeEscapeSequenceEPK5QChar@Qt_5 5.3.0
 _ZN6QQmlJS5Lexer24decodeHexEscapeCharacterEPb@Qt_5 5.3.0
 _ZN6QQmlJS5Lexer28decodeUnicodeEscapeCharacterEPb@Qt_5 5.3.0
 _ZN6QQmlJS5Lexer30syncProhibitAutomaticSemicolonEv@Qt_5 5.3.0
 _ZN6QQmlJS5Lexer3lexEv@Qt_5 5.3.0
 _ZN6QQmlJS5Lexer7setCodeERK7QStringib@Qt_5 5.3.0
 _ZN6QQmlJS5Lexer8classifyEPK5QCharib@Qt_5 5.3.0
 _ZN6QQmlJS5Lexer9scanTokenEv@Qt_5 5.3.0
 _ZN6QQmlJS5LexerC1EPNS_6EngineE@Qt_5 5.3.0
 _ZN6QQmlJS5LexerC2EPNS_6EngineE@Qt_5 5.3.0
 _ZN6QQmlJS6Engine10addCommentEiiii@Qt_5 5.3.0
 _ZN6QQmlJS6Engine12newStringRefEPK5QChari@Qt_5 5.3.0
 _ZN6QQmlJS6Engine12newStringRefERK7QString@Qt_5 5.3.0
 _ZN6QQmlJS6Engine13setDirectivesEPNS_10DirectivesE@Qt_5 5.5.0
 _ZN6QQmlJS6Engine4poolEv@Qt_5 5.3.0
 _ZN6QQmlJS6Engine7setCodeERK7QString@Qt_5 5.3.0
 _ZN6QQmlJS6Engine8setLexerEPNS_5LexerE@Qt_5 5.3.0
 _ZN6QQmlJS6EngineC1Ev@Qt_5 5.3.0
 _ZN6QQmlJS6EngineC2Ev@Qt_5 5.3.0
 _ZN6QQmlJS6EngineD1Ev@Qt_5 5.3.0
 _ZN6QQmlJS6EngineD2Ev@Qt_5 5.3.0
 _ZN6QQmlJS6Parser15reallocateStackEv@Qt_5 5.3.0
 _ZN6QQmlJS6Parser20reparseAsQualifiedIdEPNS_3AST14ExpressionNodeE@Qt_5_PRIVATE_API 5.3.0 1
 _ZN6QQmlJS6Parser26reparseAsQualifiedPragmaIdEPNS_3AST14ExpressionNodeE@Qt_5_PRIVATE_API 5.3.0 1
 _ZN6QQmlJS6Parser5parseEi@Qt_5 5.3.0
 _ZN6QQmlJS6ParserC1EPNS_6EngineE@Qt_5 5.3.0
 _ZN6QQmlJS6ParserC2EPNS_6EngineE@Qt_5 5.3.0
 _ZN6QQmlJS6ParserD1Ev@Qt_5 5.3.0
 _ZN6QQmlJS6ParserD2Ev@Qt_5 5.3.0
 _ZN6QQmlJS7Codegen10expressionEPNS_3AST14ExpressionNodeE@Qt_5_PRIVATE_API 5.2.0~beta1 1
 _ZN6QQmlJS7Codegen10identifierERK7QStringii@Qt_5_PRIVATE_API 5.2.0~beta1 1
 _ZN6QQmlJS7Codegen12functionBodyEPNS_3AST12FunctionBodyE@Qt_5_PRIVATE_API 5.2.0~beta1 1
 _ZN6QQmlJS7Codegen13ScanFunctions13enterFunctionEPNS_3AST18FunctionExpressionEbb@Qt_5_PRIVATE_API 5.2.0~beta1 1
 _ZN6QQmlJS7Codegen13ScanFunctions13enterFunctionEPNS_3AST4NodeERK7QStringPNS2_19FormalParameterListEPNS2_12FunctionBodyEPNS2_18FunctionExpressionEb@Qt_5_PRIVATE_API 5.2.0~beta1 1
 _ZN6QQmlJS7Codegen13ScanFunctions16enterEnvironmentEPNS_3AST4NodeENS0_15CompilationModeE@Qt_5_PRIVATE_API 5.2.0~beta1 1
 _ZN6QQmlJS7Codegen13ScanFunctions16leaveEnvironmentEv@Qt_5_PRIVATE_API 5.2.0~beta1 1
 _ZN6QQmlJS7Codegen13ScanFunctions17checkForArgumentsEPNS_3AST19FormalParameterListE@Qt_5_PRIVATE_API 5.2.0~beta1 1
 _ZN6QQmlJS7Codegen13ScanFunctions22checkDirectivePrologueEPNS_3AST14SourceElementsE@Qt_5_PRIVATE_API 5.2.0~beta1 1
 _ZN6QQmlJS7Codegen13ScanFunctions5visitEPNS_3AST12ArrayLiteralE@Qt_5_PRIVATE_API 5.2.0~beta1 1
 _ZN6QQmlJS7Codegen13ScanFunctions5visitEPNS_3AST12ForStatementE@Qt_5_PRIVATE_API 5.2.0~beta1 1
 _ZN6QQmlJS7Codegen13ScanFunctions5visitEPNS_3AST13ObjectLiteralE@Qt_5_PRIVATE_API 5.2.0~beta1 1
 _ZN6QQmlJS7Codegen13ScanFunctions5visitEPNS_3AST13WithStatementE@Qt_5_PRIVATE_API 5.2.0~beta1 1
 _ZN6QQmlJS7Codegen13ScanFunctions5visitEPNS_3AST14CallExpressionE@Qt_5_PRIVATE_API 5.2.0~beta1 1
 _ZN6QQmlJS7Codegen13ScanFunctions5visitEPNS_3AST14ThisExpressionE@Qt_5_PRIVATE_API 5.2.0~rc1 1
 _ZN6QQmlJS7Codegen13ScanFunctions5visitEPNS_3AST16DoWhileStatementE@Qt_5_PRIVATE_API 5.2.0~beta1 1
 _ZN6QQmlJS7Codegen13ScanFunctions5visitEPNS_3AST16ForEachStatementE@Qt_5_PRIVATE_API 5.2.0~beta1 1
 _ZN6QQmlJS7Codegen13ScanFunctions5visitEPNS_3AST17LocalForStatementE@Qt_5_PRIVATE_API 5.2.0~beta1 1
 _ZN6QQmlJS7Codegen13ScanFunctions5visitEPNS_3AST18FunctionExpressionE@Qt_5_PRIVATE_API 5.2.0~beta1 1
 _ZN6QQmlJS7Codegen13ScanFunctions5visitEPNS_3AST19ExpressionStatementE@Qt_5_PRIVATE_API 5.2.0~beta1 1
 _ZN6QQmlJS7Codegen13ScanFunctions5visitEPNS_3AST19FunctionDeclarationE@Qt_5_PRIVATE_API 5.2.0~beta1 1
 _ZN6QQmlJS7Codegen13ScanFunctions5visitEPNS_3AST19NewMemberExpressionE@Qt_5_PRIVATE_API 5.2.0~beta1 1
 _ZN6QQmlJS7Codegen13ScanFunctions5visitEPNS_3AST19VariableDeclarationE@Qt_5_PRIVATE_API 5.2.0~beta1 1
 _ZN6QQmlJS7Codegen13ScanFunctions5visitEPNS_3AST20IdentifierExpressionE@Qt_5_PRIVATE_API 5.2.0~beta1 1
 _ZN6QQmlJS7Codegen13ScanFunctions5visitEPNS_3AST20PropertyGetterSetterE@Qt_5_PRIVATE_API 5.2.0~beta1 1
 _ZN6QQmlJS7Codegen13ScanFunctions5visitEPNS_3AST21LocalForEachStatementE@Qt_5_PRIVATE_API 5.2.0~beta1 1
 _ZN6QQmlJS7Codegen13ScanFunctions5visitEPNS_3AST5BlockE@Qt_5_PRIVATE_API 5.2.0~beta1 1
 _ZN6QQmlJS7Codegen13ScanFunctions5visitEPNS_3AST7ProgramE@Qt_5_PRIVATE_API 5.2.0~beta1 1
 _ZN6QQmlJS7Codegen13ScanFunctions8endVisitEPNS_3AST18FunctionExpressionE@Qt_5_PRIVATE_API 5.2.0~beta1 1
 _ZN6QQmlJS7Codegen13ScanFunctions8endVisitEPNS_3AST19FunctionDeclarationE@Qt_5_PRIVATE_API 5.2.0~beta1 1
 _ZN6QQmlJS7Codegen13ScanFunctions8endVisitEPNS_3AST20PropertyGetterSetterE@Qt_5_PRIVATE_API 5.2.0~beta1 1
 _ZN6QQmlJS7Codegen13ScanFunctions8endVisitEPNS_3AST7ProgramE@Qt_5_PRIVATE_API 5.2.0~beta1 1
 _ZN6QQmlJS7Codegen13ScanFunctions9checkNameERK10QStringRefRKNS_3AST14SourceLocationE@Qt_5_PRIVATE_API 5.2.0~beta1 1
 _ZN6QQmlJS7Codegen13ScanFunctionsC1EPS0_RK7QStringNS0_15CompilationModeE@Qt_5_PRIVATE_API 5.2.0~beta1 1
 _ZN6QQmlJS7Codegen13ScanFunctionsC2EPS0_RK7QStringNS0_15CompilationModeE@Qt_5_PRIVATE_API 5.2.0~beta1 1
 _ZN6QQmlJS7Codegen13ScanFunctionsclEPNS_3AST4NodeE@Qt_5_PRIVATE_API 5.2.0~beta1 1
 _ZN6QQmlJS7Codegen13sourceElementEPNS_3AST13SourceElementE@Qt_5_PRIVATE_API 5.2.0~beta1 1
 _ZN6QQmlJS7Codegen14defineFunctionERK7QStringPNS_3AST4NodeEPNS4_19FormalParameterListEPNS4_14SourceElementsERK11QStringList@Qt_5_PRIVATE_API 5.2.0~beta1 1
 _ZN6QQmlJS7Codegen14sourceElementsEPNS_3AST14SourceElementsE@Qt_5_PRIVATE_API 5.2.0~beta1 1
 _ZN6QQmlJS7Codegen14uiObjectMemberEPNS_3AST14UiObjectMemberE@Qt_5_PRIVATE_API 5.2.0~beta1 1
 _ZN6QQmlJS7Codegen15unwindExceptionEPNS0_15ScopeAndFinallyE@Qt_5_PRIVATE_API 5.2.0~beta1 1
 _ZN6QQmlJS7Codegen16enterEnvironmentEPNS_3AST4NodeE@Qt_5_PRIVATE_API 5.2.0~beta1 1
 _ZN6QQmlJS7Codegen16leaveEnvironmentEv@Qt_5_PRIVATE_API 5.2.0~beta1 1
 _ZN6QQmlJS7Codegen16throwSyntaxErrorERKNS_3AST14SourceLocationERK7QString@Qt_5_PRIVATE_API 5.2.0~beta1 1
 _ZN6QQmlJS7Codegen18fallbackNameLookupERK7QStringii@Qt_5_PRIVATE_API 5.2.0~rc1 1
 _ZN6QQmlJS7Codegen19generateFromProgramERK7QStringS3_PNS_3AST7ProgramEPN3QV42IR6ModuleENS0_15CompilationModeERK11QStringList@Qt_5_PRIVATE_API 5.3.0 1
 _ZN6QQmlJS7Codegen19throwReferenceErrorERKNS_3AST14SourceLocationERK7QString@Qt_5_PRIVATE_API 5.2.0~beta1 1
 _ZN6QQmlJS7Codegen19variableDeclarationEPNS_3AST19VariableDeclarationE@Qt_5_PRIVATE_API 5.2.0~beta1 1
 _ZN6QQmlJS7Codegen23variableDeclarationListEPNS_3AST23VariableDeclarationListE@Qt_5_PRIVATE_API 5.2.0~beta1 1
 _ZN6QQmlJS7Codegen30generateFromFunctionExpressionERK7QStringS3_PNS_3AST18FunctionExpressionEPN3QV42IR6ModuleE@Qt_5_PRIVATE_API 5.3.0 1
 _ZN6QQmlJS7Codegen45throwSyntaxErrorOnEvalOrArgumentsInStrictModeEPN3QV42IR4ExprERKNS_3AST14SourceLocationE@Qt_5_PRIVATE_API 5.3.0 1
 _ZN6QQmlJS7Codegen4callEPN3QV42IR4ExprEPNS2_8ExprListE@Qt_5_PRIVATE_API 5.3.0 1
 _ZN6QQmlJS7Codegen4moveEPN3QV42IR4ExprES4_NS2_5AluOpE@Qt_5_PRIVATE_API 5.3.0 1
 _ZN6QQmlJS7Codegen4unopEN3QV42IR5AluOpEPNS2_4ExprERKNS_3AST14SourceLocationE@Qt_5_PRIVATE_API 5.4.0 1
 _ZN6QQmlJS7Codegen5binopEN3QV42IR5AluOpEPNS2_4ExprES5_RKNS_3AST14SourceLocationE@Qt_5_PRIVATE_API 5.4.0 1
 _ZN6QQmlJS7Codegen5cjumpEPN3QV42IR4ExprEPNS2_10BasicBlockES6_@Qt_5_PRIVATE_API 5.3.0 1
 _ZN6QQmlJS7Codegen5visitEPNS_3AST10CaseClauseE@Qt_5_PRIVATE_API 5.2.0~beta1 1
 _ZN6QQmlJS7Codegen5visitEPNS_3AST10ExpressionE@Qt_5_PRIVATE_API 5.2.0~beta1 1
 _ZN6QQmlJS7Codegen5visitEPNS_3AST11CaseClausesE@Qt_5_PRIVATE_API 5.2.0~beta1 1
 _ZN6QQmlJS7Codegen5visitEPNS_3AST11ElementListE@Qt_5_PRIVATE_API 5.2.0~beta1 1
 _ZN6QQmlJS7Codegen5visitEPNS_3AST11IfStatementE@Qt_5_PRIVATE_API 5.2.0~beta1 1
 _ZN6QQmlJS7Codegen5visitEPNS_3AST11TrueLiteralE@Qt_5_PRIVATE_API 5.2.0~beta1 1
 _ZN6QQmlJS7Codegen5visitEPNS_3AST12ArgumentListE@Qt_5_PRIVATE_API 5.2.0~beta1 1
 _ZN6QQmlJS7Codegen5visitEPNS_3AST12ArrayLiteralE@Qt_5_PRIVATE_API 5.2.0~beta1 1
 _ZN6QQmlJS7Codegen5visitEPNS_3AST12FalseLiteralE@Qt_5_PRIVATE_API 5.2.0~beta1 1
 _ZN6QQmlJS7Codegen5visitEPNS_3AST12ForStatementE@Qt_5_PRIVATE_API 5.2.0~beta1 1
 _ZN6QQmlJS7Codegen5visitEPNS_3AST12FunctionBodyE@Qt_5_PRIVATE_API 5.2.0~beta1 1
 _ZN6QQmlJS7Codegen5visitEPNS_3AST12TryStatementE@Qt_5_PRIVATE_API 5.2.0~beta1 1
 _ZN6QQmlJS7Codegen5visitEPNS_3AST13DefaultClauseE@Qt_5_PRIVATE_API 5.2.0~beta1 1
 _ZN6QQmlJS7Codegen5visitEPNS_3AST13NewExpressionE@Qt_5_PRIVATE_API 5.2.0~beta1 1
 _ZN6QQmlJS7Codegen5visitEPNS_3AST13NotExpressionE@Qt_5_PRIVATE_API 5.2.0~beta1 1
 _ZN6QQmlJS7Codegen5visitEPNS_3AST13ObjectLiteralE@Qt_5_PRIVATE_API 5.2.0~beta1 1
 _ZN6QQmlJS7Codegen5visitEPNS_3AST13RegExpLiteralE@Qt_5_PRIVATE_API 5.2.0~beta1 1
 _ZN6QQmlJS7Codegen5visitEPNS_3AST13StatementListE@Qt_5_PRIVATE_API 5.2.0~beta1 1
 _ZN6QQmlJS7Codegen5visitEPNS_3AST13StringLiteralE@Qt_5_PRIVATE_API 5.2.0~beta1 1
 _ZN6QQmlJS7Codegen5visitEPNS_3AST13UiQualifiedIdE@Qt_5_PRIVATE_API 5.2.0~beta1 1
 _ZN6QQmlJS7Codegen5visitEPNS_3AST13WithStatementE@Qt_5_PRIVATE_API 5.2.0~beta1 1
 _ZN6QQmlJS7Codegen5visitEPNS_3AST14BreakStatementE@Qt_5_PRIVATE_API 5.2.0~beta1 1
 _ZN6QQmlJS7Codegen5visitEPNS_3AST14CallExpressionE@Qt_5_PRIVATE_API 5.2.0~beta1 1
 _ZN6QQmlJS7Codegen5visitEPNS_3AST14EmptyStatementE@Qt_5_PRIVATE_API 5.2.0~beta1 1
 _ZN6QQmlJS7Codegen5visitEPNS_3AST14NullExpressionE@Qt_5_PRIVATE_API 5.2.0~beta1 1
 _ZN6QQmlJS7Codegen5visitEPNS_3AST14NumericLiteralE@Qt_5_PRIVATE_API 5.2.0~beta1 1
 _ZN6QQmlJS7Codegen5visitEPNS_3AST14SourceElementsE@Qt_5_PRIVATE_API 5.2.0~beta1 1
 _ZN6QQmlJS7Codegen5visitEPNS_3AST14ThisExpressionE@Qt_5_PRIVATE_API 5.2.0~beta1 1
 _ZN6QQmlJS7Codegen5visitEPNS_3AST14ThrowStatementE@Qt_5_PRIVATE_API 5.2.0~beta1 1
 _ZN6QQmlJS7Codegen5visitEPNS_3AST14UiArrayBindingE@Qt_5_PRIVATE_API 5.2.0~beta1 1
 _ZN6QQmlJS7Codegen5visitEPNS_3AST14UiPublicMemberE@Qt_5_PRIVATE_API 5.2.0~beta1 1
 _ZN6QQmlJS7Codegen5visitEPNS_3AST14VoidExpressionE@Qt_5_PRIVATE_API 5.2.0~beta1 1
 _ZN6QQmlJS7Codegen5visitEPNS_3AST14WhileStatementE@Qt_5_PRIVATE_API 5.2.0~beta1 1
 _ZN6QQmlJS7Codegen5visitEPNS_3AST15ReturnStatementE@Qt_5_PRIVATE_API 5.2.0~beta1 1
 _ZN6QQmlJS7Codegen5visitEPNS_3AST15SwitchStatementE@Qt_5_PRIVATE_API 5.2.0~beta1 1
 _ZN6QQmlJS7Codegen5visitEPNS_3AST15TildeExpressionE@Qt_5_PRIVATE_API 5.2.0~beta1 1
 _ZN6QQmlJS7Codegen5visitEPNS_3AST15UiObjectBindingE@Qt_5_PRIVATE_API 5.2.0~beta1 1
 _ZN6QQmlJS7Codegen5visitEPNS_3AST15UiParameterListE@Qt_5_PRIVATE_API 5.2.0~beta1 1
 _ZN6QQmlJS7Codegen5visitEPNS_3AST15UiScriptBindingE@Qt_5_PRIVATE_API 5.2.0~beta1 1
 _ZN6QQmlJS7Codegen5visitEPNS_3AST15UiSourceElementE@Qt_5_PRIVATE_API 5.2.0~beta1 1
 _ZN6QQmlJS7Codegen5visitEPNS_3AST16BinaryExpressionE@Qt_5_PRIVATE_API 5.2.0~beta1 1
 _ZN6QQmlJS7Codegen5visitEPNS_3AST16DeleteExpressionE@Qt_5_PRIVATE_API 5.2.0~beta1 1
 _ZN6QQmlJS7Codegen5visitEPNS_3AST16DoWhileStatementE@Qt_5_PRIVATE_API 5.2.0~beta1 1
 _ZN6QQmlJS7Codegen5visitEPNS_3AST16ForEachStatementE@Qt_5_PRIVATE_API 5.2.0~beta1 1
 _ZN6QQmlJS7Codegen5visitEPNS_3AST16NestedExpressionE@Qt_5_PRIVATE_API 5.2.0~beta1 1
 _ZN6QQmlJS7Codegen5visitEPNS_3AST16TypeOfExpressionE@Qt_5_PRIVATE_API 5.2.0~beta1 1
 _ZN6QQmlJS7Codegen5visitEPNS_3AST16UiHeaderItemListE@Qt_5_PRIVATE_API 5.2.0~beta1 1
 _ZN6QQmlJS7Codegen5visitEPNS_3AST17ContinueStatementE@Qt_5_PRIVATE_API 5.2.0~beta1 1
 _ZN6QQmlJS7Codegen5visitEPNS_3AST17DebuggerStatementE@Qt_5_PRIVATE_API 5.2.0~beta1 1
 _ZN6QQmlJS7Codegen5visitEPNS_3AST17LabelledStatementE@Qt_5_PRIVATE_API 5.2.0~beta1 1
 _ZN6QQmlJS7Codegen5visitEPNS_3AST17LocalForStatementE@Qt_5_PRIVATE_API 5.2.0~beta1 1
 _ZN6QQmlJS7Codegen5visitEPNS_3AST17UiArrayMemberListE@Qt_5_PRIVATE_API 5.2.0~beta1 1
 _ZN6QQmlJS7Codegen5visitEPNS_3AST17VariableStatementE@Qt_5_PRIVATE_API 5.2.0~beta1 1
 _ZN6QQmlJS7Codegen5visitEPNS_3AST18FunctionExpressionE@Qt_5_PRIVATE_API 5.2.0~beta1 1
 _ZN6QQmlJS7Codegen5visitEPNS_3AST18UiObjectDefinitionE@Qt_5_PRIVATE_API 5.2.0~beta1 1
 _ZN6QQmlJS7Codegen5visitEPNS_3AST18UiObjectMemberListE@Qt_5_PRIVATE_API 5.2.0~beta1 1
 _ZN6QQmlJS7Codegen5visitEPNS_3AST19ExpressionStatementE@Qt_5_PRIVATE_API 5.2.0~beta1 1
 _ZN6QQmlJS7Codegen5visitEPNS_3AST19FormalParameterListE@Qt_5_PRIVATE_API 5.2.0~beta1 1
 _ZN6QQmlJS7Codegen5visitEPNS_3AST19FunctionDeclarationE@Qt_5_PRIVATE_API 5.2.0~beta1 1
 _ZN6QQmlJS7Codegen5visitEPNS_3AST19NewMemberExpressionE@Qt_5_PRIVATE_API 5.2.0~beta1 1
 _ZN6QQmlJS7Codegen5visitEPNS_3AST19UiObjectInitializerE@Qt_5_PRIVATE_API 5.2.0~beta1 1
 _ZN6QQmlJS7Codegen5visitEPNS_3AST19UiQualifiedPragmaIdE@Qt_5_PRIVATE_API 5.2.0~beta1 1
 _ZN6QQmlJS7Codegen5visitEPNS_3AST19UnaryPlusExpressionE@Qt_5_PRIVATE_API 5.2.0~beta1 1
 _ZN6QQmlJS7Codegen5visitEPNS_3AST19VariableDeclarationE@Qt_5_PRIVATE_API 5.2.0~beta1 1
 _ZN6QQmlJS7Codegen5visitEPNS_3AST20IdentifierExpressionE@Qt_5_PRIVATE_API 5.2.0~beta1 1
 _ZN6QQmlJS7Codegen5visitEPNS_3AST20PropertyGetterSetterE@Qt_5_PRIVATE_API 5.2.0~beta1 1
 _ZN6QQmlJS7Codegen5visitEPNS_3AST20PropertyNameAndValueE@Qt_5_PRIVATE_API 5.2.0~beta1 1
 _ZN6QQmlJS7Codegen5visitEPNS_3AST20UnaryMinusExpressionE@Qt_5_PRIVATE_API 5.2.0~beta1 1
 _ZN6QQmlJS7Codegen5visitEPNS_3AST21ArrayMemberExpressionE@Qt_5_PRIVATE_API 5.2.0~beta1 1
 _ZN6QQmlJS7Codegen5visitEPNS_3AST21ConditionalExpressionE@Qt_5_PRIVATE_API 5.2.0~beta1 1
 _ZN6QQmlJS7Codegen5visitEPNS_3AST21FieldMemberExpressionE@Qt_5_PRIVATE_API 5.2.0~beta1 1
 _ZN6QQmlJS7Codegen5visitEPNS_3AST21FunctionSourceElementE@Qt_5_PRIVATE_API 5.2.0~beta1 1
 _ZN6QQmlJS7Codegen5visitEPNS_3AST21LocalForEachStatementE@Qt_5_PRIVATE_API 5.2.0~beta1 1
 _ZN6QQmlJS7Codegen5visitEPNS_3AST22PreDecrementExpressionE@Qt_5_PRIVATE_API 5.2.0~beta1 1
 _ZN6QQmlJS7Codegen5visitEPNS_3AST22PreIncrementExpressionE@Qt_5_PRIVATE_API 5.2.0~beta1 1
 _ZN6QQmlJS7Codegen5visitEPNS_3AST22PropertyAssignmentListE@Qt_5_PRIVATE_API 5.2.0~beta1 1
 _ZN6QQmlJS7Codegen5visitEPNS_3AST22StatementSourceElementE@Qt_5_PRIVATE_API 5.2.0~beta1 1
 _ZN6QQmlJS7Codegen5visitEPNS_3AST23PostDecrementExpressionE@Qt_5_PRIVATE_API 5.2.0~beta1 1
 _ZN6QQmlJS7Codegen5visitEPNS_3AST23PostIncrementExpressionE@Qt_5_PRIVATE_API 5.2.0~beta1 1
 _ZN6QQmlJS7Codegen5visitEPNS_3AST23VariableDeclarationListE@Qt_5_PRIVATE_API 5.2.0~beta1 1
 _ZN6QQmlJS7Codegen5visitEPNS_3AST5BlockE@Qt_5_PRIVATE_API 5.2.0~beta1 1
 _ZN6QQmlJS7Codegen5visitEPNS_3AST5CatchE@Qt_5_PRIVATE_API 5.2.0~beta1 1
 _ZN6QQmlJS7Codegen5visitEPNS_3AST7ElisionE@Qt_5_PRIVATE_API 5.2.0~beta1 1
 _ZN6QQmlJS7Codegen5visitEPNS_3AST7FinallyE@Qt_5_PRIVATE_API 5.2.0~beta1 1
 _ZN6QQmlJS7Codegen5visitEPNS_3AST7ProgramE@Qt_5_PRIVATE_API 5.2.0~beta1 1
 _ZN6QQmlJS7Codegen5visitEPNS_3AST8UiImportE@Qt_5_PRIVATE_API 5.2.0~beta1 1
 _ZN6QQmlJS7Codegen5visitEPNS_3AST8UiPragmaE@Qt_5_PRIVATE_API 5.2.0~beta1 1
 _ZN6QQmlJS7Codegen5visitEPNS_3AST9CaseBlockE@Qt_5_PRIVATE_API 5.2.0~beta1 1
 _ZN6QQmlJS7Codegen5visitEPNS_3AST9UiProgramE@Qt_5_PRIVATE_API 5.2.0~beta1 1
 _ZN6QQmlJS7Codegen6acceptEPNS_3AST4NodeE@Qt_5_PRIVATE_API 5.2.0~beta1 1
 _ZN6QQmlJS7Codegen6memberEPN3QV42IR4ExprEPK7QString@Qt_5_PRIVATE_API 5.3.0 1
 _ZN6QQmlJS7Codegen7programEPNS_3AST7ProgramE@Qt_5_PRIVATE_API 5.2.0~beta1 1
 _ZN6QQmlJS7Codegen8argumentEPN3QV42IR4ExprE@Qt_5_PRIVATE_API 5.3.0 1
 _ZN6QQmlJS7Codegen9conditionEPNS_3AST14ExpressionNodeEPN3QV42IR10BasicBlockES7_@Qt_5_PRIVATE_API 5.3.0 1
 _ZN6QQmlJS7Codegen9enterLoopEPNS_3AST9StatementEPN3QV42IR10BasicBlockES7_@Qt_5_PRIVATE_API 5.4.0 1
 _ZN6QQmlJS7Codegen9leaveLoopEv@Qt_5_PRIVATE_API 5.2.0~beta1 1
 _ZN6QQmlJS7Codegen9referenceEPN3QV42IR4ExprE@Qt_5_PRIVATE_API 5.3.0 1
 _ZN6QQmlJS7Codegen9statementEPNS_3AST14ExpressionNodeE@Qt_5_PRIVATE_API 5.2.0~beta1 1
 _ZN6QQmlJS7Codegen9statementEPNS_3AST9StatementE@Qt_5_PRIVATE_API 5.2.0~beta1 1
 _ZN6QQmlJS7Codegen9subscriptEPN3QV42IR4ExprES4_@Qt_5_PRIVATE_API 5.3.0 1
 _ZN6QQmlJS7CodegenC1Eb@Qt_5_PRIVATE_API 5.2.0~beta1 1
 _ZN6QQmlJS7CodegenC2Eb@Qt_5_PRIVATE_API 5.2.0~beta1 1
 _ZN7QQmlVME23enableComponentCompleteEv@Qt_5_PRIVATE_API 5.1.0 1
 _ZN7QQmlVME24componentCompleteEnabledEv@Qt_5_PRIVATE_API 5.1.0 1
 _ZN7QQmlVME24disableComponentCompleteEv@Qt_5_PRIVATE_API 5.1.0 1
 _ZN7QQmlVME25s_enableComponentCompleteE@Qt_5_PRIVATE_API 5.1.0 1
 _ZN8QJSValue11setPropertyERK7QStringRKS_@Qt_5 5.0.2
 _ZN8QJSValue11setPropertyEjRKS_@Qt_5 5.0.2
 _ZN8QJSValue12setPrototypeERKS_@Qt_5 5.0.2
 _ZN8QJSValue14deletePropertyERK7QString@Qt_5 5.0.2
 _ZN8QJSValue16callWithInstanceERKS_RK5QListIS_E@Qt_5 5.0.2
 _ZN8QJSValue17callAsConstructorERK5QListIS_E@Qt_5 5.0.2
 _ZN8QJSValue4callERK5QListIS_E@Qt_5 5.0.2
 _ZN8QJSValueC1ENS_12SpecialValueE@Qt_5 5.0.2
 _ZN8QJSValueC1EPKc@Qt_5 5.0.2
 _ZN8QJSValueC1EPN3QV415ExecutionEngineEy@Qt_5_PRIVATE_API 5.5.0 1
 _ZN8QJSValueC1ERK13QLatin1String@Qt_5 5.0.2
 _ZN8QJSValueC1ERK7QString@Qt_5 5.0.2
 _ZN8QJSValueC1ERKS_@Qt_5 5.0.2
 _ZN8QJSValueC1Eb@Qt_5 5.0.2
 _ZN8QJSValueC1Ed@Qt_5 5.0.2
 _ZN8QJSValueC1Ei@Qt_5 5.0.2
 _ZN8QJSValueC1Ej@Qt_5 5.0.2
 _ZN8QJSValueC2ENS_12SpecialValueE@Qt_5 5.0.2
 _ZN8QJSValueC2EPKc@Qt_5 5.0.2
 _ZN8QJSValueC2EPN3QV415ExecutionEngineEy@Qt_5_PRIVATE_API 5.5.0 1
 _ZN8QJSValueC2ERK13QLatin1String@Qt_5 5.0.2
 _ZN8QJSValueC2ERK7QString@Qt_5 5.0.2
 _ZN8QJSValueC2ERKS_@Qt_5 5.0.2
 _ZN8QJSValueC2Eb@Qt_5 5.0.2
 _ZN8QJSValueC2Ed@Qt_5 5.0.2
 _ZN8QJSValueC2Ei@Qt_5 5.0.2
 _ZN8QJSValueC2Ej@Qt_5 5.0.2
 _ZN8QJSValueD1Ev@Qt_5 5.0.2
 _ZN8QJSValueD2Ev@Qt_5 5.0.2
 _ZN8QJSValueaSERKS_@Qt_5 5.0.2
 _ZN8QQmlData10NotifyList6layoutEP20QQmlNotifierEndpoint@Qt_5_PRIVATE_API 5.0.2 1
 _ZN8QQmlData10NotifyList6layoutEv@Qt_5_PRIVATE_API 5.0.2 1
 _ZN8QQmlData13endpointCountEi@Qt_5_PRIVATE_API 5.0.2 1
 _ZN8QQmlData13markAsDeletedEP7QObject@Qt_5_PRIVATE_API 5.0.2 1
 _ZN8QQmlData13parentChangedEP24QAbstractDeclarativeDataP7QObjectS3_@Qt_5_PRIVATE_API 5.0.2 1
 _ZN8QQmlData13parentChangedEP7QObjectS1_@Qt_5_PRIVATE_API 5.0.2 1
 _ZN8QQmlData13setBindingBitEP7QObjecti@Qt_5_PRIVATE_API 5.0.2 1
 _ZN8QQmlData13signalEmittedEP24QAbstractDeclarativeDataP7QObjectiPPv@Qt_5_PRIVATE_API 5.0.2 1
 _ZN8QQmlData15clearBindingBitEi@Qt_5_PRIVATE_API 5.0.2 1
 _ZN8QQmlData17isSignalConnectedEP24QAbstractDeclarativeDataPK7QObjecti@Qt_5_PRIVATE_API 5.0.2 1
 _ZN8QQmlData17signalHasEndpointEi@Qt_5_PRIVATE_API 5.0.2 1
 _ZN8QQmlData19disconnectNotifiersEv@Qt_5_PRIVATE_API 5.0.2 1
 _ZN8QQmlData19ensurePropertyCacheEP9QJSEngineP7QObject@Qt_5_PRIVATE_API 5.5.0 1
 _ZN8QQmlData20setPendingBindingBitEP7QObjecti@Qt_5_PRIVATE_API 5.0.2 1
 _ZN8QQmlData20setQueuedForDeletionEP7QObject@Qt_5_PRIVATE_API 5.0.2 1
 _ZN8QQmlData22clearPendingBindingBitEi@Qt_5_PRIVATE_API 5.0.2 1
 _ZN8QQmlData23flushPendingBindingImplEi@Qt_5_PRIVATE_API 5.0.2 1
 _ZN8QQmlData9addNotifyEiP20QQmlNotifierEndpoint@Qt_5_PRIVATE_API 5.0.2 1
 _ZN8QQmlData9destroyedEP24QAbstractDeclarativeDataP7QObject@Qt_5_PRIVATE_API 5.0.2 1
 _ZN8QQmlData9destroyedEP7QObject@Qt_5_PRIVATE_API 5.0.2 1
 _ZN8QQmlData9receiversEP24QAbstractDeclarativeDataPK7QObjecti@Qt_5_PRIVATE_API 5.0.2 1
 _ZN8QQmlDataC1Ev@Qt_5_PRIVATE_API 5.6.0~beta 1
 _ZN8QQmlDataC2Ev@Qt_5_PRIVATE_API 5.6.0~beta 1
 _ZN8QQmlFile11isLocalFileERK4QUrl@Qt_5 5.0.2
 _ZN8QQmlFile11isLocalFileERK7QString@Qt_5 5.0.2
 _ZN8QQmlFile13isSynchronousERK4QUrl@Qt_5 5.0.2
 _ZN8QQmlFile13isSynchronousERK7QString@Qt_5 5.0.2
 _ZN8QQmlFile15connectFinishedEP7QObjectPKc@Qt_5 5.0.2
 _ZN8QQmlFile15connectFinishedEP7QObjecti@Qt_5 5.0.2
 _ZN8QQmlFile19urlToLocalFileOrQrcERK4QUrl@Qt_5 5.0.2
 _ZN8QQmlFile19urlToLocalFileOrQrcERK7QString@Qt_5 5.0.2
 _ZN8QQmlFile23connectDownloadProgressEP7QObjectPKc@Qt_5 5.0.2
 _ZN8QQmlFile23connectDownloadProgressEP7QObjecti@Qt_5 5.0.2
 _ZN8QQmlFile4loadEP10QQmlEngineRK4QUrl@Qt_5 5.0.2
 _ZN8QQmlFile4loadEP10QQmlEngineRK7QString@Qt_5 5.0.2
 _ZN8QQmlFile5clearEP7QObject@Qt_5 5.0.2
 _ZN8QQmlFile5clearEv@Qt_5 5.0.2
 _ZN8QQmlFileC1EP10QQmlEngineRK4QUrl@Qt_5 5.0.2
 _ZN8QQmlFileC1EP10QQmlEngineRK7QString@Qt_5 5.0.2
 _ZN8QQmlFileC1Ev@Qt_5 5.0.2
 _ZN8QQmlFileC2EP10QQmlEngineRK4QUrl@Qt_5 5.0.2
 _ZN8QQmlFileC2EP10QQmlEngineRK7QString@Qt_5 5.0.2
 _ZN8QQmlFileC2Ev@Qt_5 5.0.2
 _ZN8QQmlFileD1Ev@Qt_5 5.0.2
 _ZN8QQmlFileD2Ev@Qt_5 5.0.2
 _ZN8QQmlInfoC1EP15QQmlInfoPrivate@Qt_5 5.0.2
 _ZN8QQmlInfoC1ERKS_@Qt_5 5.0.2
 _ZN8QQmlInfoC2EP15QQmlInfoPrivate@Qt_5 5.0.2
 _ZN8QQmlInfoC2ERKS_@Qt_5 5.0.2
 _ZN8QQmlInfoD1Ev@Qt_5 5.0.2
 _ZN8QQmlInfoD2Ev@Qt_5 5.0.2
 _ZN8QQmlType21SingletonInstanceInfo12setScriptApiEP10QQmlEngineRK8QJSValue@Qt_5_PRIVATE_API 5.6.0~beta 1
 _ZN8QQmlType21SingletonInstanceInfo13setQObjectApiEP10QQmlEngineP7QObject@Qt_5_PRIVATE_API 5.0.2 1
 _ZN8QQmlType21SingletonInstanceInfo4initEP10QQmlEngine@Qt_5_PRIVATE_API 5.0.2 1
 _ZN8QQmlType21SingletonInstanceInfo7destroyEP10QQmlEngine@Qt_5_PRIVATE_API 5.0.2 1
 _ZN8QQmlTypeC1EiRK7QStringRKN11QQmlPrivate12RegisterTypeE@Qt_5_PRIVATE_API 5.0.2 1
 _ZN8QQmlTypeC1EiRK7QStringRKN11QQmlPrivate21RegisterCompositeTypeE@Qt_5_PRIVATE_API 5.1.0 1
 _ZN8QQmlTypeC1EiRK7QStringRKN11QQmlPrivate21RegisterSingletonTypeE@Qt_5_PRIVATE_API 5.0.2 1
 _ZN8QQmlTypeC1EiRK7QStringRKN11QQmlPrivate30RegisterCompositeSingletonTypeE@Qt_5_PRIVATE_API 5.2.0~beta1 1
 _ZN8QQmlTypeC1EiRKN11QQmlPrivate17RegisterInterfaceE@Qt_5_PRIVATE_API 5.0.2 1
 _ZN8QQmlTypeC2EiRK7QStringRKN11QQmlPrivate12RegisterTypeE@Qt_5_PRIVATE_API 5.0.2 1
 _ZN8QQmlTypeC2EiRK7QStringRKN11QQmlPrivate21RegisterCompositeTypeE@Qt_5_PRIVATE_API 5.1.0 1
 _ZN8QQmlTypeC2EiRK7QStringRKN11QQmlPrivate21RegisterSingletonTypeE@Qt_5_PRIVATE_API 5.0.2 1
 _ZN8QQmlTypeC2EiRK7QStringRKN11QQmlPrivate30RegisterCompositeSingletonTypeE@Qt_5_PRIVATE_API 5.2.0~beta1 1
 _ZN8QQmlTypeC2EiRKN11QQmlPrivate17RegisterInterfaceE@Qt_5_PRIVATE_API 5.0.2 1
 _ZN8QQmlTypeD1Ev@Qt_5_PRIVATE_API 5.0.2 1
 _ZN8QQmlTypeD2Ev@Qt_5_PRIVATE_API 5.0.2 1
 _ZN9QBitArray6setBitEi@Qt_5 5.3.0
 _ZN9QJSEngine10newQObjectEP7QObject@Qt_5 5.0.2
 _ZN9QJSEngine11qt_metacallEN11QMetaObject4CallEiPPv@Qt_5 5.0.2
 _ZN9QJSEngine11qt_metacastEPKc@Qt_5 5.0.2
 _ZN9QJSEngine14collectGarbageEv@Qt_5 5.0.2
 _ZN9QJSEngine16staticMetaObjectE@Qt_5 5.0.2
 _ZN9QJSEngine17installExtensionsE6QFlagsINS_9ExtensionEERK8QJSValue@Qt_5 5.6.0~beta
 _ZN9QJSEngine26installTranslatorFunctionsERK8QJSValue@Qt_5 5.4.0
 _ZN9QJSEngine6createEiPKv@Qt_5 5.0.2
 _ZN9QJSEngine8evaluateERK7QStringS2_i@Qt_5 5.0.2
 _ZN9QJSEngine8newArrayEj@Qt_5 5.0.2
 _ZN9QJSEngine9convertV2ERK8QJSValueiPv@Qt_5 5.0.2
 _ZN9QJSEngine9newObjectEv@Qt_5 5.0.2
 _ZN9QJSEngineC1EP7QObject@Qt_5 5.0.2
 _ZN9QJSEngineC1ER16QJSEnginePrivateP7QObject@Qt_5_PRIVATE_API 5.0.2 1
 _ZN9QJSEngineC1Ev@Qt_5 5.0.2
 _ZN9QJSEngineC2EP7QObject@Qt_5 5.0.2
 _ZN9QJSEngineC2ER16QJSEnginePrivateP7QObject@Qt_5_PRIVATE_API 5.0.2 1
 _ZN9QJSEngineC2Ev@Qt_5 5.0.2
 _ZN9QJSEngineD0Ev@Qt_5 5.0.2
 _ZN9QJSEngineD1Ev@Qt_5 5.0.2
 _ZN9QJSEngineD2Ev@Qt_5 5.0.2
 _ZN9QQmlError14setDescriptionERK7QString@Qt_5 5.0.2
 _ZN9QQmlError6setUrlERK4QUrl@Qt_5 5.0.2
 _ZN9QQmlError7setLineEi@Qt_5 5.0.2
 _ZN9QQmlError9setColumnEi@Qt_5 5.0.2
 _ZN9QQmlError9setObjectEP7QObject@Qt_5 5.2.0~beta1
 _ZN9QQmlErrorC1ERKS_@Qt_5 5.0.2
 _ZN9QQmlErrorC1Ev@Qt_5 5.0.2
 _ZN9QQmlErrorC2ERKS_@Qt_5 5.0.2
 _ZN9QQmlErrorC2Ev@Qt_5 5.0.2
 _ZN9QQmlErrorD1Ev@Qt_5 5.0.2
 _ZN9QQmlErrorD2Ev@Qt_5 5.0.2
 _ZN9QQmlErroraSERKS_@Qt_5 5.0.2
 _ZN9QQmlTimer10classBeginEv@Qt_5_PRIVATE_API 5.0.2 1
 _ZN9QQmlTimer10setRunningEb@Qt_5_PRIVATE_API 5.0.2 1
 _ZN9QQmlTimer11qt_metacallEN11QMetaObject4CallEiPPv@Qt_5_PRIVATE_API 5.0.2 1
 _ZN9QQmlTimer11qt_metacastEPKc@Qt_5_PRIVATE_API 5.0.2 1
 _ZN9QQmlTimer11setIntervalEi@Qt_5_PRIVATE_API 5.0.2 1
 _ZN9QQmlTimer12setRepeatingEb@Qt_5_PRIVATE_API 5.0.2 1
 _ZN9QQmlTimer13repeatChangedEv@Qt_5_PRIVATE_API 5.0.2 1
 _ZN9QQmlTimer14runningChangedEv@Qt_5_PRIVATE_API 5.0.2 1
 _ZN9QQmlTimer15intervalChangedEv@Qt_5_PRIVATE_API 5.0.2 1
 _ZN9QQmlTimer16staticMetaObjectE@Qt_5_PRIVATE_API 5.0.2 1
 _ZN9QQmlTimer17componentCompleteEv@Qt_5_PRIVATE_API 5.0.2 1
 _ZN9QQmlTimer19setTriggeredOnStartEb@Qt_5_PRIVATE_API 5.0.2 1
 _ZN9QQmlTimer23triggeredOnStartChangedEv@Qt_5_PRIVATE_API 5.0.2 1
 _ZN9QQmlTimer4stopEv@Qt_5_PRIVATE_API 5.0.2 1
 _ZN9QQmlTimer5eventEP6QEvent@Qt_5_PRIVATE_API 5.4.0 1
 _ZN9QQmlTimer5startEv@Qt_5_PRIVATE_API 5.0.2 1
 _ZN9QQmlTimer6tickedEv@Qt_5_PRIVATE_API 5.0.2 1
 _ZN9QQmlTimer6updateEv@Qt_5_PRIVATE_API 5.0.2 1
 _ZN9QQmlTimer7restartEv@Qt_5_PRIVATE_API 5.0.2 1
 _ZN9QQmlTimer9triggeredEv@Qt_5_PRIVATE_API 5.0.2 1
 _ZN9QQmlTimerC1EP7QObject@Qt_5_PRIVATE_API 5.0.2 1
 _ZN9QQmlTimerC2EP7QObject@Qt_5_PRIVATE_API 5.0.2 1
 _ZN9QV8Engine10startTimerERK7QString@Qt_5_PRIVATE_API 5.0.2 1
 _ZN9QV8Engine12freezeObjectERKN3QV45ValueE@Qt_5_PRIVATE_API 5.5.0 1
 _ZN9QV8Engine16initializeGlobalEv@Qt_5_PRIVATE_API 5.2.0~beta1 1
 _ZN9QV8Engine16setExtensionDataEiPNS_9DeletableE@Qt_5_PRIVATE_API 5.0.2 1
 _ZN9QV8Engine17registerExtensionEv@Qt_5_PRIVATE_API 5.0.2 1
 _ZN9QV8Engine17registrationMutexEv@Qt_5_PRIVATE_API 5.0.2 1
 _ZN9QV8Engine18consoleCountHelperERK7QStringtt@Qt_5_PRIVATE_API 5.0.2 1
 _ZN9QV8Engine19initQmlGlobalObjectEv@Qt_5_PRIVATE_API 5.0.2 1
 _ZN9QV8Engine20networkAccessManagerEv@Qt_5_PRIVATE_API 5.0.2 1
 _ZN9QV8Engine6globalEv@Qt_5_PRIVATE_API 5.2.0~beta1 1
 _ZN9QV8Engine9setEngineEP10QQmlEngine@Qt_5_PRIVATE_API 5.0.2 1
 _ZN9QV8Engine9stopTimerERK7QStringPb@Qt_5_PRIVATE_API 5.0.2 1
 _ZN9QV8EngineC1EP9QJSEngine@Qt_5_PRIVATE_API 5.2.0~beta1 1
 _ZN9QV8EngineC2EP9QJSEngine@Qt_5_PRIVATE_API 5.2.0~beta1 1
 _ZN9QV8EngineD0Ev@Qt_5_PRIVATE_API 5.0.2 1
 _ZN9QV8EngineD1Ev@Qt_5_PRIVATE_API 5.0.2 1
 _ZN9QV8EngineD2Ev@Qt_5_PRIVATE_API 5.0.2 1
 _ZNK10QQmlEngine10metaObjectEv@Qt_5 5.0.2
 _ZNK10QQmlEngine11rootContextEv@Qt_5 5.0.2
 _ZNK10QQmlEngine13imageProviderERK7QString@Qt_5 5.0.2
 _ZNK10QQmlEngine14importPathListEv@Qt_5 5.0.2
 _ZNK10QQmlEngine14pluginPathListEv@Qt_5 5.0.2
 _ZNK10QQmlEngine14urlInterceptorEv@Qt_5 5.1.0
 _ZNK10QQmlEngine18offlineStoragePathEv@Qt_5 5.0.2
 _ZNK10QQmlEngine20incubationControllerEv@Qt_5 5.0.2
 _ZNK10QQmlEngine20networkAccessManagerEv@Qt_5 5.0.2
 _ZNK10QQmlEngine27networkAccessManagerFactoryEv@Qt_5 5.0.2
 _ZNK10QQmlEngine29outputWarningsToStandardErrorEv@Qt_5 5.0.2
 _ZNK10QQmlEngine7baseUrlEv@Qt_5 5.0.2
 _ZNK11QQmlBinding10expressionEv@Qt_5_PRIVATE_API 5.0.2 1
 _ZNK11QQmlBinding15getPropertyDataEv@Qt_5_PRIVATE_API 5.6.0~beta 1
 _ZNK11QQmlContext10metaObjectEv@Qt_5 5.0.2
 _ZNK11QQmlContext13contextObjectEv@Qt_5 5.0.2
 _ZNK11QQmlContext13nameForObjectEP7QObject@Qt_5 5.0.2
 _ZNK11QQmlContext13parentContextEv@Qt_5 5.0.2
 _ZNK11QQmlContext15contextPropertyERK7QString@Qt_5 5.0.2
 _ZNK11QQmlContext6engineEv@Qt_5 5.0.2
 _ZNK11QQmlContext7baseUrlEv@Qt_5 5.0.2
 _ZNK11QQmlContext7isValidEv@Qt_5 5.0.2
 _ZNK11QQmlImports11resolveTypeEP19QQmlImportNamespaceRK16QHashedStringRefPP8QQmlTypePiS8_@Qt_5_PRIVATE_API 5.1.0 1
 _ZNK11QQmlImports11resolveTypeERK16QHashedStringRefPP8QQmlTypePiS6_PP19QQmlImportNamespaceP5QListI9QQmlErrorE@Qt_5_PRIVATE_API 5.1.0 1
 _ZNK11QQmlImports13populateCacheEP17QQmlTypeNameCache@Qt_5_PRIVATE_API 5.0.2 1
 _ZNK11QQmlImports15resolvedScriptsEv@Qt_5_PRIVATE_API 5.0.2 1
 _ZNK11QQmlImports27resolvedCompositeSingletonsEv@Qt_5_PRIVATE_API 5.2.0~beta1 1
 _ZNK11QQmlImports7baseUrlEv@Qt_5_PRIVATE_API 5.0.2 1
 _ZNK12QQmlDataBlob10isCompleteEv@Qt_5_PRIVATE_API 5.0.2 1
 _ZNK12QQmlDataBlob14finalUrlStringEv@Qt_5_PRIVATE_API 5.0.2 1
 _ZNK12QQmlDataBlob17isCompleteOrErrorEv@Qt_5_PRIVATE_API 5.0.2 1
 _ZNK12QQmlDataBlob3urlEv@Qt_5_PRIVATE_API 5.0.2 1
 _ZNK12QQmlDataBlob4typeEv@Qt_5_PRIVATE_API 5.0.2 1
 _ZNK12QQmlDataBlob6errorsEv@Qt_5_PRIVATE_API 5.0.2 1
 _ZNK12QQmlDataBlob6isNullEv@Qt_5_PRIVATE_API 5.0.2 1
 _ZNK12QQmlDataBlob6statusEv@Qt_5_PRIVATE_API 5.0.2 1
 _ZNK12QQmlDataBlob7isErrorEv@Qt_5_PRIVATE_API 5.0.2 1
 _ZNK12QQmlDataBlob8finalUrlEv@Qt_5_PRIVATE_API 5.0.2 1
 _ZNK12QQmlDataBlob8progressEv@Qt_5_PRIVATE_API 5.0.2 1
 _ZNK12QQmlDataBlob9isLoadingEv@Qt_5_PRIVATE_API 5.0.2 1
 _ZNK12QQmlDataBlob9isWaitingEv@Qt_5_PRIVATE_API 5.0.2 1
 _ZNK12QQmlPlatform10metaObjectEv@Qt_5_PRIVATE_API 5.1.0 1
 _ZNK12QQmlProperty10isPropertyEv@Qt_5 5.0.2
 _ZNK12QQmlProperty10isWritableEv@Qt_5 5.0.2
 _ZNK12QQmlProperty12isDesignableEv@Qt_5 5.0.2
 _ZNK12QQmlProperty12isResettableEv@Qt_5 5.0.2
 _ZNK12QQmlProperty12propertyTypeEv@Qt_5 5.0.2
 _ZNK12QQmlProperty15hasNotifySignalEv@Qt_5 5.0.2
 _ZNK12QQmlProperty16isSignalPropertyEv@Qt_5 5.0.2
 _ZNK12QQmlProperty16propertyTypeNameEv@Qt_5 5.0.2
 _ZNK12QQmlProperty17needsNotifySignalEv@Qt_5 5.0.2
 _ZNK12QQmlProperty19connectNotifySignalEP7QObjectPKc@Qt_5 5.0.2
 _ZNK12QQmlProperty19connectNotifySignalEP7QObjecti@Qt_5 5.0.2
 _ZNK12QQmlProperty20propertyTypeCategoryEv@Qt_5 5.0.2
 _ZNK12QQmlProperty4nameEv@Qt_5 5.0.2
 _ZNK12QQmlProperty4readEv@Qt_5 5.0.2
 _ZNK12QQmlProperty4typeEv@Qt_5 5.0.2
 _ZNK12QQmlProperty5indexEv@Qt_5 5.0.2
 _ZNK12QQmlProperty5resetEv@Qt_5 5.0.2
 _ZNK12QQmlProperty5writeERK8QVariant@Qt_5 5.0.2
 _ZNK12QQmlProperty6methodEv@Qt_5 5.0.2
 _ZNK12QQmlProperty6objectEv@Qt_5 5.0.2
 _ZNK12QQmlProperty7isValidEv@Qt_5 5.0.2
 _ZNK12QQmlProperty8propertyEv@Qt_5 5.0.2
 _ZNK12QQmlPropertyeqERKS_@Qt_5 5.0.2
 _ZNK13QQmlComponent10metaObjectEv@Qt_5 5.0.2
 _ZNK13QQmlComponent11errorStringEv@Qt_5 5.0.2
 _ZNK13QQmlComponent15creationContextEv@Qt_5 5.0.2
 _ZNK13QQmlComponent3urlEv@Qt_5 5.0.2
 _ZNK13QQmlComponent6errorsEv@Qt_5 5.0.2
 _ZNK13QQmlComponent6isNullEv@Qt_5 5.0.2
 _ZNK13QQmlComponent6statusEv@Qt_5 5.0.2
 _ZNK13QQmlComponent7isErrorEv@Qt_5 5.0.2
 _ZNK13QQmlComponent7isReadyEv@Qt_5 5.0.2
 _ZNK13QQmlComponent8progressEv@Qt_5 5.0.2
 _ZNK13QQmlComponent9isLoadingEv@Qt_5 5.0.2
 _ZNK13QQmlDirParser10componentsEv@Qt_5_PRIVATE_API 5.3.0 1
 _ZNK13QQmlDirParser12dependenciesEv@Qt_5_PRIVATE_API 5.4.0 1
 _ZNK13QQmlDirParser13typeNamespaceEv@Qt_5_PRIVATE_API 5.3.0 1
 _ZNK13QQmlDirParser17designerSupportedEv@Qt_5_PRIVATE_API 5.4.0 1
 _ZNK13QQmlDirParser6errorsERK7QString@Qt_5_PRIVATE_API 5.3.0 1
 _ZNK13QQmlDirParser7pluginsEv@Qt_5_PRIVATE_API 5.3.0 1
 _ZNK13QQmlDirParser7scriptsEv@Qt_5_PRIVATE_API 5.3.0 1
 _ZNK13QQmlDirParser8hasErrorEv@Qt_5_PRIVATE_API 5.3.0 1
 _ZNK13QQmlIncubator14incubationModeEv@Qt_5 5.0.2
 _ZNK13QQmlIncubator6errorsEv@Qt_5 5.0.2
 _ZNK13QQmlIncubator6isNullEv@Qt_5 5.0.2
 _ZNK13QQmlIncubator6objectEv@Qt_5 5.0.2
 _ZNK13QQmlIncubator6statusEv@Qt_5 5.0.2
 _ZNK13QQmlIncubator7isErrorEv@Qt_5 5.0.2
 _ZNK13QQmlIncubator7isReadyEv@Qt_5 5.0.2
 _ZNK13QQmlIncubator9isLoadingEv@Qt_5 5.0.2
 _ZNK13QQmlListModel10metaObjectEv@Qt_5_PRIVATE_API 5.1.0 1
 _ZNK13QQmlListModel3getEi@Qt_5_PRIVATE_API 5.1.0 1
 _ZNK13QQmlListModel4dataERK11QModelIndexi@Qt_5_PRIVATE_API 5.1.0 1
 _ZNK13QQmlListModel4dataEii@Qt_5_PRIVATE_API 5.1.0 1
 _ZNK13QQmlListModel5countEv@Qt_5_PRIVATE_API 5.1.0 1
 _ZNK13QQmlListModel5indexEiiRK11QModelIndex@Qt_5_PRIVATE_API 5.1.0 1
 _ZNK13QQmlListModel6engineEv@Qt_5_PRIVATE_API 5.1.0 1
 _ZNK13QQmlListModel8rowCountERK11QModelIndex@Qt_5_PRIVATE_API 5.1.0 1
 _ZNK13QQmlListModel9roleNamesEv@Qt_5_PRIVATE_API 5.1.0 1
 _ZNK14QQmlExpression10expressionEv@Qt_5 5.0.2
 _ZNK14QQmlExpression10lineNumberEv@Qt_5 5.0.2
 _ZNK14QQmlExpression10metaObjectEv@Qt_5 5.0.2
 _ZNK14QQmlExpression10sourceFileEv@Qt_5 5.0.2
 _ZNK14QQmlExpression11scopeObjectEv@Qt_5 5.0.2
 _ZNK14QQmlExpression12columnNumberEv@Qt_5 5.0.2
 _ZNK14QQmlExpression20notifyOnValueChangedEv@Qt_5 5.0.2
 _ZNK14QQmlExpression5errorEv@Qt_5 5.0.2
 _ZNK14QQmlExpression6engineEv@Qt_5 5.0.2
 _ZNK14QQmlExpression7contextEv@Qt_5 5.0.2
 _ZNK14QQmlExpression8hasErrorEv@Qt_5 5.0.2
 _ZNK14QQmlMetaObject13propertyCacheEP17QQmlEnginePrivate@Qt_5_PRIVATE_API 5.0.2 1
 _ZNK14QQmlMetaObject16methodReturnTypeERK16QQmlPropertyDataP10QByteArray@Qt_5_PRIVATE_API 5.5.0 1
 _ZNK14QQmlMetaObject20methodParameterTypesEiR15QVarLengthArrayIiLi9EEP10QByteArray@Qt_5_PRIVATE_API 5.5.0 1
 _ZNK15QQmlApplication10metaObjectEv@Qt_5_PRIVATE_API 5.1.0 1
 _ZNK15QQmlApplication12organizationEv@Qt_5_PRIVATE_API 5.2.0~beta1 1
 _ZNK15QQmlApplication4nameEv@Qt_5_PRIVATE_API 5.1.0 1
 _ZNK15QQmlApplication6domainEv@Qt_5_PRIVATE_API 5.2.0~beta1 1
 _ZNK15QQmlApplication7versionEv@Qt_5_PRIVATE_API 5.1.0 1
 _ZNK15QQmlBoundSignal10expressionEv@Qt_5_PRIVATE_API 5.0.2 1
 _ZNK15QQmlContextData12findObjectIdEPK7QObject@Qt_5_PRIVATE_API 5.0.2 1
 _ZNK15QQmlContextData13propertyNamesEv@Qt_5_PRIVATE_API 5.5.0 1
 _ZNK15QQmlContextData3urlEv@Qt_5_PRIVATE_API 5.5.0 1
 _ZNK15QQmlContextData9urlStringEv@Qt_5_PRIVATE_API 5.5.0 1
 _ZNK15QQmlObjectModel10metaObjectEv@Qt_5_PRIVATE_API 5.1.0 1
 _ZNK15QQmlObjectModel3getEi@Qt_5_PRIVATE_API 5.6.0~beta 1
 _ZNK15QQmlObjectModel5countEv@Qt_5_PRIVATE_API 5.1.0 1
 _ZNK15QQmlObjectModel7indexOfEP7QObjectS1_@Qt_5_PRIVATE_API 5.1.0 1
 _ZNK15QQmlObjectModel7isValidEv@Qt_5_PRIVATE_API 5.1.0 1
 _ZNK15QQmlPropertyMap10metaObjectEv@Qt_5 5.0.2
 _ZNK15QQmlPropertyMap4keysEv@Qt_5 5.0.2
 _ZNK15QQmlPropertyMap4sizeEv@Qt_5 5.0.2
 _ZNK15QQmlPropertyMap5countEv@Qt_5 5.0.2
 _ZNK15QQmlPropertyMap5valueERK7QString@Qt_5 5.0.2
 _ZNK15QQmlPropertyMap7isEmptyEv@Qt_5 5.0.2
 _ZNK15QQmlPropertyMap8containsERK7QString@Qt_5 5.0.2
 _ZNK15QQmlPropertyMapixERK7QString@Qt_5 5.0.2
 _ZNK15QV4DebugService10metaObjectEv@Qt_5_PRIVATE_API 5.6.0~beta 1
 _ZNK16QJSValueIterator4nameEv@Qt_5 5.0.2
 _ZNK16QJSValueIterator5valueEv@Qt_5 5.0.2
 _ZNK16QJSValueIterator7hasNextEv@Qt_5 5.0.2
 _ZNK16QQmlCustomParser11resolveTypeERK7QString@Qt_5_PRIVATE_API 5.0.2 1
 _ZNK16QQmlCustomParser12evaluateEnumERK10QByteArrayPb@Qt_5_PRIVATE_API 5.0.2 1
 _ZNK16QQmlDebugService10metaObjectEv@Qt_5_PRIVATE_API 5.0.2 1
 _ZNK16QQmlDebugService4nameEv@Qt_5_PRIVATE_API 5.0.2 1
 _ZNK16QQmlDebugService5stateEv@Qt_5_PRIVATE_API 5.0.2 1
 _ZNK16QQmlDebugService7versionEv@Qt_5_PRIVATE_API 5.0.2 1
 _ZNK16QQmlFileSelector10metaObjectEv@Qt_5 5.2.0~beta1
 _ZNK16QQmlScriptString13isNullLiteralEv@Qt_5 5.0.2
 _ZNK16QQmlScriptString13numberLiteralEPb@Qt_5 5.0.2
 _ZNK16QQmlScriptString13stringLiteralEv@Qt_5 5.0.2
 _ZNK16QQmlScriptString14booleanLiteralEPb@Qt_5 5.0.2
 _ZNK16QQmlScriptString18isUndefinedLiteralEv@Qt_5 5.0.2
 _ZNK16QQmlScriptString7isEmptyEv@Qt_5 5.0.2
 _ZNK16QQmlScriptStringeqERKS_@Qt_5 5.4.0
 _ZNK16QQmlScriptStringneERKS_@Qt_5 5.4.0
 _ZNK17QQmlDelegateModel10metaObjectEv@Qt_5_PRIVATE_API 5.1.0 1
 _ZNK17QQmlDelegateModel10modelIndexEi@Qt_5_PRIVATE_API 5.1.0 1
 _ZNK17QQmlDelegateModel11filterGroupEv@Qt_5_PRIVATE_API 5.1.0 1
 _ZNK17QQmlDelegateModel14isDescendantOfERK21QPersistentModelIndexRK5QListIS0_E@Qt_5_PRIVATE_API 5.3.2 1
 _ZNK17QQmlDelegateModel16parentModelIndexEv@Qt_5_PRIVATE_API 5.1.0 1
 _ZNK17QQmlDelegateModel5countEv@Qt_5_PRIVATE_API 5.1.0 1
 _ZNK17QQmlDelegateModel5modelEv@Qt_5_PRIVATE_API 5.1.0 1
 _ZNK17QQmlDelegateModel7indexOfEP7QObjectS1_@Qt_5_PRIVATE_API 5.1.0 1
 _ZNK17QQmlDelegateModel8delegateEv@Qt_5_PRIVATE_API 5.1.0 1
 _ZNK17QQmlDelegateModel9rootIndexEv@Qt_5_PRIVATE_API 5.1.0 1
 _ZNK17QQmlEnginePrivate12isTypeLoadedERK4QUrl@Qt_5_PRIVATE_API 5.0.2 1
 _ZNK17QQmlEnginePrivate12typeCategoryEi@Qt_5_PRIVATE_API 5.0.2 1
 _ZNK17QQmlEnginePrivate14isScriptLoadedERK4QUrl@Qt_5_PRIVATE_API 5.0.2 1
 _ZNK17QQmlEnginePrivate17metaObjectForTypeEi@Qt_5_PRIVATE_API 5.0.2 1
 _ZNK17QQmlEnginePrivate20rawMetaObjectForTypeEi@Qt_5_PRIVATE_API 5.0.2 1
 _ZNK17QQmlEnginePrivate23getNetworkAccessManagerEv@Qt_5_PRIVATE_API 5.0.2 1
 _ZNK17QQmlEnginePrivate26createNetworkAccessManagerEP7QObject@Qt_5_PRIVATE_API 5.0.2 1
 _ZNK17QQmlEnginePrivate6isListEi@Qt_5_PRIVATE_API 5.0.2 1
 _ZNK17QQmlEnginePrivate8listTypeEi@Qt_5_PRIVATE_API 5.0.2 1
 _ZNK17QQmlEnginePrivate9toQObjectERK8QVariantPb@Qt_5_PRIVATE_API 5.0.2 1
 _ZNK17QQmlInstanceModel10metaObjectEv@Qt_5_PRIVATE_API 5.1.0 1
 _ZNK17QQmlListReference10isReadableEv@Qt_5 5.0.2
 _ZNK17QQmlListReference13isManipulableEv@Qt_5 5.0.2
 _ZNK17QQmlListReference15listElementTypeEv@Qt_5 5.0.2
 _ZNK17QQmlListReference2atEi@Qt_5 5.0.2
 _ZNK17QQmlListReference5canAtEv@Qt_5 5.0.2
 _ZNK17QQmlListReference5clearEv@Qt_5 5.0.2
 _ZNK17QQmlListReference5countEv@Qt_5 5.0.2
 _ZNK17QQmlListReference6appendEP7QObject@Qt_5 5.0.2
 _ZNK17QQmlListReference6objectEv@Qt_5 5.0.2
 _ZNK17QQmlListReference7isValidEv@Qt_5 5.0.2
 _ZNK17QQmlListReference8canClearEv@Qt_5 5.0.2
 _ZNK17QQmlListReference8canCountEv@Qt_5 5.0.2
 _ZNK17QQmlListReference9canAppendEv@Qt_5 5.0.2
 _ZNK17QQmlPropertyCache10metaObjectEv@Qt_5_PRIVATE_API 5.0.2 1
 _ZNK17QQmlPropertyCache12findPropertyEN11QStringHashI5QPairIiP16QQmlPropertyDataEE13ConstIteratorEP7QObjectP15QQmlContextData@Qt_5_PRIVATE_API 5.0.2 1
 _ZNK17QQmlPropertyCache12findPropertyEN11QStringHashI5QPairIiP16QQmlPropertyDataEE13ConstIteratorEPK17QQmlVMEMetaObjectP15QQmlContextData@Qt_5_PRIVATE_API 5.0.2 1
 _ZNK17QQmlPropertyCache13propertyNamesEv@Qt_5_PRIVATE_API 5.0.2 1
 _ZNK17QQmlPropertyCache14ensureResolvedEP16QQmlPropertyData@Qt_5_PRIVATE_API 5.0.2 1
 _ZNK17QQmlPropertyCache15defaultPropertyEv@Qt_5_PRIVATE_API 5.0.2 1
 _ZNK17QQmlPropertyCache18firstCppMetaObjectEv@Qt_5_PRIVATE_API 5.0.2 1
 _ZNK17QQmlPropertyCache19defaultPropertyNameEv@Qt_5_PRIVATE_API 5.0.2 1
 _ZNK17QQmlPropertyCache20signalParameterNamesEi@Qt_5_PRIVATE_API 5.0.2 1
 _ZNK17QQmlPropertyCache24methodIndexToSignalIndexEi@Qt_5_PRIVATE_API 5.0.2 1
 _ZNK17QQmlPropertyCache6methodEi@Qt_5_PRIVATE_API 5.0.2 1
 _ZNK17QQmlPropertyCache6parentEv@Qt_5_PRIVATE_API 5.0.2 1
 _ZNK17QQmlPropertyCache6signalEi@Qt_5_PRIVATE_API 5.6.0~beta 1
 _ZNK17QQmlPropertyCache7resolveEP16QQmlPropertyData@Qt_5_PRIVATE_API 5.0.2 1
 _ZNK17QQmlPropertyCache8propertyEi@Qt_5_PRIVATE_API 5.0.2 1
 _ZNK17QQmlPropertyCache8propertyI7QStringEEP16QQmlPropertyDataRKT_P7QObjectP15QQmlContextData@Qt_5_PRIVATE_API 5.2.0~beta1 1
 _ZNK17QQmlPropertyCache9classNameEv@Qt_5_PRIVATE_API 5.0.2 1
 _ZNK17QQmlVMEMetaObject11aliasTargetEiPP7QObjectPiS3_@Qt_5_PRIVATE_API 5.0.2 1
 _ZNK17QQmlVMEMetaObject26getQObjectGuardForPropertyEi@Qt_5_PRIVATE_API 5.0.2 1
 _ZNK18QAnimationGroupJob13debugChildrenE6QDebug@Qt_5_PRIVATE_API 5.3.0 1
 _ZNK18QPauseAnimationJob14debugAnimationE6QDebug@Qt_5_PRIVATE_API 5.3.0 1
 _ZNK18QPauseAnimationJob8durationEv@Qt_5_PRIVATE_API 5.0.2 1
 _ZNK18QQmlAnimationTimer10metaObjectEv@Qt_5_PRIVATE_API 5.0.2 1
 _ZNK18QQmlDebugConnector10metaObjectEv@Qt_5_PRIVATE_API 5.6.0~beta 1
 _ZNK18QQmlOpenMetaObject4nameEi@Qt_5_PRIVATE_API 5.0.2 1
 _ZNK18QQmlOpenMetaObject4typeEv@Qt_5_PRIVATE_API 5.0.2 1
 _ZNK18QQmlOpenMetaObject5countEv@Qt_5_PRIVATE_API 5.0.2 1
 _ZNK18QQmlOpenMetaObject5valueERK10QByteArray@Qt_5_PRIVATE_API 5.0.2 1
 _ZNK18QQmlOpenMetaObject5valueEi@Qt_5_PRIVATE_API 5.0.2 1
 _ZNK18QQmlOpenMetaObject6objectEv@Qt_5_PRIVATE_API 5.0.2 1
 _ZNK18QQmlOpenMetaObject6parentEv@Qt_5_PRIVATE_API 5.0.2 1
 _ZNK18QQmlOpenMetaObject8hasValueEi@Qt_5_PRIVATE_API 5.0.2 1
 _ZNK19QQmlAbstractBinding10expressionEv@Qt_5_PRIVATE_API 5.6.0~beta 1
 _ZNK19QQmlAbstractBinding16isValueTypeProxyEv@Qt_5_PRIVATE_API 5.6.0~beta 1
 _ZNK19QQmlExtensionPlugin10metaObjectEv@Qt_5 5.0.2
 _ZNK19QQmlExtensionPlugin7baseUrlEv@Qt_5 5.1.0
 _ZNK19QQmlProfilerService10metaObjectEv@Qt_5_PRIVATE_API 5.3.0 1
 _ZNK19QQmlPropertyPrivate11isValueTypeEv@Qt_5_PRIVATE_API 5.0.2 1
 _ZNK19QQmlPropertyPrivate11signalIndexEv@Qt_5_PRIVATE_API 5.0.2 1
 _ZNK19QQmlPropertyPrivate12propertyTypeEv@Qt_5_PRIVATE_API 5.0.2 1
 _ZNK19QQmlPropertyPrivate20propertyTypeCategoryEv@Qt_5_PRIVATE_API 5.0.2 1
 _ZNK19QQmlPropertyPrivate4typeEv@Qt_5_PRIVATE_API 5.0.2 1
 _ZNK20QQmlInspectorService10metaObjectEv@Qt_5_PRIVATE_API 5.0.2 1
 _ZNK21QAbstractAnimationJob13totalDurationEv@Qt_5_PRIVATE_API 5.0.2 1
 _ZNK21QAbstractAnimationJob14debugAnimationE6QDebug@Qt_5_PRIVATE_API 5.3.0 1
 _ZNK21QAbstractAnimationJob19userControlDisabledEv@Qt_5_PRIVATE_API 5.0.2 1
 _ZNK21QQmlApplicationEngine10metaObjectEv@Qt_5 5.1.0
 _ZNK21QQmlComponentAttached10metaObjectEv@Qt_5_PRIVATE_API 5.1.0 1
 _ZNK22QQmlDelegateModelGroup10metaObjectEv@Qt_5_PRIVATE_API 5.1.0 1
 _ZNK22QQmlDelegateModelGroup14defaultIncludeEv@Qt_5_PRIVATE_API 5.1.0 1
 _ZNK22QQmlDelegateModelGroup4nameEv@Qt_5_PRIVATE_API 5.1.0 1
 _ZNK22QQmlDelegateModelGroup5countEv@Qt_5_PRIVATE_API 5.1.0 1
 _ZNK22QQmlEngineDebugService10metaObjectEv@Qt_5_PRIVATE_API 5.0.2 1
 _ZNK22QQmlNativeDebugService10metaObjectEv@Qt_5_PRIVATE_API 5.6.0~beta 1
 _ZNK22QQmlOpenMetaObjectType10metaObjectEv@Qt_5_PRIVATE_API 5.0.2 1
 _ZNK22QQmlOpenMetaObjectType12propertyNameEi@Qt_5_PRIVATE_API 5.0.2 1
 _ZNK22QQmlOpenMetaObjectType12signalOffsetEv@Qt_5_PRIVATE_API 5.0.2 1
 _ZNK22QQmlOpenMetaObjectType13propertyCountEv@Qt_5_PRIVATE_API 5.0.2 1
 _ZNK22QQmlOpenMetaObjectType14propertyOffsetEv@Qt_5_PRIVATE_API 5.0.2 1
 _ZNK23QQmlDebugServiceFactory10metaObjectEv@Qt_5_PRIVATE_API 5.6.0~beta 1
 _ZNK24QQmlIncubationController21incubatingObjectCountEv@Qt_5 5.0.2
 _ZNK24QQmlIncubationController6engineEv@Qt_5 5.0.2
 _ZNK24QQmlJavaScriptExpression5errorEP10QQmlEngine@Qt_5_PRIVATE_API 5.6.0~beta 1
 _ZNK25QQmlBoundSignalExpression10expressionEv@Qt_5_PRIVATE_API 5.0.2 1
 _ZNK25QQmlBoundSignalExpression14sourceLocationEv@Qt_5_PRIVATE_API 5.3.0 1
 _ZNK25QQmlBoundSignalExpression8functionEv@Qt_5_PRIVATE_API 5.3.0 1
 _ZNK25QQmlDebugConnectorFactory10metaObjectEv@Qt_5_PRIVATE_API 5.6.0~beta 1
 _ZNK26QParallelAnimationGroupJob14debugAnimationE6QDebug@Qt_5_PRIVATE_API 5.3.0 1
 _ZNK26QParallelAnimationGroupJob20shouldAnimationStartEP21QAbstractAnimationJobb@Qt_5_PRIVATE_API 5.0.2 1
 _ZNK26QParallelAnimationGroupJob8durationEv@Qt_5_PRIVATE_API 5.0.2 1
 _ZNK27QQmlAbstractProfilerAdapter10metaObjectEv@Qt_5_PRIVATE_API 5.3.0 1
 _ZNK28QContinuingAnimationGroupJob14debugAnimationE6QDebug@Qt_5_PRIVATE_API 5.3.0 1
 _ZNK28QSequentialAnimationGroupJob14debugAnimationE6QDebug@Qt_5_PRIVATE_API 5.3.0 1
 _ZNK28QSequentialAnimationGroupJob19indexForCurrentTimeEv@Qt_5_PRIVATE_API 5.0.2 1
 _ZNK28QSequentialAnimationGroupJob28animationActualTotalDurationEP21QAbstractAnimationJob@Qt_5_PRIVATE_API 5.0.2 1
 _ZNK28QSequentialAnimationGroupJob5atEndEv@Qt_5_PRIVATE_API 5.0.2 1
 _ZNK28QSequentialAnimationGroupJob8durationEv@Qt_5_PRIVATE_API 5.0.2 1
 _ZNK3QV411ArrayBuffer11asByteArrayEv@Qt_5_PRIVATE_API 5.5.0 1
 _ZNK3QV411CallContext11formalCountEv@Qt_5_PRIVATE_API 5.6.0~beta 1
 _ZNK3QV411CallContext13variableCountEv@Qt_5_PRIVATE_API 5.6.0~beta 1
 _ZNK3QV411CallContext17needsOwnArgumentsEv@Qt_5_PRIVATE_API 5.6.0~beta 1
 _ZNK3QV411CallContext7formalsEv@Qt_5_PRIVATE_API 5.6.0~beta 1
 _ZNK3QV411CallContext9variablesEv@Qt_5_PRIVATE_API 5.6.0~beta 1
 _ZNK3QV412CompiledData7Binding13valueAsStringEPKNS0_4UnitE@Qt_5_PRIVATE_API 5.3.0 1
 _ZNK3QV412CompiledData7Binding19valueAsScriptStringEPKNS0_4UnitE@Qt_5_PRIVATE_API 5.3.0 1
 _ZNK3QV412EvalFunction8evalCallEPNS_8CallDataEb@Qt_5_PRIVATE_API 5.6.0~beta 1
 _ZNK3QV413MemoryManager10getUsedMemEv@Qt_5_PRIVATE_API 5.4.0 1
 _ZNK3QV413MemoryManager11isGCBlockedEv@Qt_5_PRIVATE_API 5.2.0~beta1 1
 _ZNK3QV413MemoryManager15getAllocatedMemEv@Qt_5_PRIVATE_API 5.4.0 1
 _ZNK3QV413MemoryManager16getLargeItemsMemEv@Qt_5_PRIVATE_API 5.4.0 1
 _ZNK3QV413MemoryManager18collectFromJSStackEv@Qt_5_PRIVATE_API 5.2.0~beta1 1
 _ZNK3QV413MemoryManager9dumpStatsEv@Qt_5_PRIVATE_API 5.2.0~beta1 1
 _ZNK3QV413QObjectMethod12callInternalEPNS_8CallDataE@Qt_5_PRIVATE_API 5.6.0~beta 1
 _ZNK3QV413QObjectMethod14method_destroyEPNS_16ExecutionContextEPKNS_5ValueEi@Qt_5_PRIVATE_API 5.6.0~beta 1
 _ZNK3QV413QObjectMethod15method_toStringEPNS_16ExecutionContextE@Qt_5_PRIVATE_API 5.6.0~beta 1
 _ZNK3QV414FunctionObject14sourceLocationEv@Qt_5_PRIVATE_API 5.5.0 1
 _ZNK3QV414FunctionObject15isBoundFunctionEv@Qt_5_PRIVATE_API 5.5.0 1
 _ZNK3QV414FunctionObject4nameEv@Qt_5_PRIVATE_API 5.6.0~beta 1
 _ZNK3QV414FunctionObject9isBindingEv@Qt_5_PRIVATE_API 5.5.0 1
 _ZNK3QV414QObjectWrapper12findPropertyEPNS_15ExecutionEngineEP15QQmlContextDataPNS_6StringENS0_12RevisionModeEP16QQmlPropertyData@Qt_5_PRIVATE_API 5.2.0~beta1 1
 _ZNK3QV414QObjectWrapper14getQmlPropertyEP15QQmlContextDataPNS_6StringENS0_12RevisionModeEPbb@Qt_5_PRIVATE_API 5.6.0~beta 1
 _ZNK3QV414QmlListWrapper9toVariantEv@Qt_5_PRIVATE_API 5.2.0~beta1 1
 _ZNK3QV414QmlTypeWrapper11isSingletonEv@Qt_5_PRIVATE_API 5.2.0~rc1 1
 _ZNK3QV414QmlTypeWrapper15singletonObjectEv@Qt_5_PRIVATE_API 5.4.0 1
 _ZNK3QV414QmlTypeWrapper9toVariantEv@Qt_5_PRIVATE_API 5.2.0~beta1 1
 _ZNK3QV415ExecutionEngine10qmlContextEv@Qt_5_PRIVATE_API 5.6.0~beta 1
 _ZNK3QV415ExecutionEngine10stackTraceEi@Qt_5_PRIVATE_API 5.2.0~beta1 1
 _ZNK3QV415ExecutionEngine13parentContextEPNS_16ExecutionContextE@Qt_5_PRIVATE_API 5.6.0~beta 1
 _ZNK3QV415ExecutionEngine14qmlScopeObjectEv@Qt_5_PRIVATE_API 5.6.0~beta 1
 _ZNK3QV415ExecutionEngine17callingQmlContextEv@Qt_5_PRIVATE_API 5.6.0~beta 1
 _ZNK3QV415ExecutionEngine17currentStackFrameEv@Qt_5_PRIVATE_API 5.2.0~beta1 1
 _ZNK3QV415ExecutionEngine8jsEngineEv@Qt_5_PRIVATE_API 5.5.0 1
 _ZNK3QV415ExecutionEngine9qmlEngineEv@Qt_5_PRIVATE_API 5.5.0 1
 _ZNK3QV416ExecutionContext17getFunctionObjectEv@Qt_5_PRIVATE_API 5.5.0 1
 _ZNK3QV420QQmlValueTypeWrapper5writeEP7QObjecti@Qt_5_PRIVATE_API 5.5.0 1
 _ZNK3QV420QQmlValueTypeWrapper6typeIdEv@Qt_5_PRIVATE_API 5.5.0 1
 _ZNK3QV420QQmlValueTypeWrapper8toGadgetEPv@Qt_5_PRIVATE_API 5.5.0 1
 _ZNK3QV420QQmlValueTypeWrapper9toVariantEv@Qt_5_PRIVATE_API 5.5.0 1
 _ZNK3QV42IR9Optimizer17lifeTimeIntervalsEv@Qt_5_PRIVATE_API 5.3.1 1
 _ZNK3QV44Heap6String14simplifyStringEv@Qt_5_PRIVATE_API 5.5.0 1
 _ZNK3QV44Heap6String15createHashValueEv@Qt_5_PRIVATE_API 5.5.0 1
 _ZNK3QV44Moth20InstructionSelection11squeezeCodeEv@Qt_5_PRIVATE_API 5.3.0 1
 _ZNK3QV45Value12toNumberImplEv@Qt_5_PRIVATE_API 5.2.0~beta1 1
 _ZNK3QV45Value13asArrayLengthEPb@Qt_5_PRIVATE_API 5.6.0~beta 1
 _ZNK3QV45Value16toQStringNoThrowEv@Qt_5_PRIVATE_API 5.2.0~beta1 1
 (optional=templinst|arch=alpha mips64el)_ZNK3QV45Value2asINS_14FunctionObjectEEEPKT_v@Qt_5_PRIVATE_API 5.6.0~beta 1
 (optional=templinst|arch=alpha mips64el)_ZNK3QV45Value2asINS_14QObjectWrapperEEEPKT_v@Qt_5_PRIVATE_API 5.6.0~beta 1
 _ZNK3QV45Value8toObjectEPNS_15ExecutionEngineE@Qt_5_PRIVATE_API 5.5.0 1
 _ZNK3QV45Value8toStringEPNS_15ExecutionEngineE@Qt_5_PRIVATE_API 5.3.0 1
 _ZNK3QV45Value8toUInt16Ev@Qt_5_PRIVATE_API 5.2.0~beta1 1
 _ZNK3QV45Value9sameValueES0_@Qt_5_PRIVATE_API 5.2.0~beta1 1
 _ZNK3QV45Value9toBooleanEv@Qt_5_PRIVATE_API 5.6.0~beta 1
 _ZNK3QV45Value9toIntegerEv@Qt_5_PRIVATE_API 5.2.0~beta1 1
 _ZNK3QV45Value9toQStringEv@Qt_5_PRIVATE_API 5.2.0~beta1 1
 _ZNK3QV46Object11getPropertyEjPNS_8PropertyEPNS_18PropertyAttributesE@Qt_5_PRIVATE_API 5.6.0~beta 1
 _ZNK3QV46Object11hasPropertyEPNS_6StringE@Qt_5_PRIVATE_API 5.4.0 1
 _ZNK3QV46Object11hasPropertyEj@Qt_5_PRIVATE_API 5.3.0 1
 _ZNK3QV46Object11internalGetEPNS_6StringEPb@Qt_5_PRIVATE_API 5.6.0~beta 1
 _ZNK3QV46Object14hasOwnPropertyEPNS_6StringE@Qt_5_PRIVATE_API 5.4.0 1
 _ZNK3QV46Object14hasOwnPropertyEj@Qt_5_PRIVATE_API 5.3.0 1
 _ZNK3QV46Object18internalGetIndexedEjPb@Qt_5_PRIVATE_API 5.6.0~beta 1
 _ZNK3QV46String18makeIdentifierImplEPNS_15ExecutionEngineE@Qt_5_PRIVATE_API 5.5.0 1
 _ZNK3QV46String6toUIntEPb@Qt_5_PRIVATE_API 5.2.0~beta1 1
 _ZNK3QV47Managed9classNameEv@Qt_5_PRIVATE_API 5.2.0~beta1 1
 _ZNK3QV48Compiler20StringTableGenerator11getStringIdERK7QString@Qt_5_PRIVATE_API 5.3.0 1
 _ZNK3QV49Debugging10V4Debugger10metaObjectEv@Qt_5_PRIVATE_API 5.6.0~beta 1
 _ZNK3QV49Debugging10V4Debugger10stackTraceEi@Qt_5_PRIVATE_API 5.6.0~beta 1
 _ZNK3QV49Debugging10V4Debugger11getFunctionEv@Qt_5_PRIVATE_API 5.6.0~beta 1
 _ZNK3QV49Debugging10V4Debugger13JavaScriptJob11hasExeptionEv@Qt_5_PRIVATE_API 5.6.0~beta 1
 _ZNK3QV49Debugging10V4Debugger21currentExecutionStateEv@Qt_5_PRIVATE_API 5.6.0~beta 1
 _ZNK3QV49Debugging8Debugger10metaObjectEv@Qt_5_PRIVATE_API 5.6.0~beta 1
 _ZNK3QV49Profiling8Profiler10metaObjectEv@Qt_5_PRIVATE_API 5.3.0 1
 _ZNK5QmlIR16QmlUnitGenerator13writeBindingsEPcPNS_6ObjectEMNS_7BindingEKFbvE@Qt_5_PRIVATE_API 5.3.0 1
 _ZNK5QmlIR6Object11findBindingEj@Qt_5_PRIVATE_API 5.3.0 1
 _ZNK5QmlIR6Object15bindingAsStringEPNS_8DocumentEi@Qt_5_PRIVATE_API 5.3.0 1
 _ZNK5QmlIR9IRBuilder14bindingsTargetEv@Qt_5_PRIVATE_API 5.3.0 1
 _ZNK5QmlIR9IRBuilder9textRefAtERKN6QQmlJS3AST14SourceLocationES5_@Qt_5_PRIVATE_API 5.3.0 1
 _ZNK6QQmlJS5Lexer12errorMessageEv@Qt_5 5.3.0
 _ZNK6QQmlJS5Lexer12tokenEndLineEv@Qt_5 5.3.0
 _ZNK6QQmlJS5Lexer14prevTerminatorEv@Qt_5 5.3.0
 _ZNK6QQmlJS5Lexer14tokenEndColumnEv@Qt_5 5.3.0
 _ZNK6QQmlJS5Lexer16isLineTerminatorEv@Qt_5 5.3.0
 _ZNK6QQmlJS5Lexer19followsClosingBraceEv@Qt_5 5.3.0
 _ZNK6QQmlJS5Lexer24isLineTerminatorSequenceEv@Qt_5 5.3.0
 _ZNK6QQmlJS5Lexer27canInsertAutomaticSemicolonEi@Qt_5 5.3.0
 _ZNK6QQmlJS5Lexer4codeEv@Qt_5 5.3.0
 _ZNK6QQmlJS5Lexer7qmlModeEv@Qt_5 5.3.0
 _ZNK6QQmlJS5Lexer9errorCodeEv@Qt_5 5.3.0
 _ZNK6QQmlJS5Lexer9tokenTextEv@Qt_5 5.3.0
 _ZNK6QQmlJS6Engine10directivesEv@Qt_5 5.5.0
 _ZNK6QQmlJS6Engine5lexerEv@Qt_5 5.3.0
 _ZNK6QQmlJS6Engine8commentsEv@Qt_5 5.3.0
 _ZNK6QQmlJS7Codegen6errorsEv@Qt_5_PRIVATE_API 5.2.0~beta1 1
 _ZNK6QQmlJS7Codegen9qmlErrorsEv@Qt_5_PRIVATE_API 5.3.0 1
 _ZNK8QJSValue10isCallableEv@Qt_5 5.0.2
 _ZNK8QJSValue10toDateTimeEv@Qt_5 5.0.2
 _ZNK8QJSValue11hasPropertyERK7QString@Qt_5 5.0.2
 _ZNK8QJSValue11isUndefinedEv@Qt_5 5.0.2
 _ZNK8QJSValue14hasOwnPropertyERK7QString@Qt_5 5.0.2
 _ZNK8QJSValue14strictlyEqualsERKS_@Qt_5 5.0.2
 _ZNK8QJSValue5toIntEv@Qt_5 5.0.2
 _ZNK8QJSValue6engineEv@Qt_5 5.0.2
 _ZNK8QJSValue6equalsERKS_@Qt_5 5.0.2
 _ZNK8QJSValue6isBoolEv@Qt_5 5.0.2
 _ZNK8QJSValue6isDateEv@Qt_5 5.0.2
 _ZNK8QJSValue6isNullEv@Qt_5 5.0.2
 _ZNK8QJSValue6toBoolEv@Qt_5 5.0.2
 _ZNK8QJSValue6toUIntEv@Qt_5 5.0.2
 _ZNK8QJSValue7isArrayEv@Qt_5 5.0.2
 _ZNK8QJSValue7isErrorEv@Qt_5 5.0.2
 _ZNK8QJSValue8isNumberEv@Qt_5 5.0.2
 _ZNK8QJSValue8isObjectEv@Qt_5 5.0.2
 _ZNK8QJSValue8isRegExpEv@Qt_5 5.0.2
 _ZNK8QJSValue8isStringEv@Qt_5 5.0.2
 _ZNK8QJSValue8propertyERK7QString@Qt_5 5.0.2
 _ZNK8QJSValue8propertyEj@Qt_5 5.0.2
 _ZNK8QJSValue8toNumberEv@Qt_5 5.0.2
 _ZNK8QJSValue8toStringEv@Qt_5 5.0.2
 _ZNK8QJSValue9isQObjectEv@Qt_5 5.0.2
 _ZNK8QJSValue9isVariantEv@Qt_5 5.0.2
 _ZNK8QJSValue9prototypeEv@Qt_5 5.0.2
 _ZNK8QJSValue9toQObjectEv@Qt_5 5.0.2
 _ZNK8QJSValue9toVariantEv@Qt_5 5.0.2
 _ZNK8QQmlData18attachedPropertiesEv@Qt_5_PRIVATE_API 5.0.2 1
 _ZNK8QQmlFile13dataByteArrayEv@Qt_5 5.0.2
 _ZNK8QQmlFile3urlEv@Qt_5 5.0.2
 _ZNK8QQmlFile4dataEv@Qt_5 5.0.2
 _ZNK8QQmlFile4sizeEv@Qt_5 5.0.2
 _ZNK8QQmlFile5errorEv@Qt_5 5.0.2
 _ZNK8QQmlFile6isNullEv@Qt_5 5.0.2
 _ZNK8QQmlFile6statusEv@Qt_5 5.0.2
 _ZNK8QQmlFile7isErrorEv@Qt_5 5.0.2
 _ZNK8QQmlFile7isReadyEv@Qt_5 5.0.2
 _ZNK8QQmlFile9isLoadingEv@Qt_5 5.0.2
 _ZNK8QQmlType10createSizeEv@Qt_5_PRIVATE_API 5.0.2 1
 _ZNK8QQmlType10metaObjectEv@Qt_5_PRIVATE_API 5.0.2 1
 _ZNK8QQmlType11elementNameEv@Qt_5_PRIVATE_API 5.0.2 1
 _ZNK8QQmlType11isCompositeEv@Qt_5_PRIVATE_API 5.1.0 1
 _ZNK8QQmlType11isCreatableEv@Qt_5_PRIVATE_API 5.0.2 1
 _ZNK8QQmlType11isInterfaceEv@Qt_5_PRIVATE_API 5.0.2 1
 _ZNK8QQmlType11isSingletonEv@Qt_5_PRIVATE_API 5.0.2 1
 _ZNK8QQmlType11qListTypeIdEv@Qt_5_PRIVATE_API 5.0.2 1
 _ZNK8QQmlType11qmlTypeNameEv@Qt_5_PRIVATE_API 5.0.2 1
 _ZNK8QQmlType12customParserEv@Qt_5_PRIVATE_API 5.0.2 1
 _ZNK8QQmlType12interfaceIIdEv@Qt_5_PRIVATE_API 5.0.2 1
 _ZNK8QQmlType12majorVersionEv@Qt_5_PRIVATE_API 5.0.2 1
 _ZNK8QQmlType12minorVersionEv@Qt_5_PRIVATE_API 5.0.2 1
 _ZNK8QQmlType14baseMetaObjectEv@Qt_5_PRIVATE_API 5.0.2 1
 _ZNK8QQmlType14createFunctionEv@Qt_5_PRIVATE_API 5.0.2 1
 _ZNK8QQmlType14isExtendedTypeEv@Qt_5_PRIVATE_API 5.0.2 1
 _ZNK8QQmlType16noCreationReasonEv@Qt_5_PRIVATE_API 5.0.2 1
 _ZNK8QQmlType16parserStatusCastEv@Qt_5_PRIVATE_API 5.0.2 1
 _ZNK8QQmlType18availableInVersionERK16QHashedStringRefii@Qt_5_PRIVATE_API 5.0.2 1
 _ZNK8QQmlType18availableInVersionEii@Qt_5_PRIVATE_API 5.0.2 1
 _ZNK8QQmlType18metaObjectRevisionEv@Qt_5_PRIVATE_API 5.0.2 1
 _ZNK8QQmlType20attachedPropertiesIdEP17QQmlEnginePrivate@Qt_5_PRIVATE_API 5.6.0~beta 1
 _ZNK8QQmlType20isCompositeSingletonEv@Qt_5_PRIVATE_API 5.2.0~beta1 1
 _ZNK8QQmlType21SingletonInstanceInfo10qobjectApiEP10QQmlEngine@Qt_5_PRIVATE_API 5.0.2 1
 _ZNK8QQmlType21SingletonInstanceInfo9scriptApiEP10QQmlEngine@Qt_5_PRIVATE_API 5.0.2 1
 _ZNK8QQmlType21singletonInstanceInfoEv@Qt_5_PRIVATE_API 5.0.2 1
 _ZNK8QQmlType22attachedPropertiesTypeEP17QQmlEnginePrivate@Qt_5_PRIVATE_API 5.6.0~beta 1
 _ZNK8QQmlType23propertyValueSourceCastEv@Qt_5_PRIVATE_API 5.0.2 1
 _ZNK8QQmlType24resolveCompositeBaseTypeEP17QQmlEnginePrivate@Qt_5_PRIVATE_API 5.6.0~beta 1
 _ZNK8QQmlType25resolveCompositeEnumValueEP17QQmlEnginePrivateRK7QStringPb@Qt_5_PRIVATE_API 5.6.0~beta 1
 _ZNK8QQmlType26attachedPropertiesFunctionEP17QQmlEnginePrivate@Qt_5_PRIVATE_API 5.6.0~beta 1
 _ZNK8QQmlType28containsRevisionedAttributesEv@Qt_5_PRIVATE_API 5.0.2 1
 _ZNK8QQmlType28propertyValueInterceptorCastEv@Qt_5_PRIVATE_API 5.0.2 1
 _ZNK8QQmlType5indexEv@Qt_5_PRIVATE_API 5.0.2 1
 (subst)_ZNK8QQmlType6createEPP7QObjectPPv{size_t}@Qt_5_PRIVATE_API 5.0.2 1
 _ZNK8QQmlType6createEv@Qt_5_PRIVATE_API 5.0.2 1
 _ZNK8QQmlType6moduleEv@Qt_5_PRIVATE_API 5.0.2 1
 _ZNK8QQmlType6typeIdEv@Qt_5_PRIVATE_API 5.0.2 1
 _ZNK8QQmlType8typeNameEv@Qt_5_PRIVATE_API 5.0.2 1
 _ZNK8QQmlType9enumValueEP17QQmlEnginePrivatePKN3QV46StringEPb@Qt_5_PRIVATE_API 5.6.0~beta 1
 _ZNK8QQmlType9enumValueEP17QQmlEnginePrivateRK16QHashedStringRefPb@Qt_5_PRIVATE_API 5.6.0~beta 1
 _ZNK8QQmlType9enumValueEP17QQmlEnginePrivateRK17QHashedCStringRefPb@Qt_5_PRIVATE_API 5.6.0~beta 1
 _ZNK8QQmlType9sourceUrlEv@Qt_5_PRIVATE_API 5.1.0 1
 _ZNK8QQmlType9superTypeEv@Qt_5_PRIVATE_API 5.0.2 1
 _ZNK9QJSEngine10metaObjectEv@Qt_5 5.0.2
 _ZNK9QJSEngine12globalObjectEv@Qt_5 5.0.2
 _ZNK9QQmlError11descriptionEv@Qt_5 5.0.2
 _ZNK9QQmlError3urlEv@Qt_5 5.0.2
 _ZNK9QQmlError4lineEv@Qt_5 5.0.2
 _ZNK9QQmlError6columnEv@Qt_5 5.0.2
 _ZNK9QQmlError6objectEv@Qt_5 5.2.0~beta1
 _ZNK9QQmlError7isValidEv@Qt_5 5.0.2
 _ZNK9QQmlError8toStringEv@Qt_5 5.0.2
 _ZNK9QQmlTimer10metaObjectEv@Qt_5_PRIVATE_API 5.0.2 1
 _ZNK9QQmlTimer11isRepeatingEv@Qt_5_PRIVATE_API 5.0.2 1
 _ZNK9QQmlTimer16triggeredOnStartEv@Qt_5_PRIVATE_API 5.0.2 1
 _ZNK9QQmlTimer8intervalEv@Qt_5_PRIVATE_API 5.0.2 1
 _ZNK9QQmlTimer9isRunningEv@Qt_5_PRIVATE_API 5.0.2 1
 _ZNK9QV8Engine12illegalNamesEv@Qt_5_PRIVATE_API 5.0.2 1
 (optional=templinst|subst)_ZNKSt6vectorIbSaIbEE2atE{size_t}@Qt_5 5.5.0
 (optional=templinst)_ZNSt13_Bvector_baseISaIbEE13_M_deallocateEv@Qt_5 5.4.2
 (optional=templinst)_ZNSt6vectorIPKN3QV44Heap6StringESaIS4_EE12emplace_backIIS4_EEEvDpOT_@Qt_5_PRIVATE_API 5.6.0~rc 1
 (optional=templinst)_ZNSt6vectorIPKN3QV44Heap6StringESaIS4_EE12emplace_backIJS4_EEEvDpOT_@Qt_5_PRIVATE_API 5.5.0 1
 (optional=templinst)_ZNSt6vectorIPKN3QV44Heap6StringESaIS4_EE19_M_emplace_back_auxIIS4_EEEvDpOT_@Qt_5_PRIVATE_API 5.6.0~rc 1
 (optional=templinst)_ZNSt6vectorIPKN3QV44Heap6StringESaIS4_EE19_M_emplace_back_auxIJS4_EEEvDpOT_@Qt_5_PRIVATE_API 5.5.0 1
 (optional=templinst|subst)_ZNSt6vectorIS_IiSaIiEESaIS1_EE17_M_default_appendE{size_t}@Qt_5 5.4.2
 (optional=templinst|subst)_ZNSt6vectorIbSaIbEE13_M_reallocateE{size_t}@Qt_5 5.4.2
 (subst)_ZNSt6vectorIbSaIbEE14_M_fill_assignE{size_t}b@Qt_5 5.4.0
 (subst)_ZNSt6vectorIbSaIbEE14_M_fill_insertESt13_Bit_iterator{size_t}b@Qt_5 5.4.0
 (subst)_ZNSt6vectorIbSaIbEE6resizeE{size_t}b@Qt_5 5.4.2
 (subst)_ZNSt6vectorIbSaIbEEC1E{size_t}RKbRKS0_@Qt_5 5.4.0
 (subst)_ZNSt6vectorIbSaIbEEC2E{size_t}RKbRKS0_@Qt_5 5.4.0
 (optional=templinst|arch=amd64 armhf i386)_ZNSt6vectorIcSaIcEE19_M_emplace_back_auxIIRKcEEEvDpOT_@Qt_5 5.6.0~rc
 (optional=templinst|arch=amd64 armhf i386)_ZNSt6vectorIcSaIcEE19_M_emplace_back_auxIJRKcEEEvDpOT_@Qt_5 5.4.2
 (optional=templinst|subst)_ZNSt6vectorIiSaIiEE14_M_fill_assignE{size_t}RKi@Qt_5 5.4.0
 (optional=templinst|subst)_ZNSt6vectorIiSaIiEE14_M_fill_insertEN9__gnu_cxx17__normal_iteratorIPiS1_EE{size_t}RKi@Qt_5 5.2.1
 (optional=templinst)_ZNSt6vectorIiSaIiEE19_M_emplace_back_auxIIiEEEvDpOT_@Qt_5 5.6.0~rc
 (optional=templinst)_ZNSt6vectorIiSaIiEE19_M_emplace_back_auxIJiEEEvDpOT_@Qt_5 5.3.1
 (optional=templinst|subst)_ZNSt6vectorIiSaIiEE6resizeE{size_t}RKi@Qt_5 5.4.0
 (optional=templinst|subst)_ZNSt6vectorIiSaIiEE7reserveE{size_t}@Qt_5 5.2.1
 (optional=templinst)_ZNSt6vectorIiSaIiEEC1ERKS1_@Qt_5 5.2.1
 (optional=templinst|subst)_ZNSt6vectorIiSaIiEEC1E{size_t}RKiRKS0_@Qt_5 5.2.1
 (optional=templinst)_ZNSt6vectorIiSaIiEEC2ERKS1_@Qt_5 5.2.1
 (optional=templinst|subst)_ZNSt6vectorIiSaIiEEC2E{size_t}RKiRKS0_@Qt_5 5.2.1
 (optional=templinst)_ZNSt6vectorIiSaIiEEaSERKS1_@Qt_5 5.2.1
 (optional=templinst)_ZNSt6vectorItSaItEE12emplace_backIItEEEvDpOT_@Qt_5 5.6.0~rc
 _ZNSt6vectorItSaItEE12emplace_backIJtEEEvDpOT_@Qt_5 5.3.0
 (optional=templinst)_ZNSt6vectorItSaItEE13_M_insert_auxIIRKtEEEvN9__gnu_cxx17__normal_iteratorIPtS1_EEDpOT_@Qt_5 5.6.0~rc
 _ZNSt6vectorItSaItEE13_M_insert_auxIJRKtEEEvN9__gnu_cxx17__normal_iteratorIPtS1_EEDpOT_@Qt_5 5.3.0
 (optional=templinst)_ZNSt6vectorItSaItEE19_M_emplace_back_auxIItEEEvDpOT_@Qt_5 5.6.0~rc
 (optional=templinst)_ZNSt6vectorItSaItEE19_M_emplace_back_auxIJtEEEvDpOT_@Qt_5 5.4.2
 (optional=templinst)_ZNSt6vectorItSaItEE6insertEN9__gnu_cxx17__normal_iteratorIPKtS1_EERS4_@Qt_5 5.4.2
 (optional=templinst|arch=alpha armel armhf powerpc ppc64 ppc64el s390x)_ZSt4swapI11QModelIndexEvRT_S2_@Qt_5 5.5.0
 (optional=templinst)_ZSt4swapI19QItemSelectionRangeEvRT_S2_@Qt_5 5.6.0~rc
 (optional=templinst|arch=alpha armel armhf powerpc ppc64 ppc64el s390x)_ZSt4swapIN6QQmlJS7Codegen6ResultEEvRT_S4_@Qt_5_PRIVATE_API 5.6.0~beta 1
 (optional=templinst|arch=armel armhf i386 kfreebsd-i386 mips mipsel powerpc)_ZSt4swapIN8QVariant7PrivateEEvRT_S3_@Qt_5 5.0.2
 _ZTI10QQmlEngine@Qt_5 5.0.2
 _ZTI11QQmlBinding@Qt_5_PRIVATE_API 5.0.2 1
 _ZTI11QQmlCleanup@Qt_5_PRIVATE_API 5.0.2 1
 _ZTI11QQmlContext@Qt_5 5.0.2
 _ZTI12QQmlDataBlob@Qt_5_PRIVATE_API 5.0.2 1
 _ZTI12QQmlPlatform@Qt_5_PRIVATE_API 5.1.0 1
 _ZTI12QQmlRefCount@Qt_5_PRIVATE_API 5.6.0~beta 1
 _ZTI13QQmlComponent@Qt_5 5.0.2
 _ZTI13QQmlIncubator@Qt_5 5.0.2
 _ZTI13QQmlListModel@Qt_5_PRIVATE_API 5.1.0 1
 _ZTI13QQmlValueType@Qt_5_PRIVATE_API 5.0.2 1
 _ZTI14QQmlExpression@Qt_5 5.0.2
 _ZTI15QQmlApplication@Qt_5_PRIVATE_API 5.1.0 1
 _ZTI15QQmlGuiProvider@Qt_5_PRIVATE_API 5.0.2 1
 _ZTI15QQmlObjectModel@Qt_5_PRIVATE_API 5.1.0 1
 _ZTI15QQmlPropertyMap@Qt_5 5.0.2
 _ZTI15QV4DebugService@Qt_5_PRIVATE_API 5.6.0~beta 1
 _ZTI16QJSEnginePrivate@Qt_5_PRIVATE_API 5.5.0 1
 _ZTI16QQmlCustomParser@Qt_5_PRIVATE_API 5.6.0~beta 1
 _ZTI16QQmlDebugService@Qt_5_PRIVATE_API 5.0.2 1
 _ZTI16QQmlFileSelector@Qt_5 5.2.0~beta1
 _ZTI16QQmlParserStatus@Qt_5 5.0.2
 _ZTI17QQmlColorProvider@Qt_5_PRIVATE_API 5.0.2 1
 _ZTI17QQmlDelegateModel@Qt_5_PRIVATE_API 5.1.0 1
 _ZTI17QQmlEnginePrivate@Qt_5_PRIVATE_API 5.0.2 1
 _ZTI17QQmlInstanceModel@Qt_5_PRIVATE_API 5.1.0 1
 _ZTI17QQmlPropertyCache@Qt_5_PRIVATE_API 5.0.2 1
 _ZTI17QQmlVMEMetaObject@Qt_5_PRIVATE_API 5.0.2 1
 _ZTI18QAnimationGroupJob@Qt_5_PRIVATE_API 5.0.2 1
 _ZTI18QPauseAnimationJob@Qt_5_PRIVATE_API 5.0.2 1
 _ZTI18QQmlAnimationTimer@Qt_5_PRIVATE_API 5.0.2 1
 _ZTI18QQmlDebugConnector@Qt_5_PRIVATE_API 5.6.0~beta 1
 _ZTI18QQmlOpenMetaObject@Qt_5_PRIVATE_API 5.0.2 1
 _ZTI19QQmlAbstractBinding@Qt_5_PRIVATE_API 5.0.2 1
 _ZTI19QQmlExtensionPlugin@Qt_5 5.0.2
 _ZTI19QQmlProfilerService@Qt_5_PRIVATE_API 5.0.2 1
 _ZTI19QQmlPropertyPrivate@Qt_5_PRIVATE_API 5.0.2 1
 _ZTI20QQmlComponentPrivate@Qt_5_PRIVATE_API 5.0.2 1
 _ZTI20QQmlInspectorService@Qt_5_PRIVATE_API 5.0.2 1
 _ZTI21QAbstractAnimationJob@Qt_5_PRIVATE_API 5.0.2 1
 _ZTI21QQmlApplicationEngine@Qt_5 5.1.0
 _ZTI21QQmlComponentAttached@Qt_5_PRIVATE_API 5.1.0 1
 _ZTI21QQmlImageProviderBase@Qt_5 5.0.2
 _ZTI21QQmlValueTypeProvider@Qt_5_PRIVATE_API 5.0.2 1
 _ZTI22QQmlDelegateModelGroup@Qt_5_PRIVATE_API 5.1.0 1
 _ZTI22QQmlEngineDebugService@Qt_5_PRIVATE_API 5.0.2 1
 _ZTI22QQmlExtensionInterface@Qt_5 5.0.2
 _ZTI22QQmlNativeDebugService@Qt_5_PRIVATE_API 5.6.0~beta 1
 _ZTI22QQmlOpenMetaObjectType@Qt_5_PRIVATE_API 5.0.2 1
 _ZTI23QQmlDebugServiceFactory@Qt_5_PRIVATE_API 5.6.0~beta 1
 _ZTI23QQmlFileSelectorPrivate@Qt_5_PRIVATE_API 5.2.0~beta1 1
 _ZTI23QQmlPropertyValueSource@Qt_5 5.0.2
 _ZTI24QQmlIncubationController@Qt_5 5.0.2
 _ZTI24QQmlJavaScriptExpression@Qt_5_PRIVATE_API 5.6.0~beta 1
 _ZTI25QQmlBoundSignalExpression@Qt_5_PRIVATE_API 5.0.2 1
 _ZTI25QQmlDebugConnectorFactory@Qt_5_PRIVATE_API 5.6.0~beta 1
 _ZTI25QQmlInterceptorMetaObject@Qt_5_PRIVATE_API 5.6.0~beta 1
 _ZTI26QParallelAnimationGroupJob@Qt_5_PRIVATE_API 5.0.2 1
 _ZTI26QQmlAbstractUrlInterceptor@Qt_5 5.2.0~beta1
 _ZTI27QAnimationJobChangeListener@Qt_5_PRIVATE_API 5.0.2 1
 _ZTI27QQmlAbstractProfilerAdapter@Qt_5_PRIVATE_API 5.3.0 1
 _ZTI27QQmlFileSelectorInterceptor@Qt_5_PRIVATE_API 5.2.0~rc1 1
 _ZTI27QQmlTypesExtensionInterface@Qt_5 5.0.2
 _ZTI28QContinuingAnimationGroupJob@Qt_5_PRIVATE_API 5.3.0 1
 _ZTI28QQmlApplicationEnginePrivate@Qt_5_PRIVATE_API 5.1.0 1
 _ZTI28QQmlPropertyValueInterceptor@Qt_5_PRIVATE_API 5.0.2 1
 _ZTI28QSequentialAnimationGroupJob@Qt_5_PRIVATE_API 5.0.2 1
 _ZTI31QQmlNetworkAccessManagerFactory@Qt_5 5.0.2
 _ZTI9QJSEngine@Qt_5 5.0.2
 _ZTI9QQmlTimer@Qt_5_PRIVATE_API 5.0.2 1
 _ZTI9QV8Engine@Qt_5_PRIVATE_API 5.0.2 1
 _ZTIN14QQmlTypeLoader4BlobE@Qt_5_PRIVATE_API 5.0.2 1
 _ZTIN15QQmlContextData12ContextGuardE@Qt_5_PRIVATE_API 5.0.2 1
 _ZTIN17QQmlEnginePrivate9DeletableE@Qt_5_PRIVATE_API 5.0.2 1
 _ZTIN3QV412CompiledData15CompilationUnitE@Qt_5_PRIVATE_API 5.2.0~beta1 1
 _ZTIN3QV415EvalISelFactoryE@Qt_5_PRIVATE_API 5.3.0 1
 _ZTIN3QV424EvalInstructionSelectionE@Qt_5_PRIVATE_API 5.3.0 1
 _ZTIN3QV42IR9IRDecoderE@Qt_5_PRIVATE_API 5.3.0 1
 (arch=amd64 armhf i386)_ZTIN3QV43JIT11ISelFactoryE@Qt_5_PRIVATE_API 5.3.0 1
 (arch=amd64 armhf i386)_ZTIN3QV43JIT20InstructionSelectionE@Qt_5_PRIVATE_API 5.3.0 1
 _ZTIN3QV44Moth11ISelFactoryE@Qt_5_PRIVATE_API 5.3.0 1
 _ZTIN3QV44Moth20InstructionSelectionE@Qt_5_PRIVATE_API 5.3.0 1
 _ZTIN3QV49Debugging10V4Debugger13JavaScriptJobE@Qt_5_PRIVATE_API 5.6.0~beta 1
 _ZTIN3QV49Debugging10V4Debugger3JobE@Qt_5_PRIVATE_API 5.6.0~beta 1
 _ZTIN3QV49Debugging10V4DebuggerE@Qt_5_PRIVATE_API 5.6.0~beta 1
 _ZTIN3QV49Debugging8DebuggerE@Qt_5_PRIVATE_API 5.6.0~beta 1
 _ZTIN3QV49Profiling8ProfilerE@Qt_5_PRIVATE_API 5.3.0 1
 _ZTIN5QmlIR25ScriptDirectivesCollectorE@Qt_5_PRIVATE_API 5.5.0 1
 _ZTIN5QmlIR9IRBuilderE@Qt_5_PRIVATE_API 5.3.0 1
 _ZTIN5QmlIR9JSCodeGenE@Qt_5_PRIVATE_API 5.3.0 1
 _ZTIN6QQmlJS10DirectivesE@Qt_5 5.5.0
 _ZTIN6QQmlJS3AST10CaseClauseE@Qt_5 5.3.0
 _ZTIN6QQmlJS3AST10ExpressionE@Qt_5 5.3.0
 _ZTIN6QQmlJS3AST11CaseClausesE@Qt_5 5.3.0
 _ZTIN6QQmlJS3AST11ElementListE@Qt_5 5.3.0
 _ZTIN6QQmlJS3AST11IfStatementE@Qt_5 5.3.0
 _ZTIN6QQmlJS3AST11TrueLiteralE@Qt_5 5.3.0
 _ZTIN6QQmlJS3AST12ArgumentListE@Qt_5 5.3.0
 _ZTIN6QQmlJS3AST12ArrayLiteralE@Qt_5 5.3.0
 _ZTIN6QQmlJS3AST12FalseLiteralE@Qt_5 5.3.0
 _ZTIN6QQmlJS3AST12ForStatementE@Qt_5 5.3.0
 _ZTIN6QQmlJS3AST12FunctionBodyE@Qt_5 5.3.0
 _ZTIN6QQmlJS3AST12PropertyNameE@Qt_5 5.3.0
 _ZTIN6QQmlJS3AST12TryStatementE@Qt_5 5.3.0
 _ZTIN6QQmlJS3AST13DefaultClauseE@Qt_5 5.3.0
 _ZTIN6QQmlJS3AST13NewExpressionE@Qt_5 5.3.0
 _ZTIN6QQmlJS3AST13NotExpressionE@Qt_5 5.3.0
 _ZTIN6QQmlJS3AST13ObjectLiteralE@Qt_5 5.3.0
 _ZTIN6QQmlJS3AST13RegExpLiteralE@Qt_5 5.3.0
 _ZTIN6QQmlJS3AST13SourceElementE@Qt_5 5.3.0
 _ZTIN6QQmlJS3AST13StatementListE@Qt_5 5.3.0
 _ZTIN6QQmlJS3AST13StringLiteralE@Qt_5 5.3.0
 _ZTIN6QQmlJS3AST13UiQualifiedIdE@Qt_5 5.3.0
 _ZTIN6QQmlJS3AST13WithStatementE@Qt_5 5.3.0
 _ZTIN6QQmlJS3AST14BreakStatementE@Qt_5 5.3.0
 _ZTIN6QQmlJS3AST14CallExpressionE@Qt_5 5.3.0
 _ZTIN6QQmlJS3AST14EmptyStatementE@Qt_5 5.3.0
 _ZTIN6QQmlJS3AST14ExpressionNodeE@Qt_5_PRIVATE_API 5.3.0 1
 _ZTIN6QQmlJS3AST14NullExpressionE@Qt_5 5.3.0
 _ZTIN6QQmlJS3AST14NumericLiteralE@Qt_5 5.3.0
 _ZTIN6QQmlJS3AST14SourceElementsE@Qt_5 5.3.0
 _ZTIN6QQmlJS3AST14ThisExpressionE@Qt_5 5.3.0
 _ZTIN6QQmlJS3AST14ThrowStatementE@Qt_5 5.3.0
 _ZTIN6QQmlJS3AST14UiArrayBindingE@Qt_5 5.3.0
 _ZTIN6QQmlJS3AST14UiObjectMemberE@Qt_5 5.3.0
 _ZTIN6QQmlJS3AST14UiPublicMemberE@Qt_5 5.3.0
 _ZTIN6QQmlJS3AST14VoidExpressionE@Qt_5 5.3.0
 _ZTIN6QQmlJS3AST14WhileStatementE@Qt_5 5.3.0
 _ZTIN6QQmlJS3AST15ReturnStatementE@Qt_5 5.3.0
 _ZTIN6QQmlJS3AST15SwitchStatementE@Qt_5 5.3.0
 _ZTIN6QQmlJS3AST15TildeExpressionE@Qt_5 5.3.0
 _ZTIN6QQmlJS3AST15UiObjectBindingE@Qt_5 5.3.0
 _ZTIN6QQmlJS3AST15UiParameterListE@Qt_5 5.3.0
 _ZTIN6QQmlJS3AST15UiScriptBindingE@Qt_5 5.3.0
 _ZTIN6QQmlJS3AST15UiSourceElementE@Qt_5 5.3.0
 _ZTIN6QQmlJS3AST16BinaryExpressionE@Qt_5 5.3.0
 _ZTIN6QQmlJS3AST16DeleteExpressionE@Qt_5 5.3.0
 _ZTIN6QQmlJS3AST16DoWhileStatementE@Qt_5 5.3.0
 _ZTIN6QQmlJS3AST16ForEachStatementE@Qt_5 5.3.0
 _ZTIN6QQmlJS3AST16NestedExpressionE@Qt_5 5.3.0
 _ZTIN6QQmlJS3AST16TypeOfExpressionE@Qt_5 5.3.0
 _ZTIN6QQmlJS3AST16UiHeaderItemListE@Qt_5 5.3.0
 _ZTIN6QQmlJS3AST17ContinueStatementE@Qt_5 5.3.0
 _ZTIN6QQmlJS3AST17DebuggerStatementE@Qt_5 5.3.0
 _ZTIN6QQmlJS3AST17LabelledStatementE@Qt_5 5.3.0
 _ZTIN6QQmlJS3AST17LocalForStatementE@Qt_5 5.3.0
 _ZTIN6QQmlJS3AST17UiArrayMemberListE@Qt_5 5.3.0
 _ZTIN6QQmlJS3AST17VariableStatementE@Qt_5 5.3.0
 _ZTIN6QQmlJS3AST18FunctionExpressionE@Qt_5_PRIVATE_API 5.3.0 1
 _ZTIN6QQmlJS3AST18PropertyAssignmentE@Qt_5 5.3.0
 _ZTIN6QQmlJS3AST18UiObjectDefinitionE@Qt_5 5.3.0
 _ZTIN6QQmlJS3AST18UiObjectMemberListE@Qt_5 5.3.0
 _ZTIN6QQmlJS3AST19ExpressionStatementE@Qt_5 5.3.0
 _ZTIN6QQmlJS3AST19FormalParameterListE@Qt_5 5.3.0
 _ZTIN6QQmlJS3AST19FunctionDeclarationE@Qt_5 5.3.0
 _ZTIN6QQmlJS3AST19NewMemberExpressionE@Qt_5 5.3.0
 _ZTIN6QQmlJS3AST19UiObjectInitializerE@Qt_5 5.3.0
 _ZTIN6QQmlJS3AST19UiQualifiedPragmaIdE@Qt_5 5.3.0
 _ZTIN6QQmlJS3AST19UnaryPlusExpressionE@Qt_5 5.3.0
 _ZTIN6QQmlJS3AST19VariableDeclarationE@Qt_5 5.3.0
 _ZTIN6QQmlJS3AST20IdentifierExpressionE@Qt_5 5.3.0
 _ZTIN6QQmlJS3AST20PropertyGetterSetterE@Qt_5 5.3.0
 _ZTIN6QQmlJS3AST20PropertyNameAndValueE@Qt_5 5.3.0
 _ZTIN6QQmlJS3AST20UnaryMinusExpressionE@Qt_5 5.3.0
 _ZTIN6QQmlJS3AST21ArrayMemberExpressionE@Qt_5 5.3.0
 _ZTIN6QQmlJS3AST21ConditionalExpressionE@Qt_5 5.3.0
 _ZTIN6QQmlJS3AST21FieldMemberExpressionE@Qt_5 5.3.0
 _ZTIN6QQmlJS3AST21FunctionSourceElementE@Qt_5 5.3.0
 _ZTIN6QQmlJS3AST21LocalForEachStatementE@Qt_5 5.3.0
 _ZTIN6QQmlJS3AST22IdentifierPropertyNameE@Qt_5 5.3.0
 _ZTIN6QQmlJS3AST22PreDecrementExpressionE@Qt_5 5.3.0
 _ZTIN6QQmlJS3AST22PreIncrementExpressionE@Qt_5 5.3.0
 _ZTIN6QQmlJS3AST22PropertyAssignmentListE@Qt_5 5.3.0
 _ZTIN6QQmlJS3AST22StatementSourceElementE@Qt_5 5.3.0
 _ZTIN6QQmlJS3AST23PostDecrementExpressionE@Qt_5 5.3.0
 _ZTIN6QQmlJS3AST23PostIncrementExpressionE@Qt_5 5.3.0
 _ZTIN6QQmlJS3AST23VariableDeclarationListE@Qt_5 5.3.0
 _ZTIN6QQmlJS3AST25StringLiteralPropertyNameE@Qt_5 5.3.0
 _ZTIN6QQmlJS3AST26NumericLiteralPropertyNameE@Qt_5 5.3.0
 _ZTIN6QQmlJS3AST4NodeE@Qt_5 5.3.0
 _ZTIN6QQmlJS3AST5BlockE@Qt_5 5.3.0
 _ZTIN6QQmlJS3AST5CatchE@Qt_5 5.3.0
 _ZTIN6QQmlJS3AST7ElisionE@Qt_5 5.3.0
 _ZTIN6QQmlJS3AST7FinallyE@Qt_5 5.3.0
 _ZTIN6QQmlJS3AST7ProgramE@Qt_5 5.3.0
 _ZTIN6QQmlJS3AST7VisitorE@Qt_5 5.3.0
 _ZTIN6QQmlJS3AST8UiImportE@Qt_5 5.3.0
 _ZTIN6QQmlJS3AST8UiPragmaE@Qt_5 5.3.0
 _ZTIN6QQmlJS3AST9CaseBlockE@Qt_5 5.3.0
 _ZTIN6QQmlJS3AST9StatementE@Qt_5 5.3.0
 _ZTIN6QQmlJS3AST9UiProgramE@Qt_5 5.3.0
 _ZTIN6QQmlJS7Codegen13ScanFunctionsE@Qt_5_PRIVATE_API 5.2.0~beta1 1
 _ZTIN6QQmlJS7CodegenE@Qt_5_PRIVATE_API 5.2.0~beta1 1
 _ZTIN6QQmlJS7ManagedE@Qt_5_PRIVATE_API 5.3.0 1
 _ZTIN9QV8Engine9DeletableE@Qt_5_PRIVATE_API 5.0.2 1
 _ZTS10QQmlEngine@Qt_5 5.0.2
 _ZTS11QQmlBinding@Qt_5_PRIVATE_API 5.0.2 1
 _ZTS11QQmlCleanup@Qt_5_PRIVATE_API 5.0.2 1
 _ZTS11QQmlContext@Qt_5 5.0.2
 _ZTS12QQmlDataBlob@Qt_5_PRIVATE_API 5.0.2 1
 _ZTS12QQmlPlatform@Qt_5_PRIVATE_API 5.1.0 1
 _ZTS12QQmlRefCount@Qt_5_PRIVATE_API 5.6.0~beta 1
 _ZTS13QQmlComponent@Qt_5 5.0.2
 _ZTS13QQmlIncubator@Qt_5 5.0.2
 _ZTS13QQmlListModel@Qt_5_PRIVATE_API 5.1.0 1
 _ZTS13QQmlValueType@Qt_5_PRIVATE_API 5.0.2 1
 _ZTS14QQmlExpression@Qt_5 5.0.2
 _ZTS15QQmlApplication@Qt_5_PRIVATE_API 5.1.0 1
 _ZTS15QQmlGuiProvider@Qt_5_PRIVATE_API 5.0.2 1
 _ZTS15QQmlObjectModel@Qt_5_PRIVATE_API 5.1.0 1
 _ZTS15QQmlPropertyMap@Qt_5 5.0.2
 _ZTS15QV4DebugService@Qt_5_PRIVATE_API 5.6.0~beta 1
 _ZTS16QJSEnginePrivate@Qt_5_PRIVATE_API 5.5.0 1
 _ZTS16QQmlCustomParser@Qt_5_PRIVATE_API 5.6.0~beta 1
 _ZTS16QQmlDebugService@Qt_5_PRIVATE_API 5.0.2 1
 _ZTS16QQmlFileSelector@Qt_5 5.2.0~beta1
 _ZTS16QQmlParserStatus@Qt_5 5.0.2
 _ZTS17QQmlColorProvider@Qt_5_PRIVATE_API 5.0.2 1
 _ZTS17QQmlDelegateModel@Qt_5_PRIVATE_API 5.1.0 1
 _ZTS17QQmlEnginePrivate@Qt_5_PRIVATE_API 5.0.2 1
 _ZTS17QQmlInstanceModel@Qt_5_PRIVATE_API 5.1.0 1
 _ZTS17QQmlPropertyCache@Qt_5_PRIVATE_API 5.0.2 1
 _ZTS17QQmlVMEMetaObject@Qt_5_PRIVATE_API 5.0.2 1
 _ZTS18QAnimationGroupJob@Qt_5_PRIVATE_API 5.0.2 1
 _ZTS18QPauseAnimationJob@Qt_5_PRIVATE_API 5.0.2 1
 _ZTS18QQmlAnimationTimer@Qt_5_PRIVATE_API 5.0.2 1
 _ZTS18QQmlDebugConnector@Qt_5_PRIVATE_API 5.6.0~beta 1
 _ZTS18QQmlOpenMetaObject@Qt_5_PRIVATE_API 5.0.2 1
 _ZTS19QQmlAbstractBinding@Qt_5_PRIVATE_API 5.0.2 1
 _ZTS19QQmlExtensionPlugin@Qt_5 5.0.2
 _ZTS19QQmlProfilerService@Qt_5_PRIVATE_API 5.0.2 1
 _ZTS19QQmlPropertyPrivate@Qt_5_PRIVATE_API 5.0.2 1
 _ZTS20QQmlComponentPrivate@Qt_5_PRIVATE_API 5.0.2 1
 _ZTS20QQmlInspectorService@Qt_5_PRIVATE_API 5.0.2 1
 _ZTS21QAbstractAnimationJob@Qt_5_PRIVATE_API 5.0.2 1
 _ZTS21QQmlApplicationEngine@Qt_5 5.1.0
 _ZTS21QQmlComponentAttached@Qt_5_PRIVATE_API 5.1.0 1
 _ZTS21QQmlImageProviderBase@Qt_5 5.0.2
 _ZTS21QQmlValueTypeProvider@Qt_5_PRIVATE_API 5.0.2 1
 _ZTS22QQmlDelegateModelGroup@Qt_5_PRIVATE_API 5.1.0 1
 _ZTS22QQmlEngineDebugService@Qt_5_PRIVATE_API 5.0.2 1
 _ZTS22QQmlExtensionInterface@Qt_5 5.0.2
 _ZTS22QQmlNativeDebugService@Qt_5_PRIVATE_API 5.6.0~beta 1
 _ZTS22QQmlOpenMetaObjectType@Qt_5_PRIVATE_API 5.0.2 1
 _ZTS23QQmlDebugServiceFactory@Qt_5_PRIVATE_API 5.6.0~beta 1
 _ZTS23QQmlFileSelectorPrivate@Qt_5_PRIVATE_API 5.2.0~beta1 1
 _ZTS23QQmlPropertyValueSource@Qt_5 5.0.2
 _ZTS24QQmlIncubationController@Qt_5 5.0.2
 _ZTS24QQmlJavaScriptExpression@Qt_5_PRIVATE_API 5.6.0~beta 1
 _ZTS25QQmlBoundSignalExpression@Qt_5_PRIVATE_API 5.0.2 1
 _ZTS25QQmlDebugConnectorFactory@Qt_5_PRIVATE_API 5.6.0~beta 1
 _ZTS25QQmlInterceptorMetaObject@Qt_5_PRIVATE_API 5.6.0~beta 1
 _ZTS26QParallelAnimationGroupJob@Qt_5_PRIVATE_API 5.0.2 1
 _ZTS26QQmlAbstractUrlInterceptor@Qt_5 5.2.0~beta1
 _ZTS27QAnimationJobChangeListener@Qt_5_PRIVATE_API 5.0.2 1
 _ZTS27QQmlAbstractProfilerAdapter@Qt_5_PRIVATE_API 5.3.0 1
 _ZTS27QQmlFileSelectorInterceptor@Qt_5_PRIVATE_API 5.2.0~rc1 1
 _ZTS27QQmlTypesExtensionInterface@Qt_5 5.0.2
 _ZTS28QContinuingAnimationGroupJob@Qt_5_PRIVATE_API 5.3.0 1
 _ZTS28QQmlApplicationEnginePrivate@Qt_5_PRIVATE_API 5.1.0 1
 _ZTS28QQmlPropertyValueInterceptor@Qt_5_PRIVATE_API 5.0.2 1
 _ZTS28QSequentialAnimationGroupJob@Qt_5_PRIVATE_API 5.0.2 1
 _ZTS31QQmlNetworkAccessManagerFactory@Qt_5 5.0.2
 _ZTS9QJSEngine@Qt_5 5.0.2
 _ZTS9QQmlTimer@Qt_5_PRIVATE_API 5.0.2 1
 _ZTS9QV8Engine@Qt_5_PRIVATE_API 5.0.2 1
 _ZTSN14QQmlTypeLoader4BlobE@Qt_5_PRIVATE_API 5.0.2 1
 _ZTSN15QQmlContextData12ContextGuardE@Qt_5_PRIVATE_API 5.0.2 1
 _ZTSN17QQmlEnginePrivate9DeletableE@Qt_5_PRIVATE_API 5.0.2 1
 _ZTSN3QV412CompiledData15CompilationUnitE@Qt_5_PRIVATE_API 5.2.0~beta1 1
 _ZTSN3QV415EvalISelFactoryE@Qt_5_PRIVATE_API 5.3.0 1
 _ZTSN3QV424EvalInstructionSelectionE@Qt_5_PRIVATE_API 5.3.0 1
 _ZTSN3QV42IR9IRDecoderE@Qt_5_PRIVATE_API 5.3.0 1
 (arch=amd64 armhf i386)_ZTSN3QV43JIT11ISelFactoryE@Qt_5_PRIVATE_API 5.3.0 1
 (arch=amd64 armhf i386)_ZTSN3QV43JIT20InstructionSelectionE@Qt_5_PRIVATE_API 5.3.0 1
 _ZTSN3QV44Moth11ISelFactoryE@Qt_5_PRIVATE_API 5.3.0 1
 _ZTSN3QV44Moth20InstructionSelectionE@Qt_5_PRIVATE_API 5.3.0 1
 _ZTSN3QV49Debugging10V4Debugger13JavaScriptJobE@Qt_5_PRIVATE_API 5.6.0~beta 1
 _ZTSN3QV49Debugging10V4Debugger3JobE@Qt_5_PRIVATE_API 5.6.0~beta 1
 _ZTSN3QV49Debugging10V4DebuggerE@Qt_5_PRIVATE_API 5.6.0~beta 1
 _ZTSN3QV49Debugging8DebuggerE@Qt_5_PRIVATE_API 5.6.0~beta 1
 _ZTSN3QV49Profiling8ProfilerE@Qt_5_PRIVATE_API 5.3.0 1
 _ZTSN5QmlIR25ScriptDirectivesCollectorE@Qt_5_PRIVATE_API 5.5.0 1
 _ZTSN5QmlIR9IRBuilderE@Qt_5_PRIVATE_API 5.3.0 1
 _ZTSN5QmlIR9JSCodeGenE@Qt_5_PRIVATE_API 5.3.0 1
 _ZTSN6QQmlJS10DirectivesE@Qt_5 5.5.0
 _ZTSN6QQmlJS3AST10CaseClauseE@Qt_5 5.3.0
 _ZTSN6QQmlJS3AST10ExpressionE@Qt_5 5.3.0
 _ZTSN6QQmlJS3AST11CaseClausesE@Qt_5 5.3.0
 _ZTSN6QQmlJS3AST11ElementListE@Qt_5 5.3.0
 _ZTSN6QQmlJS3AST11IfStatementE@Qt_5 5.3.0
 _ZTSN6QQmlJS3AST11TrueLiteralE@Qt_5 5.3.0
 _ZTSN6QQmlJS3AST12ArgumentListE@Qt_5 5.3.0
 _ZTSN6QQmlJS3AST12ArrayLiteralE@Qt_5 5.3.0
 _ZTSN6QQmlJS3AST12FalseLiteralE@Qt_5 5.3.0
 _ZTSN6QQmlJS3AST12ForStatementE@Qt_5 5.3.0
 _ZTSN6QQmlJS3AST12FunctionBodyE@Qt_5 5.3.0
 _ZTSN6QQmlJS3AST12PropertyNameE@Qt_5 5.3.0
 _ZTSN6QQmlJS3AST12TryStatementE@Qt_5 5.3.0
 _ZTSN6QQmlJS3AST13DefaultClauseE@Qt_5 5.3.0
 _ZTSN6QQmlJS3AST13NewExpressionE@Qt_5 5.3.0
 _ZTSN6QQmlJS3AST13NotExpressionE@Qt_5 5.3.0
 _ZTSN6QQmlJS3AST13ObjectLiteralE@Qt_5 5.3.0
 _ZTSN6QQmlJS3AST13RegExpLiteralE@Qt_5 5.3.0
 _ZTSN6QQmlJS3AST13SourceElementE@Qt_5 5.3.0
 _ZTSN6QQmlJS3AST13StatementListE@Qt_5 5.3.0
 _ZTSN6QQmlJS3AST13StringLiteralE@Qt_5 5.3.0
 _ZTSN6QQmlJS3AST13UiQualifiedIdE@Qt_5 5.3.0
 _ZTSN6QQmlJS3AST13WithStatementE@Qt_5 5.3.0
 _ZTSN6QQmlJS3AST14BreakStatementE@Qt_5 5.3.0
 _ZTSN6QQmlJS3AST14CallExpressionE@Qt_5 5.3.0
 _ZTSN6QQmlJS3AST14EmptyStatementE@Qt_5 5.3.0
 _ZTSN6QQmlJS3AST14ExpressionNodeE@Qt_5_PRIVATE_API 5.3.0 1
 _ZTSN6QQmlJS3AST14NullExpressionE@Qt_5 5.3.0
 _ZTSN6QQmlJS3AST14NumericLiteralE@Qt_5 5.3.0
 _ZTSN6QQmlJS3AST14SourceElementsE@Qt_5 5.3.0
 _ZTSN6QQmlJS3AST14ThisExpressionE@Qt_5 5.3.0
 _ZTSN6QQmlJS3AST14ThrowStatementE@Qt_5 5.3.0
 _ZTSN6QQmlJS3AST14UiArrayBindingE@Qt_5 5.3.0
 _ZTSN6QQmlJS3AST14UiObjectMemberE@Qt_5 5.3.0
 _ZTSN6QQmlJS3AST14UiPublicMemberE@Qt_5 5.3.0
 _ZTSN6QQmlJS3AST14VoidExpressionE@Qt_5 5.3.0
 _ZTSN6QQmlJS3AST14WhileStatementE@Qt_5 5.3.0
 _ZTSN6QQmlJS3AST15ReturnStatementE@Qt_5 5.3.0
 _ZTSN6QQmlJS3AST15SwitchStatementE@Qt_5 5.3.0
 _ZTSN6QQmlJS3AST15TildeExpressionE@Qt_5 5.3.0
 _ZTSN6QQmlJS3AST15UiObjectBindingE@Qt_5 5.3.0
 _ZTSN6QQmlJS3AST15UiParameterListE@Qt_5 5.3.0
 _ZTSN6QQmlJS3AST15UiScriptBindingE@Qt_5 5.3.0
 _ZTSN6QQmlJS3AST15UiSourceElementE@Qt_5 5.3.0
 _ZTSN6QQmlJS3AST16BinaryExpressionE@Qt_5 5.3.0
 _ZTSN6QQmlJS3AST16DeleteExpressionE@Qt_5 5.3.0
 _ZTSN6QQmlJS3AST16DoWhileStatementE@Qt_5 5.3.0
 _ZTSN6QQmlJS3AST16ForEachStatementE@Qt_5 5.3.0
 _ZTSN6QQmlJS3AST16NestedExpressionE@Qt_5 5.3.0
 _ZTSN6QQmlJS3AST16TypeOfExpressionE@Qt_5 5.3.0
 _ZTSN6QQmlJS3AST16UiHeaderItemListE@Qt_5 5.3.0
 _ZTSN6QQmlJS3AST17ContinueStatementE@Qt_5 5.3.0
 _ZTSN6QQmlJS3AST17DebuggerStatementE@Qt_5 5.3.0
 _ZTSN6QQmlJS3AST17LabelledStatementE@Qt_5 5.3.0
 _ZTSN6QQmlJS3AST17LocalForStatementE@Qt_5 5.3.0
 _ZTSN6QQmlJS3AST17UiArrayMemberListE@Qt_5 5.3.0
 _ZTSN6QQmlJS3AST17VariableStatementE@Qt_5 5.3.0
 _ZTSN6QQmlJS3AST18FunctionExpressionE@Qt_5_PRIVATE_API 5.3.0 1
 _ZTSN6QQmlJS3AST18PropertyAssignmentE@Qt_5 5.3.0
 _ZTSN6QQmlJS3AST18UiObjectDefinitionE@Qt_5 5.3.0
 _ZTSN6QQmlJS3AST18UiObjectMemberListE@Qt_5 5.3.0
 _ZTSN6QQmlJS3AST19ExpressionStatementE@Qt_5 5.3.0
 _ZTSN6QQmlJS3AST19FormalParameterListE@Qt_5 5.3.0
 _ZTSN6QQmlJS3AST19FunctionDeclarationE@Qt_5 5.3.0
 _ZTSN6QQmlJS3AST19NewMemberExpressionE@Qt_5 5.3.0
 _ZTSN6QQmlJS3AST19UiObjectInitializerE@Qt_5 5.3.0
 _ZTSN6QQmlJS3AST19UiQualifiedPragmaIdE@Qt_5 5.3.0
 _ZTSN6QQmlJS3AST19UnaryPlusExpressionE@Qt_5 5.3.0
 _ZTSN6QQmlJS3AST19VariableDeclarationE@Qt_5 5.3.0
 _ZTSN6QQmlJS3AST20IdentifierExpressionE@Qt_5 5.3.0
 _ZTSN6QQmlJS3AST20PropertyGetterSetterE@Qt_5 5.3.0
 _ZTSN6QQmlJS3AST20PropertyNameAndValueE@Qt_5 5.3.0
 _ZTSN6QQmlJS3AST20UnaryMinusExpressionE@Qt_5 5.3.0
 _ZTSN6QQmlJS3AST21ArrayMemberExpressionE@Qt_5 5.3.0
 _ZTSN6QQmlJS3AST21ConditionalExpressionE@Qt_5 5.3.0
 _ZTSN6QQmlJS3AST21FieldMemberExpressionE@Qt_5 5.3.0
 _ZTSN6QQmlJS3AST21FunctionSourceElementE@Qt_5 5.3.0
 _ZTSN6QQmlJS3AST21LocalForEachStatementE@Qt_5 5.3.0
 _ZTSN6QQmlJS3AST22IdentifierPropertyNameE@Qt_5 5.3.0
 _ZTSN6QQmlJS3AST22PreDecrementExpressionE@Qt_5 5.3.0
 _ZTSN6QQmlJS3AST22PreIncrementExpressionE@Qt_5 5.3.0
 _ZTSN6QQmlJS3AST22PropertyAssignmentListE@Qt_5 5.3.0
 _ZTSN6QQmlJS3AST22StatementSourceElementE@Qt_5 5.3.0
 _ZTSN6QQmlJS3AST23PostDecrementExpressionE@Qt_5 5.3.0
 _ZTSN6QQmlJS3AST23PostIncrementExpressionE@Qt_5 5.3.0
 _ZTSN6QQmlJS3AST23VariableDeclarationListE@Qt_5 5.3.0
 _ZTSN6QQmlJS3AST25StringLiteralPropertyNameE@Qt_5 5.3.0
 _ZTSN6QQmlJS3AST26NumericLiteralPropertyNameE@Qt_5 5.3.0
 _ZTSN6QQmlJS3AST4NodeE@Qt_5 5.3.0
 _ZTSN6QQmlJS3AST5BlockE@Qt_5 5.3.0
 _ZTSN6QQmlJS3AST5CatchE@Qt_5 5.3.0
 _ZTSN6QQmlJS3AST7ElisionE@Qt_5 5.3.0
 _ZTSN6QQmlJS3AST7FinallyE@Qt_5 5.3.0
 _ZTSN6QQmlJS3AST7ProgramE@Qt_5 5.3.0
 _ZTSN6QQmlJS3AST7VisitorE@Qt_5 5.3.0
 _ZTSN6QQmlJS3AST8UiImportE@Qt_5 5.3.0
 _ZTSN6QQmlJS3AST8UiPragmaE@Qt_5 5.3.0
 _ZTSN6QQmlJS3AST9CaseBlockE@Qt_5 5.3.0
 _ZTSN6QQmlJS3AST9StatementE@Qt_5 5.3.0
 _ZTSN6QQmlJS3AST9UiProgramE@Qt_5 5.3.0
 _ZTSN6QQmlJS7Codegen13ScanFunctionsE@Qt_5_PRIVATE_API 5.2.0~beta1 1
 _ZTSN6QQmlJS7CodegenE@Qt_5_PRIVATE_API 5.2.0~beta1 1
 _ZTSN6QQmlJS7ManagedE@Qt_5_PRIVATE_API 5.3.0 1
 _ZTSN9QV8Engine9DeletableE@Qt_5_PRIVATE_API 5.0.2 1
 _ZTV10QQmlEngine@Qt_5 5.0.2
 _ZTV11QQmlBinding@Qt_5_PRIVATE_API 5.0.2 1
 _ZTV11QQmlCleanup@Qt_5_PRIVATE_API 5.0.2 1
 _ZTV11QQmlContext@Qt_5 5.0.2
 _ZTV12QQmlDataBlob@Qt_5_PRIVATE_API 5.0.2 1
 _ZTV12QQmlPlatform@Qt_5_PRIVATE_API 5.1.0 1
 _ZTV12QQmlRefCount@Qt_5_PRIVATE_API 5.4.0 1
 _ZTV13QQmlComponent@Qt_5 5.0.2
 _ZTV13QQmlIncubator@Qt_5 5.0.2
 _ZTV13QQmlListModel@Qt_5_PRIVATE_API 5.1.0 1
 _ZTV13QQmlValueType@Qt_5_PRIVATE_API 5.0.2 1
 _ZTV14QQmlExpression@Qt_5 5.0.2
 _ZTV15QQmlApplication@Qt_5_PRIVATE_API 5.1.0 1
 _ZTV15QQmlGuiProvider@Qt_5_PRIVATE_API 5.0.2 1
 _ZTV15QQmlObjectModel@Qt_5_PRIVATE_API 5.1.0 1
 _ZTV15QQmlPropertyMap@Qt_5 5.0.2
 _ZTV15QV4DebugService@Qt_5_PRIVATE_API 5.6.0~beta 1
 _ZTV16QJSEnginePrivate@Qt_5_PRIVATE_API 5.5.0 1
 _ZTV16QQmlCustomParser@Qt_5_PRIVATE_API 5.6.0~beta 1
 _ZTV16QQmlDebugService@Qt_5_PRIVATE_API 5.0.2 1
 _ZTV16QQmlFileSelector@Qt_5 5.2.0~beta1
 _ZTV16QQmlParserStatus@Qt_5 5.0.2
 _ZTV17QQmlColorProvider@Qt_5_PRIVATE_API 5.0.2 1
 _ZTV17QQmlDelegateModel@Qt_5_PRIVATE_API 5.1.0 1
 _ZTV17QQmlEnginePrivate@Qt_5_PRIVATE_API 5.0.2 1
 _ZTV17QQmlInstanceModel@Qt_5_PRIVATE_API 5.1.0 1
 _ZTV17QQmlPropertyCache@Qt_5_PRIVATE_API 5.0.2 1
 _ZTV17QQmlVMEMetaObject@Qt_5_PRIVATE_API 5.0.2 1
 _ZTV18QAnimationGroupJob@Qt_5_PRIVATE_API 5.0.2 1
 _ZTV18QPauseAnimationJob@Qt_5_PRIVATE_API 5.0.2 1
 _ZTV18QQmlAnimationTimer@Qt_5_PRIVATE_API 5.0.2 1
 _ZTV18QQmlDebugConnector@Qt_5_PRIVATE_API 5.6.0~beta 1
 _ZTV18QQmlOpenMetaObject@Qt_5_PRIVATE_API 5.0.2 1
 _ZTV19QQmlAbstractBinding@Qt_5_PRIVATE_API 5.6.0~beta 1
 _ZTV19QQmlExtensionPlugin@Qt_5 5.0.2
 _ZTV19QQmlProfilerService@Qt_5_PRIVATE_API 5.0.2 1
 _ZTV19QQmlPropertyPrivate@Qt_5_PRIVATE_API 5.0.2 1
 _ZTV20QQmlComponentPrivate@Qt_5_PRIVATE_API 5.0.2 1
 _ZTV20QQmlInspectorService@Qt_5_PRIVATE_API 5.0.2 1
 _ZTV21QAbstractAnimationJob@Qt_5_PRIVATE_API 5.0.2 1
 _ZTV21QQmlApplicationEngine@Qt_5 5.1.0
 _ZTV21QQmlComponentAttached@Qt_5_PRIVATE_API 5.1.0 1
 _ZTV21QQmlImageProviderBase@Qt_5 5.0.2
 _ZTV21QQmlValueTypeProvider@Qt_5_PRIVATE_API 5.0.2 1
 _ZTV22QQmlDelegateModelGroup@Qt_5_PRIVATE_API 5.1.0 1
 _ZTV22QQmlEngineDebugService@Qt_5_PRIVATE_API 5.0.2 1
 _ZTV22QQmlNativeDebugService@Qt_5_PRIVATE_API 5.6.0~beta 1
 _ZTV22QQmlOpenMetaObjectType@Qt_5_PRIVATE_API 5.0.2 1
 _ZTV23QQmlDebugServiceFactory@Qt_5_PRIVATE_API 5.6.0~beta 1
 _ZTV23QQmlFileSelectorPrivate@Qt_5_PRIVATE_API 5.2.0~beta1 1
 _ZTV23QQmlPropertyValueSource@Qt_5 5.0.2
 _ZTV24QQmlIncubationController@Qt_5 5.0.2
 _ZTV24QQmlJavaScriptExpression@Qt_5_PRIVATE_API 5.6.0~beta 1
 _ZTV25QQmlBoundSignalExpression@Qt_5_PRIVATE_API 5.0.2 1
 _ZTV25QQmlDebugConnectorFactory@Qt_5_PRIVATE_API 5.6.0~beta 1
 _ZTV25QQmlInterceptorMetaObject@Qt_5_PRIVATE_API 5.6.0~beta 1
 _ZTV26QParallelAnimationGroupJob@Qt_5_PRIVATE_API 5.0.2 1
 _ZTV27QAnimationJobChangeListener@Qt_5_PRIVATE_API 5.0.2 1
 _ZTV27QQmlAbstractProfilerAdapter@Qt_5_PRIVATE_API 5.3.0 1
 _ZTV27QQmlFileSelectorInterceptor@Qt_5_PRIVATE_API 5.2.0~rc1 1
 _ZTV28QContinuingAnimationGroupJob@Qt_5_PRIVATE_API 5.3.0 1
 _ZTV28QQmlApplicationEnginePrivate@Qt_5_PRIVATE_API 5.1.0 1
 _ZTV28QQmlPropertyValueInterceptor@Qt_5_PRIVATE_API 5.0.2 1
 _ZTV28QSequentialAnimationGroupJob@Qt_5_PRIVATE_API 5.0.2 1
 _ZTV31QQmlNetworkAccessManagerFactory@Qt_5 5.0.2
 _ZTV9QJSEngine@Qt_5 5.0.2
 _ZTV9QQmlTimer@Qt_5_PRIVATE_API 5.0.2 1
 _ZTV9QV8Engine@Qt_5_PRIVATE_API 5.0.2 1
 _ZTVN14QQmlTypeLoader4BlobE@Qt_5_PRIVATE_API 5.0.2 1
 _ZTVN15QQmlContextData12ContextGuardE@Qt_5_PRIVATE_API 5.0.2 1
 _ZTVN3QV412CompiledData15CompilationUnitE@Qt_5_PRIVATE_API 5.2.0~beta1 1
 _ZTVN3QV424EvalInstructionSelectionE@Qt_5_PRIVATE_API 5.3.0 1
 _ZTVN3QV42IR9IRDecoderE@Qt_5_PRIVATE_API 5.3.0 1
 (arch=amd64 armhf i386)_ZTVN3QV43JIT11ISelFactoryE@Qt_5_PRIVATE_API 5.3.0 1
 (arch=amd64 armhf i386)_ZTVN3QV43JIT20InstructionSelectionE@Qt_5_PRIVATE_API 5.3.0 1
 _ZTVN3QV44Moth11ISelFactoryE@Qt_5_PRIVATE_API 5.3.0 1
 _ZTVN3QV44Moth20InstructionSelectionE@Qt_5_PRIVATE_API 5.3.0 1
 _ZTVN3QV49Debugging10V4Debugger13JavaScriptJobE@Qt_5_PRIVATE_API 5.6.0~beta 1
 _ZTVN3QV49Debugging10V4DebuggerE@Qt_5_PRIVATE_API 5.6.0~beta 1
 _ZTVN3QV49Debugging8DebuggerE@Qt_5_PRIVATE_API 5.6.0~beta 1
 _ZTVN3QV49Profiling8ProfilerE@Qt_5_PRIVATE_API 5.3.0 1
 _ZTVN5QmlIR25ScriptDirectivesCollectorE@Qt_5_PRIVATE_API 5.5.0 1
 _ZTVN5QmlIR9IRBuilderE@Qt_5_PRIVATE_API 5.3.0 1
 _ZTVN5QmlIR9JSCodeGenE@Qt_5_PRIVATE_API 5.3.0 1
 _ZTVN6QQmlJS10DirectivesE@Qt_5 5.5.0
 _ZTVN6QQmlJS3AST10CaseClauseE@Qt_5 5.3.0
 _ZTVN6QQmlJS3AST10ExpressionE@Qt_5 5.3.0
 _ZTVN6QQmlJS3AST11CaseClausesE@Qt_5 5.3.0
 _ZTVN6QQmlJS3AST11ElementListE@Qt_5 5.3.0
 _ZTVN6QQmlJS3AST11IfStatementE@Qt_5 5.3.0
 _ZTVN6QQmlJS3AST11TrueLiteralE@Qt_5 5.3.0
 _ZTVN6QQmlJS3AST12ArgumentListE@Qt_5 5.3.0
 _ZTVN6QQmlJS3AST12ArrayLiteralE@Qt_5 5.3.0
 _ZTVN6QQmlJS3AST12FalseLiteralE@Qt_5 5.3.0
 _ZTVN6QQmlJS3AST12ForStatementE@Qt_5 5.3.0
 _ZTVN6QQmlJS3AST12FunctionBodyE@Qt_5 5.3.0
 _ZTVN6QQmlJS3AST12TryStatementE@Qt_5 5.3.0
 _ZTVN6QQmlJS3AST13DefaultClauseE@Qt_5 5.3.0
 _ZTVN6QQmlJS3AST13NewExpressionE@Qt_5 5.3.0
 _ZTVN6QQmlJS3AST13NotExpressionE@Qt_5 5.3.0
 _ZTVN6QQmlJS3AST13ObjectLiteralE@Qt_5 5.3.0
 _ZTVN6QQmlJS3AST13RegExpLiteralE@Qt_5 5.3.0
 _ZTVN6QQmlJS3AST13StatementListE@Qt_5 5.3.0
 _ZTVN6QQmlJS3AST13StringLiteralE@Qt_5 5.3.0
 _ZTVN6QQmlJS3AST13UiQualifiedIdE@Qt_5 5.3.0
 _ZTVN6QQmlJS3AST13WithStatementE@Qt_5 5.3.0
 _ZTVN6QQmlJS3AST14BreakStatementE@Qt_5 5.3.0
 _ZTVN6QQmlJS3AST14CallExpressionE@Qt_5 5.3.0
 _ZTVN6QQmlJS3AST14EmptyStatementE@Qt_5 5.3.0
 _ZTVN6QQmlJS3AST14ExpressionNodeE@Qt_5_PRIVATE_API 5.3.0 1
 _ZTVN6QQmlJS3AST14NullExpressionE@Qt_5 5.3.0
 _ZTVN6QQmlJS3AST14NumericLiteralE@Qt_5 5.3.0
 _ZTVN6QQmlJS3AST14SourceElementsE@Qt_5 5.3.0
 _ZTVN6QQmlJS3AST14ThisExpressionE@Qt_5 5.3.0
 _ZTVN6QQmlJS3AST14ThrowStatementE@Qt_5 5.3.0
 _ZTVN6QQmlJS3AST14UiArrayBindingE@Qt_5 5.3.0
 _ZTVN6QQmlJS3AST14UiObjectMemberE@Qt_5 5.3.0
 _ZTVN6QQmlJS3AST14UiPublicMemberE@Qt_5 5.3.0
 _ZTVN6QQmlJS3AST14VoidExpressionE@Qt_5 5.3.0
 _ZTVN6QQmlJS3AST14WhileStatementE@Qt_5 5.3.0
 _ZTVN6QQmlJS3AST15ReturnStatementE@Qt_5 5.3.0
 _ZTVN6QQmlJS3AST15SwitchStatementE@Qt_5 5.3.0
 _ZTVN6QQmlJS3AST15TildeExpressionE@Qt_5 5.3.0
 _ZTVN6QQmlJS3AST15UiObjectBindingE@Qt_5 5.3.0
 _ZTVN6QQmlJS3AST15UiParameterListE@Qt_5 5.3.0
 _ZTVN6QQmlJS3AST15UiScriptBindingE@Qt_5 5.3.0
 _ZTVN6QQmlJS3AST15UiSourceElementE@Qt_5 5.3.0
 _ZTVN6QQmlJS3AST16BinaryExpressionE@Qt_5 5.3.0
 _ZTVN6QQmlJS3AST16DeleteExpressionE@Qt_5 5.3.0
 _ZTVN6QQmlJS3AST16DoWhileStatementE@Qt_5 5.3.0
 _ZTVN6QQmlJS3AST16ForEachStatementE@Qt_5 5.3.0
 _ZTVN6QQmlJS3AST16NestedExpressionE@Qt_5 5.3.0
 _ZTVN6QQmlJS3AST16TypeOfExpressionE@Qt_5 5.3.0
 _ZTVN6QQmlJS3AST16UiHeaderItemListE@Qt_5 5.3.0
 _ZTVN6QQmlJS3AST17ContinueStatementE@Qt_5 5.3.0
 _ZTVN6QQmlJS3AST17DebuggerStatementE@Qt_5 5.3.0
 _ZTVN6QQmlJS3AST17LabelledStatementE@Qt_5 5.3.0
 _ZTVN6QQmlJS3AST17LocalForStatementE@Qt_5 5.3.0
 _ZTVN6QQmlJS3AST17UiArrayMemberListE@Qt_5 5.3.0
 _ZTVN6QQmlJS3AST17VariableStatementE@Qt_5 5.3.0
 _ZTVN6QQmlJS3AST18FunctionExpressionE@Qt_5_PRIVATE_API 5.3.0 1
 _ZTVN6QQmlJS3AST18UiObjectDefinitionE@Qt_5 5.3.0
 _ZTVN6QQmlJS3AST18UiObjectMemberListE@Qt_5 5.3.0
 _ZTVN6QQmlJS3AST19ExpressionStatementE@Qt_5 5.3.0
 _ZTVN6QQmlJS3AST19FormalParameterListE@Qt_5 5.3.0
 _ZTVN6QQmlJS3AST19FunctionDeclarationE@Qt_5 5.3.0
 _ZTVN6QQmlJS3AST19NewMemberExpressionE@Qt_5 5.3.0
 _ZTVN6QQmlJS3AST19UiObjectInitializerE@Qt_5 5.3.0
 _ZTVN6QQmlJS3AST19UiQualifiedPragmaIdE@Qt_5 5.3.0
 _ZTVN6QQmlJS3AST19UnaryPlusExpressionE@Qt_5 5.3.0
 _ZTVN6QQmlJS3AST19VariableDeclarationE@Qt_5 5.3.0
 _ZTVN6QQmlJS3AST20IdentifierExpressionE@Qt_5 5.3.0
 _ZTVN6QQmlJS3AST20PropertyGetterSetterE@Qt_5 5.3.0
 _ZTVN6QQmlJS3AST20PropertyNameAndValueE@Qt_5 5.3.0
 _ZTVN6QQmlJS3AST20UnaryMinusExpressionE@Qt_5 5.3.0
 _ZTVN6QQmlJS3AST21ArrayMemberExpressionE@Qt_5 5.3.0
 _ZTVN6QQmlJS3AST21ConditionalExpressionE@Qt_5 5.3.0
 _ZTVN6QQmlJS3AST21FieldMemberExpressionE@Qt_5 5.3.0
 _ZTVN6QQmlJS3AST21FunctionSourceElementE@Qt_5 5.3.0
 _ZTVN6QQmlJS3AST21LocalForEachStatementE@Qt_5 5.3.0
 _ZTVN6QQmlJS3AST22IdentifierPropertyNameE@Qt_5 5.3.0
 _ZTVN6QQmlJS3AST22PreDecrementExpressionE@Qt_5 5.3.0
 _ZTVN6QQmlJS3AST22PreIncrementExpressionE@Qt_5 5.3.0
 _ZTVN6QQmlJS3AST22PropertyAssignmentListE@Qt_5 5.3.0
 _ZTVN6QQmlJS3AST22StatementSourceElementE@Qt_5 5.3.0
 _ZTVN6QQmlJS3AST23PostDecrementExpressionE@Qt_5 5.3.0
 _ZTVN6QQmlJS3AST23PostIncrementExpressionE@Qt_5 5.3.0
 _ZTVN6QQmlJS3AST23VariableDeclarationListE@Qt_5 5.3.0
 _ZTVN6QQmlJS3AST25StringLiteralPropertyNameE@Qt_5 5.3.0
 _ZTVN6QQmlJS3AST26NumericLiteralPropertyNameE@Qt_5 5.3.0
 _ZTVN6QQmlJS3AST4NodeE@Qt_5 5.3.0
 _ZTVN6QQmlJS3AST5BlockE@Qt_5 5.3.0
 _ZTVN6QQmlJS3AST5CatchE@Qt_5 5.3.0
 _ZTVN6QQmlJS3AST7ElisionE@Qt_5 5.3.0
 _ZTVN6QQmlJS3AST7FinallyE@Qt_5 5.3.0
 _ZTVN6QQmlJS3AST7ProgramE@Qt_5 5.3.0
 _ZTVN6QQmlJS3AST7VisitorE@Qt_5 5.3.0
 _ZTVN6QQmlJS3AST8UiImportE@Qt_5 5.3.0
 _ZTVN6QQmlJS3AST8UiPragmaE@Qt_5 5.3.0
 _ZTVN6QQmlJS3AST9CaseBlockE@Qt_5 5.3.0
 _ZTVN6QQmlJS3AST9StatementE@Qt_5 5.3.0
 _ZTVN6QQmlJS3AST9UiProgramE@Qt_5 5.3.0
 _ZTVN6QQmlJS7Codegen13ScanFunctionsE@Qt_5_PRIVATE_API 5.2.0~beta1 1
 _ZTVN6QQmlJS7CodegenE@Qt_5_PRIVATE_API 5.2.0~beta1 1
 _ZZN8QQmlData4initEvE11initialized@Qt_5_PRIVATE_API 5.0.2 1
 _ZZN9QMetaType17registerConverterI8QJSValue11QStringListPFS2_RKS1_EEEbT1_E1f@Qt_5 5.4.0
 _ZZN9QMetaType17registerConverterI8QJSValue4QMapI7QString8QVariantEPFS5_RKS1_EEEbT1_E1f@Qt_5 5.4.0
 _ZZN9QMetaType17registerConverterI8QJSValue5QListI8QVariantEPFS4_RKS1_EEEbT1_E1f@Qt_5 5.4.0
 _Zls6QDebugPK21QAbstractAnimationJob@Qt_5_PRIVATE_API 5.5.0 1
 _Zls6QDebugRK13QQmlChangeSet@Qt_5_PRIVATE_API 5.1.0 1
 _Zls6QDebugRK9QQmlError@Qt_5 5.0.2
 _Zls6QDebugRKN13QQmlChangeSet6ChangeE@Qt_5_PRIVATE_API 5.1.0 1
 (c++)"non-virtual thunk to QQmlBinding::expression() const@Qt_5_PRIVATE_API" 5.6.0~beta 1
 (c++)"non-virtual thunk to QQmlBinding::setEnabled(bool, QFlags<QQmlPropertyPrivate::WriteFlag>)@Qt_5_PRIVATE_API" 5.6.0~beta 1
 (c++)"non-virtual thunk to QQmlBinding::~QQmlBinding()@Qt_5_PRIVATE_API" 5.6.0~beta 1
 (c++)"non-virtual thunk to QQmlBoundSignalExpression::~QQmlBoundSignalExpression()@Qt_5_PRIVATE_API" 5.0.2 1
 (c++)"non-virtual thunk to QQmlComponentPrivate::typeDataProgress(QQmlTypeData*, double)@Qt_5_PRIVATE_API" 5.2.0 1
 (c++)"non-virtual thunk to QQmlComponentPrivate::typeDataReady(QQmlTypeData*)@Qt_5_PRIVATE_API" 5.0.2 1
 (c++)"non-virtual thunk to QQmlDelegateModel::classBegin()@Qt_5_PRIVATE_API" 5.1.0 1
 (c++)"non-virtual thunk to QQmlDelegateModel::componentComplete()@Qt_5_PRIVATE_API" 5.1.0 1
 (c++)"non-virtual thunk to QQmlDelegateModel::~QQmlDelegateModel()@Qt_5_PRIVATE_API" 5.1.0 1
 (c++)"non-virtual thunk to QQmlExtensionPlugin::initializeEngine(QQmlEngine*, char const*)@Qt_5" 5.0.2
 (c++)"non-virtual thunk to QQmlExtensionPlugin::~QQmlExtensionPlugin()@Qt_5" 5.0.2
 (c++)"non-virtual thunk to QQmlOpenMetaObjectType::clear()@Qt_5_PRIVATE_API" 5.0.2 1
 (c++)"non-virtual thunk to QQmlOpenMetaObjectType::~QQmlOpenMetaObjectType()@Qt_5_PRIVATE_API" 5.0.2 1
 (c++)"non-virtual thunk to QQmlPropertyCache::clear()@Qt_5_PRIVATE_API" 5.0.2 1
 (c++)"non-virtual thunk to QQmlPropertyCache::~QQmlPropertyCache()@Qt_5_PRIVATE_API" 5.0.2 1
 (c++)"non-virtual thunk to QQmlTimer::classBegin()@Qt_5_PRIVATE_API" 5.0.2 1
 (c++)"non-virtual thunk to QQmlTimer::componentComplete()@Qt_5_PRIVATE_API" 5.0.2 1
 (c++)"non-virtual thunk to QQmlValueType::metaCall(QObject*, QMetaObject::Call, int, void**)@Qt_5_PRIVATE_API" 5.5.0 1
 (c++)"non-virtual thunk to QQmlValueType::objectDestroyed(QObject*)@Qt_5_PRIVATE_API" 5.5.0 1
 (c++)"non-virtual thunk to QQmlValueType::toDynamicMetaObject(QObject*)@Qt_5_PRIVATE_API" 5.5.0 1
 (c++)"non-virtual thunk to QQmlValueType::~QQmlValueType()@Qt_5_PRIVATE_API" 5.5.0 1
 (c++|arch=amd64 armhf i386)"non-virtual thunk to QV4::JIT::InstructionSelection::backendCompileStep()@Qt_5_PRIVATE_API" 5.3.0 1
 (c++|arch=amd64 armhf i386)"non-virtual thunk to QV4::JIT::InstructionSelection::run(int)@Qt_5_PRIVATE_API" 5.3.0 1
 (c++|arch=amd64 armhf i386)"non-virtual thunk to QV4::JIT::InstructionSelection::~InstructionSelection()@Qt_5_PRIVATE_API" 5.3.0 1
 (c++)"non-virtual thunk to QV4::Moth::InstructionSelection::backendCompileStep()@Qt_5_PRIVATE_API" 5.3.0 1
 (c++)"non-virtual thunk to QV4::Moth::InstructionSelection::run(int)@Qt_5_PRIVATE_API" 5.3.0 1
 (c++)"non-virtual thunk to QV4::Moth::InstructionSelection::~InstructionSelection()@Qt_5_PRIVATE_API" 5.3.0 1
 qt_v4DebuggerHook@Qt_5 5.5.0
 qt_v4ResolvePendingBreakpointsHook@Qt_5 5.5.0
 qt_v4StackTrace@Qt_5 5.3.0
 qt_v4TriggeredBreakpointHook@Qt_5 5.5.0
