# SymbolsHelper-Confirmed: 5.6.0~beta amd64
libQt5QuickTest.so.5 libqt5quicktest5 #MINVER#
| libqt5quicktest5 #MINVER#, qtdeclarative-abi-5-6-0
 Qt_5.0@Qt_5.0 5.6.0~beta
 Qt_5.1@Qt_5.1 5.6.0~beta
 Qt_5.2@Qt_5.2 5.6.0~beta
 Qt_5.3@Qt_5.3 5.6.0~beta
 Qt_5.4@Qt_5.4 5.6.0~beta
 Qt_5.5@Qt_5.5 5.6.0~beta
 Qt_5.6@Qt_5.6 5.6.0~beta
 Qt_5@Qt_5 5.6.0~beta
 Qt_5_PRIVATE_API@Qt_5_PRIVATE_API 5.6.0~beta 1
 _Z15quick_test_mainiPPcPKcS2_@Qt_5 5.0.2
 _ZN14QuickTestEvent10keyReleaseEiii@Qt_5_PRIVATE_API 5.0.2 1
 _ZN14QuickTestEvent10mouseClickEP7QObjectddiii@Qt_5_PRIVATE_API 5.2.0 1
 _ZN14QuickTestEvent10mousePressEP7QObjectddiii@Qt_5_PRIVATE_API 5.2.0 1
 _ZN14QuickTestEvent10mouseWheelEP7QObjectddiiiii@Qt_5_PRIVATE_API 5.2.0 1
 _ZN14QuickTestEvent11eventWindowEP7QObject@Qt_5_PRIVATE_API 5.6.0~beta 1
 _ZN14QuickTestEvent11qt_metacallEN11QMetaObject4CallEiPPv@Qt_5_PRIVATE_API 5.0.2 1
 _ZN14QuickTestEvent11qt_metacastEPKc@Qt_5_PRIVATE_API 5.0.2 1
 _ZN14QuickTestEvent12activeWindowEv@Qt_5_PRIVATE_API 5.6.0~beta 1
 _ZN14QuickTestEvent12keyClickCharERK7QStringii@Qt_5_PRIVATE_API 5.1.0 1
 _ZN14QuickTestEvent12keyPressCharERK7QStringii@Qt_5_PRIVATE_API 5.1.0 1
 _ZN14QuickTestEvent12mouseReleaseEP7QObjectddiii@Qt_5_PRIVATE_API 5.2.0 1
 _ZN14QuickTestEvent14keyReleaseCharERK7QStringii@Qt_5_PRIVATE_API 5.1.0 1
 _ZN14QuickTestEvent16mouseDoubleClickEP7QObjectddiii@Qt_5_PRIVATE_API 5.2.0 1
 _ZN14QuickTestEvent16staticMetaObjectE@Qt_5_PRIVATE_API 5.0.2 1
 _ZN14QuickTestEvent24mouseDoubleClickSequenceEP7QObjectddiii@Qt_5_PRIVATE_API 5.5.0 1
 _ZN14QuickTestEvent8keyClickEiii@Qt_5_PRIVATE_API 5.0.2 1
 _ZN14QuickTestEvent8keyPressEiii@Qt_5_PRIVATE_API 5.0.2 1
 _ZN14QuickTestEvent9mouseMoveEP7QObjectddii@Qt_5_PRIVATE_API 5.2.0 1
 _ZN14QuickTestEventC1EP7QObject@Qt_5_PRIVATE_API 5.0.2 1
 _ZN14QuickTestEventC2EP7QObject@Qt_5_PRIVATE_API 5.0.2 1
 _ZN14QuickTestEventD0Ev@Qt_5_PRIVATE_API 5.0.2 1
 _ZN14QuickTestEventD1Ev@Qt_5_PRIVATE_API 5.0.2 1
 _ZN14QuickTestEventD2Ev@Qt_5_PRIVATE_API 5.0.2 1
 _ZN15QuickTestResult10endDataRunEv@Qt_5_PRIVATE_API 5.0.2 1
 _ZN15QuickTestResult10expectFailERK7QStringS2_RK4QUrli@Qt_5_PRIVATE_API 5.0.2 1
 _ZN15QuickTestResult10setDataTagERK7QString@Qt_5_PRIVATE_API 5.0.2 1
 _ZN15QuickTestResult10setSkippedEb@Qt_5_PRIVATE_API 5.0.2 1
 _ZN15QuickTestResult11qt_metacallEN11QMetaObject4CallEiPPv@Qt_5_PRIVATE_API 5.0.2 1
 _ZN15QuickTestResult11qt_metacastEPKc@Qt_5_PRIVATE_API 5.0.2 1
 _ZN15QuickTestResult11stopLoggingEv@Qt_5_PRIVATE_API 5.0.2 1
 _ZN15QuickTestResult12beginDataRunEv@Qt_5_PRIVATE_API 5.0.2 1
 _ZN15QuickTestResult12fuzzyCompareERK8QVariantS2_d@Qt_5_PRIVATE_API 5.2.0 1
 _ZN15QuickTestResult12startLoggingEv@Qt_5_PRIVATE_API 5.0.2 1
 _ZN15QuickTestResult13ignoreWarningERK7QString@Qt_5_PRIVATE_API 5.0.2 1
 _ZN15QuickTestResult13initTestTableEv@Qt_5_PRIVATE_API 5.0.2 1
 _ZN15QuickTestResult13nextBenchmarkEv@Qt_5_PRIVATE_API 5.0.2 1
 _ZN15QuickTestResult13stopBenchmarkEv@Qt_5_PRIVATE_API 5.0.2 1
 _ZN15QuickTestResult14clearTestTableEv@Qt_5_PRIVATE_API 5.0.2 1
 _ZN15QuickTestResult14dataTagChangedEv@Qt_5_PRIVATE_API 5.0.2 1
 _ZN15QuickTestResult14finishTestDataEv@Qt_5_PRIVATE_API 5.0.2 1
 _ZN15QuickTestResult14setProgramNameEPKc@Qt_5_PRIVATE_API 5.0.2 1
 _ZN15QuickTestResult14skippedChangedEv@Qt_5_PRIVATE_API 5.0.2 1
 _ZN15QuickTestResult14startBenchmarkENS_7RunModeERK7QString@Qt_5_PRIVATE_API 5.0.2 1
 _ZN15QuickTestResult15setFunctionNameERK7QString@Qt_5_PRIVATE_API 5.0.2 1
 _ZN15QuickTestResult15setTestCaseNameERK7QString@Qt_5_PRIVATE_API 5.0.2 1
 _ZN15QuickTestResult16startMeasurementEv@Qt_5_PRIVATE_API 5.0.2 1
 _ZN15QuickTestResult16staticMetaObjectE@Qt_5_PRIVATE_API 5.0.2 1
 _ZN15QuickTestResult16waitForRenderingEP10QQuickItemi@Qt_5_PRIVATE_API 5.0.2 1
 _ZN15QuickTestResult17setCurrentAppnameEPKc@Qt_5_PRIVATE_API 5.0.2 1
 _ZN15QuickTestResult18expectFailContinueERK7QStringS2_RK4QUrli@Qt_5_PRIVATE_API 5.0.2 1
 _ZN15QuickTestResult18finishTestFunctionEv@Qt_5_PRIVATE_API 5.0.2 1
 _ZN15QuickTestResult18programNameChangedEv@Qt_5_PRIVATE_API 5.0.2 1
 _ZN15QuickTestResult19functionNameChangedEv@Qt_5_PRIVATE_API 5.0.2 1
 _ZN15QuickTestResult19measurementAcceptedEv@Qt_5_PRIVATE_API 5.0.2 1
 _ZN15QuickTestResult19testCaseNameChangedEv@Qt_5_PRIVATE_API 5.0.2 1
 _ZN15QuickTestResult21finishTestDataCleanupEv@Qt_5_PRIVATE_API 5.0.2 1
 _ZN15QuickTestResult21needsMoreMeasurementsEv@Qt_5_PRIVATE_API 5.0.2 1
 _ZN15QuickTestResult4failERK7QStringRK4QUrli@Qt_5_PRIVATE_API 5.0.2 1
 _ZN15QuickTestResult4skipERK7QStringRK4QUrli@Qt_5_PRIVATE_API 5.0.2 1
 _ZN15QuickTestResult4waitEi@Qt_5_PRIVATE_API 5.0.2 1
 _ZN15QuickTestResult4warnERK7QStringRK4QUrli@Qt_5_PRIVATE_API 5.0.2 1
 _ZN15QuickTestResult5resetEv@Qt_5_PRIVATE_API 5.0.2 1
 _ZN15QuickTestResult5sleepEi@Qt_5_PRIVATE_API 5.0.2 1
 _ZN15QuickTestResult6verifyEbRK7QStringRK4QUrli@Qt_5_PRIVATE_API 5.0.2 1
 _ZN15QuickTestResult7compareEbRK7QStringRK8QVariantS5_RK4QUrli@Qt_5_PRIVATE_API 5.0.2 1
 _ZN15QuickTestResult8exitCodeEv@Qt_5_PRIVATE_API 5.0.2 1
 _ZN15QuickTestResult9findChildEP7QObjectRK7QString@Qt_5_PRIVATE_API 5.4.0 1
 _ZN15QuickTestResult9grabImageEP10QQuickItem@Qt_5_PRIVATE_API 5.0.2 1
 _ZN15QuickTestResult9parseArgsEiPPc@Qt_5_PRIVATE_API 5.0.2 1
 _ZN15QuickTestResult9stringifyEP14QQmlV4Function@Qt_5_PRIVATE_API 5.2.0~beta1 1
 _ZN15QuickTestResultC1EP7QObject@Qt_5_PRIVATE_API 5.0.2 1
 _ZN15QuickTestResultC2EP7QObject@Qt_5_PRIVATE_API 5.0.2 1
 _ZN15QuickTestResultD0Ev@Qt_5_PRIVATE_API 5.0.2 1
 _ZN15QuickTestResultD1Ev@Qt_5_PRIVATE_API 5.0.2 1
 _ZN15QuickTestResultD2Ev@Qt_5_PRIVATE_API 5.0.2 1
 _ZN20QuickTestImageObject11qt_metacallEN11QMetaObject4CallEiPPv@Qt_5 5.0.2
 _ZN20QuickTestImageObject11qt_metacastEPKc@Qt_5 5.0.2
 _ZN20QuickTestImageObject16staticMetaObjectE@Qt_5 5.0.2
 _ZNK14QuickTestEvent10metaObjectEv@Qt_5_PRIVATE_API 5.0.2 1
 _ZNK15QuickTestResult10metaObjectEv@Qt_5_PRIVATE_API 5.0.2 1
 _ZNK15QuickTestResult12functionNameEv@Qt_5_PRIVATE_API 5.0.2 1
 _ZNK15QuickTestResult12testCaseNameEv@Qt_5_PRIVATE_API 5.0.2 1
 _ZNK15QuickTestResult14functionsToRunEv@Qt_5_PRIVATE_API 5.0.2 1
 _ZNK15QuickTestResult15isBenchmarkDoneEv@Qt_5_PRIVATE_API 5.0.2 1
 _ZNK15QuickTestResult7dataTagEv@Qt_5_PRIVATE_API 5.0.2 1
 _ZNK15QuickTestResult8isFailedEv@Qt_5_PRIVATE_API 5.0.2 1
 _ZNK15QuickTestResult9failCountEv@Qt_5_PRIVATE_API 5.0.2 1
 _ZNK15QuickTestResult9isSkippedEv@Qt_5_PRIVATE_API 5.0.2 1
 _ZNK15QuickTestResult9passCountEv@Qt_5_PRIVATE_API 5.0.2 1
 _ZNK15QuickTestResult9skipCountEv@Qt_5_PRIVATE_API 5.0.2 1
 _ZNK20QuickTestImageObject10metaObjectEv@Qt_5 5.0.2
 _ZTI14QuickTestEvent@Qt_5_PRIVATE_API 5.0.2 1
 _ZTI15QuickTestResult@Qt_5_PRIVATE_API 5.0.2 1
 _ZTI20QuickTestImageObject@Qt_5 5.0.2
 _ZTS14QuickTestEvent@Qt_5_PRIVATE_API 5.0.2 1
 _ZTS15QuickTestResult@Qt_5_PRIVATE_API 5.0.2 1
 _ZTS20QuickTestImageObject@Qt_5 5.0.2
 _ZTV14QuickTestEvent@Qt_5_PRIVATE_API 5.0.2 1
 _ZTV15QuickTestResult@Qt_5_PRIVATE_API 5.0.2 1
 _ZTV20QuickTestImageObject@Qt_5 5.0.2
