libQt5Quick.so.5 libqt5quick5 #MINVER#
 Qt_5.0@Qt_5.0 5.6.0
 Qt_5.1@Qt_5.1 5.6.0
 Qt_5.2@Qt_5.2 5.6.0
 Qt_5.3@Qt_5.3 5.6.0
 Qt_5.4@Qt_5.4 5.6.0
 Qt_5.5@Qt_5.5 5.6.0
 Qt_5.6@Qt_5.6 5.6.0
 Qt_5@Qt_5 5.6.0
 Qt_5_PRIVATE_API@Qt_5_PRIVATE_API 5.6.0
 _Z23qsgnode_set_descriptionP7QSGNodeRK7QString@Qt_5 5.6.0
 _ZN10QByteArray7reserveEi@Qt_5 5.6.0
 _ZN10QQuickItem10classBeginEv@Qt_5 5.6.0
 _ZN10QQuickItem10itemChangeENS_10ItemChangeERKNS_14ItemChangeDataE@Qt_5 5.6.0
 _ZN10QQuickItem10resetWidthEv@Qt_5 5.6.0
 _ZN10QQuickItem10setEnabledEb@Qt_5 5.6.0
 _ZN10QQuickItem10setOpacityEd@Qt_5 5.6.0
 _ZN10QQuickItem10setVisibleEb@Qt_5 5.6.0
 _ZN10QQuickItem10stackAfterEPKS_@Qt_5 5.6.0
 _ZN10QQuickItem10touchEventEP11QTouchEvent@Qt_5 5.6.0
 _ZN10QQuickItem10wheelEventEP11QWheelEvent@Qt_5 5.6.0
 _ZN10QQuickItem11clipChangedEb@Qt_5 5.6.0
 _ZN10QQuickItem11grabToImageERK5QSize@Qt_5 5.6.0
 _ZN10QQuickItem11grabToImageERK8QJSValueRK5QSize@Qt_5 5.6.0
 _ZN10QQuickItem11qt_metacallEN11QMetaObject4CallEiPPv@Qt_5 5.6.0
 _ZN10QQuickItem11qt_metacastEPKc@Qt_5 5.6.0
 _ZN10QQuickItem11resetHeightEv@Qt_5 5.6.0
 _ZN10QQuickItem11setPositionERK7QPointF@Qt_5 5.6.0
 _ZN10QQuickItem11setRotationEd@Qt_5 5.6.0
 _ZN10QQuickItem11stackBeforeEPKS_@Qt_5 5.6.0
 _ZN10QQuickItem11ungrabMouseEv@Qt_5 5.6.0
 _ZN10QQuickItem11unsetCursorEv@Qt_5 5.6.0
 _ZN10QQuickItem12childrenRectEv@Qt_5 5.6.0
 _ZN10QQuickItem12focusChangedEb@Qt_5 5.6.0
 _ZN10QQuickItem12focusInEventEP11QFocusEvent@Qt_5 5.6.0
 _ZN10QQuickItem12scaleChangedEv@Qt_5 5.6.0
 _ZN10QQuickItem12stateChangedERK7QString@Qt_5 5.6.0
 _ZN10QQuickItem12updatePolishEv@Qt_5 5.6.0
 _ZN10QQuickItem12widthChangedEv@Qt_5 5.6.0
 _ZN10QQuickItem13dragMoveEventEP14QDragMoveEvent@Qt_5 5.6.0
 _ZN10QQuickItem13focusOutEventEP11QFocusEvent@Qt_5 5.6.0
 _ZN10QQuickItem13heightChangedEv@Qt_5 5.6.0
 _ZN10QQuickItem13keyPressEventEP9QKeyEvent@Qt_5 5.6.0
 _ZN10QQuickItem13parentChangedEPS_@Qt_5 5.6.0
 _ZN10QQuickItem13setParentItemEPS_@Qt_5 5.6.0
 _ZN10QQuickItem13smoothChangedEb@Qt_5 5.6.0
 _ZN10QQuickItem13windowChangedEP12QQuickWindow@Qt_5 5.6.0
 _ZN10QQuickItem14dragEnterEventEP15QDragEnterEvent@Qt_5 5.6.0
 _ZN10QQuickItem14dragLeaveEventEP15QDragLeaveEvent@Qt_5 5.6.0
 _ZN10QQuickItem14enabledChangedEv@Qt_5 5.6.0
 _ZN10QQuickItem14hoverMoveEventEP11QHoverEvent@Qt_5 5.6.0
 _ZN10QQuickItem14mouseMoveEventEP11QMouseEvent@Qt_5 5.6.0
 _ZN10QQuickItem14opacityChangedEv@Qt_5 5.6.0
 _ZN10QQuickItem14visibleChangedEv@Qt_5 5.6.0
 _ZN10QQuickItem15childrenChangedEv@Qt_5 5.6.0
 _ZN10QQuickItem15geometryChangedERK6QRectFS2_@Qt_5 5.6.0
 _ZN10QQuickItem15grabTouchPointsERK7QVectorIiE@Qt_5 5.6.0
 _ZN10QQuickItem15hoverEnterEventEP11QHoverEvent@Qt_5 5.6.0
 _ZN10QQuickItem15hoverLeaveEventEP11QHoverEvent@Qt_5 5.6.0
 _ZN10QQuickItem15keyReleaseEventEP9QKeyEvent@Qt_5 5.6.0
 _ZN10QQuickItem15mousePressEventEP11QMouseEvent@Qt_5 5.6.0
 _ZN10QQuickItem15rotationChangedEv@Qt_5 5.6.0
 _ZN10QQuickItem15setAntialiasingEb@Qt_5 5.6.0
 _ZN10QQuickItem15setImplicitSizeEdd@Qt_5 5.6.0
 _ZN10QQuickItem15updatePaintNodeEP7QSGNodePNS_19UpdatePaintNodeDataE@Qt_5 5.6.0
 _ZN10QQuickItem16forceActiveFocusEN2Qt11FocusReasonE@Qt_5 5.6.0
 _ZN10QQuickItem16forceActiveFocusEv@Qt_5 5.6.0
 _ZN10QQuickItem16inputMethodEventEP17QInputMethodEvent@Qt_5 5.6.0
 _ZN10QQuickItem16mouseUngrabEventEv@Qt_5 5.6.0
 _ZN10QQuickItem16releaseResourcesEv@Qt_5 5.6.0
 _ZN10QQuickItem16setImplicitWidthEd@Qt_5 5.6.0
 _ZN10QQuickItem16setKeepMouseGrabEb@Qt_5 5.6.0
 _ZN10QQuickItem16setKeepTouchGrabEb@Qt_5 5.6.0
 _ZN10QQuickItem16staticMetaObjectE@Qt_5 5.6.0
 _ZN10QQuickItem16touchUngrabEventEv@Qt_5 5.6.0
 _ZN10QQuickItem17componentCompleteEv@Qt_5 5.6.0
 _ZN10QQuickItem17mouseReleaseEventEP11QMouseEvent@Qt_5 5.6.0
 _ZN10QQuickItem17resetAntialiasingEv@Qt_5 5.6.0
 _ZN10QQuickItem17setBaselineOffsetEd@Qt_5 5.6.0
 _ZN10QQuickItem17setImplicitHeightEd@Qt_5 5.6.0
 _ZN10QQuickItem17ungrabTouchPointsEv@Qt_5 5.6.0
 _ZN10QQuickItem17updateInputMethodE6QFlagsIN2Qt16InputMethodQueryEE@Qt_5 5.6.0
 _ZN10QQuickItem18activeFocusChangedEb@Qt_5 5.6.0
 _ZN10QQuickItem18setTransformOriginENS_15TransformOriginE@Qt_5 5.6.0
 _ZN10QQuickItem19UpdatePaintNodeDataC1Ev@Qt_5 5.6.0
 _ZN10QQuickItem19UpdatePaintNodeDataC2Ev@Qt_5 5.6.0
 _ZN10QQuickItem19antialiasingChangedEb@Qt_5 5.6.0
 _ZN10QQuickItem19childrenRectChangedERK6QRectF@Qt_5 5.6.0
 _ZN10QQuickItem19setActiveFocusOnTabEb@Qt_5 5.6.0
 _ZN10QQuickItem20implicitWidthChangedEv@Qt_5 5.6.0
 _ZN10QQuickItem20nextItemInFocusChainEb@Qt_5 5.6.0
 _ZN10QQuickItem20setAcceptHoverEventsEb@Qt_5 5.6.0
 _ZN10QQuickItem21baselineOffsetChangedEd@Qt_5 5.6.0
 _ZN10QQuickItem21childMouseEventFilterEPS_P6QEvent@Qt_5 5.6.0
 _ZN10QQuickItem21implicitHeightChangedEv@Qt_5 5.6.0
 _ZN10QQuickItem21mouseDoubleClickEventEP11QMouseEvent@Qt_5 5.6.0
 _ZN10QQuickItem21windowDeactivateEventEv@Qt_5 5.6.0
 _ZN10QQuickItem22transformOriginChangedENS_15TransformOriginE@Qt_5 5.6.0
 _ZN10QQuickItem22visibleChildrenChangedEv@Qt_5 5.6.0
 _ZN10QQuickItem23activeFocusOnTabChangedEb@Qt_5 5.6.0
 _ZN10QQuickItem23setAcceptedMouseButtonsE6QFlagsIN2Qt11MouseButtonEE@Qt_5 5.6.0
 _ZN10QQuickItem23setTransformOriginPointERK7QPointF@Qt_5 5.6.0
 _ZN10QQuickItem26setFiltersChildMouseEventsEb@Qt_5 5.6.0
 _ZN10QQuickItem4setXEd@Qt_5 5.6.0
 _ZN10QQuickItem4setYEd@Qt_5 5.6.0
 _ZN10QQuickItem4setZEd@Qt_5 5.6.0
 _ZN10QQuickItem5eventEP6QEvent@Qt_5 5.6.0
 _ZN10QQuickItem6polishEv@Qt_5 5.6.0
 _ZN10QQuickItem6updateEv@Qt_5 5.6.0
 _ZN10QQuickItem7setClipEb@Qt_5 5.6.0
 _ZN10QQuickItem7setFlagENS_4FlagEb@Qt_5 5.6.0
 _ZN10QQuickItem7setSizeERK6QSizeF@Qt_5 5.6.0
 _ZN10QQuickItem8setFlagsE6QFlagsINS_4FlagEE@Qt_5 5.6.0
 _ZN10QQuickItem8setFocusEb@Qt_5 5.6.0
 _ZN10QQuickItem8setFocusEbN2Qt11FocusReasonE@Qt_5 5.6.0
 _ZN10QQuickItem8setScaleEd@Qt_5 5.6.0
 _ZN10QQuickItem8setStateERK7QString@Qt_5 5.6.0
 _ZN10QQuickItem8setWidthEd@Qt_5 5.6.0
 _ZN10QQuickItem8xChangedEv@Qt_5 5.6.0
 _ZN10QQuickItem8yChangedEv@Qt_5 5.6.0
 _ZN10QQuickItem8zChangedEv@Qt_5 5.6.0
 _ZN10QQuickItem9dropEventEP10QDropEvent@Qt_5 5.6.0
 _ZN10QQuickItem9grabMouseEv@Qt_5 5.6.0
 _ZN10QQuickItem9setCursorERK7QCursor@Qt_5 5.6.0
 _ZN10QQuickItem9setHeightEd@Qt_5 5.6.0
 _ZN10QQuickItem9setSmoothEb@Qt_5 5.6.0
 _ZN10QQuickItem9transformEv@Qt_5 5.6.0
 _ZN10QQuickItemC1EPS_@Qt_5 5.6.0
 _ZN10QQuickItemC1ER17QQuickItemPrivatePS_@Qt_5_PRIVATE_API 5.6.0
 _ZN10QQuickItemC2EPS_@Qt_5 5.6.0
 _ZN10QQuickItemC2ER17QQuickItemPrivatePS_@Qt_5_PRIVATE_API 5.6.0
 _ZN10QQuickItemD0Ev@Qt_5 5.6.0
 _ZN10QQuickItemD1Ev@Qt_5 5.6.0
 _ZN10QQuickItemD2Ev@Qt_5 5.6.0
 _ZN10QQuickText10itemChangeEN10QQuickItem10ItemChangeERKNS0_14ItemChangeDataE@Qt_5_PRIVATE_API 5.6.0
 _ZN10QQuickText10setBaseUrlERK4QUrl@Qt_5_PRIVATE_API 5.6.0
 _ZN10QQuickText10setPaddingEd@Qt_5_PRIVATE_API 5.6.0
 _ZN10QQuickText11fontChangedERK5QFont@Qt_5_PRIVATE_API 5.6.0
 _ZN10QQuickText11lineLaidOutEP14QQuickTextLine@Qt_5_PRIVATE_API 5.6.0
 _ZN10QQuickText11linkHoveredERK7QString@Qt_5_PRIVATE_API 5.6.0
 _ZN10QQuickText11qt_metacallEN11QMetaObject4CallEiPPv@Qt_5_PRIVATE_API 5.6.0
 _ZN10QQuickText11qt_metacastEPKc@Qt_5_PRIVATE_API 5.6.0
 _ZN10QQuickText11resetHAlignEv@Qt_5_PRIVATE_API 5.6.0
 _ZN10QQuickText11setWrapModeENS_8WrapModeE@Qt_5_PRIVATE_API 5.6.0
 _ZN10QQuickText11textChangedERK7QString@Qt_5_PRIVATE_API 5.6.0
 _ZN10QQuickText12colorChangedEv@Qt_5_PRIVATE_API 5.6.0
 _ZN10QQuickText12resetBaseUrlEv@Qt_5_PRIVATE_API 5.6.0
 _ZN10QQuickText12resetPaddingEv@Qt_5_PRIVATE_API 5.6.0
 _ZN10QQuickText12setElideModeENS_13TextElideModeE@Qt_5_PRIVATE_API 5.6.0
 _ZN10QQuickText12setLinkColorERK6QColor@Qt_5_PRIVATE_API 5.6.0
 _ZN10QQuickText12styleChangedENS_9TextStyleE@Qt_5_PRIVATE_API 5.6.0
 _ZN10QQuickText12updatePolishEv@Qt_5_PRIVATE_API 5.6.0
 _ZN10QQuickText13linkActivatedERK7QString@Qt_5_PRIVATE_API 5.6.0
 _ZN10QQuickText13setLineHeightEd@Qt_5_PRIVATE_API 5.6.0
 _ZN10QQuickText13setRenderTypeENS_10RenderTypeE@Qt_5_PRIVATE_API 5.6.0
 _ZN10QQuickText13setStyleColorERK6QColor@Qt_5_PRIVATE_API 5.6.0
 _ZN10QQuickText13setTextFormatENS_10TextFormatE@Qt_5_PRIVATE_API 5.6.0
 _ZN10QQuickText13setTopPaddingEd@Qt_5_PRIVATE_API 5.6.0
 _ZN10QQuickText14baseUrlChangedEv@Qt_5_PRIVATE_API 5.6.0
 _ZN10QQuickText14hoverMoveEventEP11QHoverEvent@Qt_5_PRIVATE_API 5.6.0
 _ZN10QQuickText14paddingChangedEv@Qt_5_PRIVATE_API 5.6.0
 _ZN10QQuickText14q_updateLayoutEv@Qt_5_PRIVATE_API 5.6.0
 _ZN10QQuickText14setLeftPaddingEd@Qt_5_PRIVATE_API 5.6.0
 _ZN10QQuickText15geometryChangedERK6QRectFS2_@Qt_5_PRIVATE_API 5.6.0
 _ZN10QQuickText15hoverEnterEventEP11QHoverEvent@Qt_5_PRIVATE_API 5.6.0
 _ZN10QQuickText15hoverLeaveEventEP11QHoverEvent@Qt_5_PRIVATE_API 5.6.0
 _ZN10QQuickText15mousePressEventEP11QMouseEvent@Qt_5_PRIVATE_API 5.6.0
 _ZN10QQuickText15resetTopPaddingEv@Qt_5_PRIVATE_API 5.6.0
 _ZN10QQuickText15setFontSizeModeENS_12FontSizeModeE@Qt_5_PRIVATE_API 5.6.0
 _ZN10QQuickText15setRightPaddingEd@Qt_5_PRIVATE_API 5.6.0
 _ZN10QQuickText15updatePaintNodeEP7QSGNodePN10QQuickItem19UpdatePaintNodeDataE@Qt_5_PRIVATE_API 5.6.0
 _ZN10QQuickText15wrapModeChangedEv@Qt_5_PRIVATE_API 5.6.0
 _ZN10QQuickText16elideModeChangedENS_13TextElideModeE@Qt_5_PRIVATE_API 5.6.0
 _ZN10QQuickText16lineCountChangedEv@Qt_5_PRIVATE_API 5.6.0
 _ZN10QQuickText16linkColorChangedEv@Qt_5_PRIVATE_API 5.6.0
 _ZN10QQuickText16resetLeftPaddingEv@Qt_5_PRIVATE_API 5.6.0
 _ZN10QQuickText16setBottomPaddingEd@Qt_5_PRIVATE_API 5.6.0
 _ZN10QQuickText16staticMetaObjectE@Qt_5_PRIVATE_API 5.6.0
 _ZN10QQuickText16truncatedChangedEv@Qt_5_PRIVATE_API 5.6.0
 _ZN10QQuickText17componentCompleteEv@Qt_5_PRIVATE_API 5.6.0
 _ZN10QQuickText17lineHeightChangedEd@Qt_5_PRIVATE_API 5.6.0
 _ZN10QQuickText17mouseReleaseEventEP11QMouseEvent@Qt_5_PRIVATE_API 5.6.0
 _ZN10QQuickText17renderTypeChangedEv@Qt_5_PRIVATE_API 5.6.0
 _ZN10QQuickText17resetRightPaddingEv@Qt_5_PRIVATE_API 5.6.0
 _ZN10QQuickText17setLineHeightModeENS_14LineHeightModeE@Qt_5_PRIVATE_API 5.6.0
 _ZN10QQuickText17styleColorChangedEv@Qt_5_PRIVATE_API 5.6.0
 _ZN10QQuickText17textFormatChangedENS_10TextFormatE@Qt_5_PRIVATE_API 5.6.0
 _ZN10QQuickText17topPaddingChangedEv@Qt_5_PRIVATE_API 5.6.0
 _ZN10QQuickText17triggerPreprocessEv@Qt_5_PRIVATE_API 5.6.0
 _ZN10QQuickText18contentSizeChangedEv@Qt_5_PRIVATE_API 5.6.0
 _ZN10QQuickText18leftPaddingChangedEv@Qt_5_PRIVATE_API 5.6.0
 _ZN10QQuickText18resetBottomPaddingEv@Qt_5_PRIVATE_API 5.6.0
 _ZN10QQuickText19fontSizeModeChangedEv@Qt_5_PRIVATE_API 5.6.0
 _ZN10QQuickText19rightPaddingChangedEv@Qt_5_PRIVATE_API 5.6.0
 _ZN10QQuickText19setMaximumLineCountEi@Qt_5_PRIVATE_API 5.6.0
 _ZN10QQuickText19setMinimumPixelSizeEi@Qt_5_PRIVATE_API 5.6.0
 _ZN10QQuickText19setMinimumPointSizeEi@Qt_5_PRIVATE_API 5.6.0
 _ZN10QQuickText20bottomPaddingChangedEv@Qt_5_PRIVATE_API 5.6.0
 _ZN10QQuickText20invalidateFontCachesEv@Qt_5_PRIVATE_API 5.6.0
 _ZN10QQuickText21imageDownloadFinishedEv@Qt_5_PRIVATE_API 5.6.0
 _ZN10QQuickText21lineHeightModeChangedENS_14LineHeightModeE@Qt_5_PRIVATE_API 5.6.0
 _ZN10QQuickText21resetMaximumLineCountEv@Qt_5_PRIVATE_API 5.6.0
 _ZN10QQuickText23maximumLineCountChangedEv@Qt_5_PRIVATE_API 5.6.0
 _ZN10QQuickText23minimumPixelSizeChangedEv@Qt_5_PRIVATE_API 5.6.0
 _ZN10QQuickText23minimumPointSizeChangedEv@Qt_5_PRIVATE_API 5.6.0
 _ZN10QQuickText24verticalAlignmentChangedENS_10VAlignmentE@Qt_5_PRIVATE_API 5.6.0
 _ZN10QQuickText26horizontalAlignmentChangedENS_10HAlignmentE@Qt_5_PRIVATE_API 5.6.0
 _ZN10QQuickText35effectiveHorizontalAlignmentChangedEv@Qt_5_PRIVATE_API 5.6.0
 _ZN10QQuickText7setFontERK5QFont@Qt_5_PRIVATE_API 5.6.0
 _ZN10QQuickText7setTextERK7QString@Qt_5_PRIVATE_API 5.6.0
 _ZN10QQuickText8doLayoutEv@Qt_5_PRIVATE_API 5.6.0
 _ZN10QQuickText8setColorERK6QColor@Qt_5_PRIVATE_API 5.6.0
 _ZN10QQuickText8setStyleENS_9TextStyleE@Qt_5_PRIVATE_API 5.6.0
 _ZN10QQuickText9setHAlignENS_10HAlignmentE@Qt_5_PRIVATE_API 5.6.0
 _ZN10QQuickText9setVAlignENS_10VAlignmentE@Qt_5_PRIVATE_API 5.6.0
 _ZN10QQuickTextC1EP10QQuickItem@Qt_5_PRIVATE_API 5.6.0
 _ZN10QQuickTextC1ER17QQuickTextPrivateP10QQuickItem@Qt_5_PRIVATE_API 5.6.0
 _ZN10QQuickTextC2EP10QQuickItem@Qt_5_PRIVATE_API 5.6.0
 _ZN10QQuickTextC2ER17QQuickTextPrivateP10QQuickItem@Qt_5_PRIVATE_API 5.6.0
 _ZN10QQuickTextD0Ev@Qt_5_PRIVATE_API 5.6.0
 _ZN10QQuickTextD1Ev@Qt_5_PRIVATE_API 5.6.0
 _ZN10QQuickTextD2Ev@Qt_5_PRIVATE_API 5.6.0
 _ZN10QQuickView10setContentERK4QUrlP13QQmlComponentP7QObject@Qt_5 5.6.0
 _ZN10QQuickView10timerEventEP11QTimerEvent@Qt_5 5.6.0
 _ZN10QQuickView11qt_metacallEN11QMetaObject4CallEiPPv@Qt_5 5.6.0
 _ZN10QQuickView11qt_metacastEPKc@Qt_5 5.6.0
 _ZN10QQuickView11resizeEventEP12QResizeEvent@Qt_5 5.6.0
 _ZN10QQuickView13keyPressEventEP9QKeyEvent@Qt_5 5.6.0
 _ZN10QQuickView13setResizeModeENS_10ResizeModeE@Qt_5 5.6.0
 _ZN10QQuickView13statusChangedENS_6StatusE@Qt_5 5.6.0
 _ZN10QQuickView14mouseMoveEventEP11QMouseEvent@Qt_5 5.6.0
 _ZN10QQuickView15continueExecuteEv@Qt_5 5.6.0
 _ZN10QQuickView15keyReleaseEventEP9QKeyEvent@Qt_5 5.6.0
 _ZN10QQuickView15mousePressEventEP11QMouseEvent@Qt_5 5.6.0
 _ZN10QQuickView16staticMetaObjectE@Qt_5 5.6.0
 _ZN10QQuickView17mouseReleaseEventEP11QMouseEvent@Qt_5 5.6.0
 _ZN10QQuickView9setSourceERK4QUrl@Qt_5 5.6.0
 _ZN10QQuickViewC1EP10QQmlEngineP7QWindow@Qt_5 5.6.0
 _ZN10QQuickViewC1EP7QWindow@Qt_5 5.6.0
 _ZN10QQuickViewC1ERK4QUrlP7QWindow@Qt_5 5.6.0
 _ZN10QQuickViewC2EP10QQmlEngineP7QWindow@Qt_5 5.6.0
 _ZN10QQuickViewC2EP7QWindow@Qt_5 5.6.0
 _ZN10QQuickViewC2ERK4QUrlP7QWindow@Qt_5 5.6.0
 _ZN10QQuickViewD0Ev@Qt_5 5.6.0
 _ZN10QQuickViewD1Ev@Qt_5 5.6.0
 _ZN10QQuickViewD2Ev@Qt_5 5.6.0
 _ZN10QSGContext11createLayerEP16QSGRenderContext@Qt_5_PRIVATE_API 5.6.0
 _ZN10QSGContext11qt_metacallEN11QMetaObject4CallEiPPv@Qt_5_PRIVATE_API 5.6.0
 _ZN10QSGContext11qt_metacastEPKc@Qt_5_PRIVATE_API 5.6.0
 _ZN10QSGContext15createGlyphNodeEP16QSGRenderContextb@Qt_5_PRIVATE_API 5.6.0
 _ZN10QSGContext15createImageNodeEv@Qt_5_PRIVATE_API 5.6.0
 _ZN10QSGContext16staticMetaObjectE@Qt_5_PRIVATE_API 5.6.0
 _ZN10QSGContext17createPainterNodeEP17QQuickPaintedItem@Qt_5_PRIVATE_API 5.6.0
 _ZN10QSGContext19createNinePatchNodeEv@Qt_5_PRIVATE_API 5.6.0
 _ZN10QSGContext19createRectangleNodeERK6QRectFRK6QColor@Qt_5_PRIVATE_API 5.6.0
 _ZN10QSGContext19createRectangleNodeEv@Qt_5_PRIVATE_API 5.6.0
 _ZN10QSGContext19createRenderContextEv@Qt_5_PRIVATE_API 5.6.0
 _ZN10QSGContext19createWindowManagerEv@Qt_5_PRIVATE_API 5.6.0
 _ZN10QSGContext20createDefaultContextEv@Qt_5_PRIVATE_API 5.6.0
 _ZN10QSGContext21createAnimationDriverEP7QObject@Qt_5_PRIVATE_API 5.6.0
 _ZN10QSGContext23setDistanceFieldEnabledEb@Qt_5_PRIVATE_API 5.6.0
 _ZN10QSGContext24renderContextInitializedEP16QSGRenderContext@Qt_5_PRIVATE_API 5.6.0
 _ZN10QSGContext24renderContextInvalidatedEP16QSGRenderContext@Qt_5_PRIVATE_API 5.6.0
 _ZN10QSGContext29createTextureFactoryFromImageERK6QImage@Qt_5_PRIVATE_API 5.6.0
 _ZN10QSGContextC1EP7QObject@Qt_5_PRIVATE_API 5.6.0
 _ZN10QSGContextC2EP7QObject@Qt_5_PRIVATE_API 5.6.0
 _ZN10QSGContextD0Ev@Qt_5_PRIVATE_API 5.6.0
 _ZN10QSGContextD1Ev@Qt_5_PRIVATE_API 5.6.0
 _ZN10QSGContextD2Ev@Qt_5_PRIVATE_API 5.6.0
 _ZN10QSGTexture11qt_metacallEN11QMetaObject4CallEiPPv@Qt_5 5.6.0
 _ZN10QSGTexture11qt_metacastEPKc@Qt_5 5.6.0
 _ZN10QSGTexture12setFilteringENS_9FilteringE@Qt_5 5.6.0
 _ZN10QSGTexture16staticMetaObjectE@Qt_5 5.6.0
 _ZN10QSGTexture17updateBindOptionsEb@Qt_5 5.6.0
 _ZN10QSGTexture18setMipmapFilteringENS_9FilteringE@Qt_5 5.6.0
 _ZN10QSGTexture19setVerticalWrapModeENS_8WrapModeE@Qt_5 5.6.0
 _ZN10QSGTexture21setHorizontalWrapModeENS_8WrapModeE@Qt_5 5.6.0
 _ZN10QSGTextureC1Ev@Qt_5 5.6.0
 _ZN10QSGTextureC2Ev@Qt_5 5.6.0
 _ZN10QSGTextureD0Ev@Qt_5 5.6.0
 _ZN10QSGTextureD1Ev@Qt_5 5.6.0
 _ZN10QSGTextureD2Ev@Qt_5 5.6.0
 _ZN11QQuickImage11qt_metacallEN11QMetaObject4CallEiPPv@Qt_5_PRIVATE_API 5.6.0
 _ZN11QQuickImage11qt_metacastEPKc@Qt_5_PRIVATE_API 5.6.0
 _ZN11QQuickImage11setFillModeENS_8FillModeE@Qt_5_PRIVATE_API 5.6.0
 _ZN11QQuickImage12pixmapChangeEv@Qt_5_PRIVATE_API 5.6.0
 _ZN11QQuickImage13mipmapChangedEb@Qt_5_PRIVATE_API 5.6.0
 _ZN11QQuickImage15fillModeChangedEv@Qt_5_PRIVATE_API 5.6.0
 _ZN11QQuickImage15geometryChangedERK6QRectFS2_@Qt_5_PRIVATE_API 5.6.0
 _ZN11QQuickImage15updatePaintNodeEP7QSGNodePN10QQuickItem19UpdatePaintNodeDataE@Qt_5_PRIVATE_API 5.6.0
 _ZN11QQuickImage16releaseResourcesEv@Qt_5_PRIVATE_API 5.6.0
 _ZN11QQuickImage16staticMetaObjectE@Qt_5_PRIVATE_API 5.6.0
 _ZN11QQuickImage20autoTransformChangedEv@Qt_5_PRIVATE_API 5.6.0
 _ZN11QQuickImage20invalidateSceneGraphEv@Qt_5_PRIVATE_API 5.6.0
 _ZN11QQuickImage20setVerticalAlignmentENS_10VAlignmentE@Qt_5_PRIVATE_API 5.6.0
 _ZN11QQuickImage21updatePaintedGeometryEv@Qt_5_PRIVATE_API 5.6.0
 _ZN11QQuickImage22paintedGeometryChangedEv@Qt_5_PRIVATE_API 5.6.0
 _ZN11QQuickImage22setHorizontalAlignmentENS_10HAlignmentE@Qt_5_PRIVATE_API 5.6.0
 _ZN11QQuickImage24verticalAlignmentChangedENS_10VAlignmentE@Qt_5_PRIVATE_API 5.6.0
 _ZN11QQuickImage26horizontalAlignmentChangedENS_10HAlignmentE@Qt_5_PRIVATE_API 5.6.0
 _ZN11QQuickImage9setMipmapEb@Qt_5_PRIVATE_API 5.6.0
 _ZN11QQuickImageC1EP10QQuickItem@Qt_5_PRIVATE_API 5.6.0
 _ZN11QQuickImageC1ER18QQuickImagePrivateP10QQuickItem@Qt_5_PRIVATE_API 5.6.0
 _ZN11QQuickImageC2EP10QQuickItem@Qt_5_PRIVATE_API 5.6.0
 _ZN11QQuickImageC2ER18QQuickImagePrivateP10QQuickItem@Qt_5_PRIVATE_API 5.6.0
 _ZN11QQuickImageD0Ev@Qt_5_PRIVATE_API 5.6.0
 _ZN11QQuickImageD1Ev@Qt_5_PRIVATE_API 5.6.0
 _ZN11QQuickImageD2Ev@Qt_5_PRIVATE_API 5.6.0
 _ZN11QQuickState10setExtendsERK7QString@Qt_5_PRIVATE_API 5.6.0
 _ZN11QQuickState11qt_metacallEN11QMetaObject4CallEiPPv@Qt_5_PRIVATE_API 5.6.0
 _ZN11QQuickState11qt_metacastEPKc@Qt_5_PRIVATE_API 5.6.0
 _ZN11QQuickState13setStateGroupEP16QQuickStateGroup@Qt_5_PRIVATE_API 5.6.0
 _ZN11QQuickState16staticMetaObjectE@Qt_5_PRIVATE_API 5.6.0
 _ZN11QQuickState20addEntryToRevertListERK17QQuickStateAction@Qt_5_PRIVATE_API 5.6.0
 _ZN11QQuickState22addEntriesToRevertListERK5QListI17QQuickStateActionE@Qt_5_PRIVATE_API 5.6.0
 _ZN11QQuickState23changeValueInRevertListEP7QObjectRK7QStringRK8QVariant@Qt_5_PRIVATE_API 5.6.0
 _ZN11QQuickState25changeBindingInRevertListEP7QObjectRK7QStringP19QQmlAbstractBinding@Qt_5_PRIVATE_API 5.6.0
 _ZN11QQuickState25removeEntryFromRevertListEP7QObjectRK7QString@Qt_5_PRIVATE_API 5.6.0
 _ZN11QQuickState30removeAllEntriesFromRevertListEP7QObject@Qt_5_PRIVATE_API 5.6.0
 _ZN11QQuickState5applyEP16QQuickTransitionPS_@Qt_5_PRIVATE_API 5.6.0
 _ZN11QQuickState6cancelEv@Qt_5_PRIVATE_API 5.6.0
 _ZN11QQuickState7changesEv@Qt_5_PRIVATE_API 5.6.0
 _ZN11QQuickState7setNameERK7QString@Qt_5_PRIVATE_API 5.6.0
 _ZN11QQuickState7setWhenEP11QQmlBinding@Qt_5_PRIVATE_API 5.6.0
 _ZN11QQuickState9completedEv@Qt_5_PRIVATE_API 5.6.0
 _ZN11QQuickStateC1EP7QObject@Qt_5_PRIVATE_API 5.6.0
 _ZN11QQuickStateC2EP7QObject@Qt_5_PRIVATE_API 5.6.0
 _ZN11QQuickStateD0Ev@Qt_5_PRIVATE_API 5.6.0
 _ZN11QQuickStateD1Ev@Qt_5_PRIVATE_API 5.6.0
 _ZN11QQuickStateD2Ev@Qt_5_PRIVATE_API 5.6.0
 _ZN11QQuickStatelsEP20QQuickStateOperation@Qt_5_PRIVATE_API 5.6.0
 _ZN11QSGClipNode11setClipRectERK6QRectF@Qt_5 5.6.0
 _ZN11QSGClipNode16setIsRectangularEb@Qt_5 5.6.0
 _ZN11QSGClipNodeC1Ev@Qt_5 5.6.0
 _ZN11QSGClipNodeC2Ev@Qt_5 5.6.0
 _ZN11QSGClipNodeD0Ev@Qt_5 5.6.0
 _ZN11QSGClipNodeD1Ev@Qt_5 5.6.0
 _ZN11QSGClipNodeD2Ev@Qt_5 5.6.0
 _ZN11QSGGeometry12setLineWidthEf@Qt_5 5.6.0
 _ZN11QSGGeometry14setDrawingModeEj@Qt_5 5.6.0
 _ZN11QSGGeometry18markIndexDataDirtyEv@Qt_5 5.6.0
 _ZN11QSGGeometry18updateRectGeometryEPS_RK6QRectF@Qt_5 5.6.0
 _ZN11QSGGeometry19markVertexDataDirtyEv@Qt_5 5.6.0
 _ZN11QSGGeometry19setIndexDataPatternENS_11DataPatternE@Qt_5 5.6.0
 _ZN11QSGGeometry20setVertexDataPatternENS_11DataPatternE@Qt_5 5.6.0
 _ZN11QSGGeometry25defaultAttributes_Point2DEv@Qt_5 5.6.0
 _ZN11QSGGeometry26updateTexturedRectGeometryEPS_RK6QRectFS3_@Qt_5 5.6.0
 _ZN11QSGGeometry32defaultAttributes_ColoredPoint2DEv@Qt_5 5.6.0
 _ZN11QSGGeometry33defaultAttributes_TexturedPoint2DEv@Qt_5 5.6.0
 _ZN11QSGGeometry8allocateEii@Qt_5 5.6.0
 _ZN11QSGGeometry9Attribute6createEiiib@Qt_5 5.6.0
 _ZN11QSGGeometry9indexDataEv@Qt_5 5.6.0
 _ZN11QSGGeometryC1ERKNS_12AttributeSetEiii@Qt_5 5.6.0
 _ZN11QSGGeometryC2ERKNS_12AttributeSetEiii@Qt_5 5.6.0
 _ZN11QSGGeometryD0Ev@Qt_5 5.6.0
 _ZN11QSGGeometryD1Ev@Qt_5 5.6.0
 _ZN11QSGGeometryD2Ev@Qt_5 5.6.0
 _ZN11QSGMaterial7setFlagE6QFlagsINS_4FlagEEb@Qt_5 5.6.0
 _ZN11QSGMaterialC1Ev@Qt_5 5.6.0
 _ZN11QSGMaterialC2Ev@Qt_5 5.6.0
 _ZN11QSGMaterialD0Ev@Qt_5 5.6.0
 _ZN11QSGMaterialD1Ev@Qt_5 5.6.0
 _ZN11QSGMaterialD2Ev@Qt_5 5.6.0
 _ZN11QSGRenderer10preprocessEv@Qt_5_PRIVATE_API 5.6.0
 _ZN11QSGRenderer11nodeChangedEP7QSGNode6QFlagsINS0_13DirtyStateBitEE@Qt_5_PRIVATE_API 5.6.0
 _ZN11QSGRenderer11renderSceneERK11QSGBindable@Qt_5_PRIVATE_API 5.6.0
 _ZN11QSGRenderer11renderSceneEj@Qt_5_PRIVATE_API 5.6.0
 _ZN11QSGRenderer14setNodeUpdaterEP14QSGNodeUpdater@Qt_5_PRIVATE_API 5.6.0
 _ZN11QSGRenderer20addNodesToPreprocessEP7QSGNode@Qt_5_PRIVATE_API 5.6.0
 _ZN11QSGRenderer23removeNodesToPreprocessEP7QSGNode@Qt_5_PRIVATE_API 5.6.0
 _ZN11QSGRendererC1EP16QSGRenderContext@Qt_5_PRIVATE_API 5.6.0
 _ZN11QSGRendererC2EP16QSGRenderContext@Qt_5_PRIVATE_API 5.6.0
 _ZN11QSGRendererD0Ev@Qt_5_PRIVATE_API 5.6.0
 _ZN11QSGRendererD1Ev@Qt_5_PRIVATE_API 5.6.0
 _ZN11QSGRendererD2Ev@Qt_5_PRIVATE_API 5.6.0
 _ZN11QSGRootNode16notifyNodeChangeEP7QSGNode6QFlagsINS0_13DirtyStateBitEE@Qt_5 5.6.0
 _ZN11QSGRootNodeC1Ev@Qt_5 5.6.0
 _ZN11QSGRootNodeC2Ev@Qt_5 5.6.0
 _ZN11QSGRootNodeD0Ev@Qt_5 5.6.0
 _ZN11QSGRootNodeD1Ev@Qt_5 5.6.0
 _ZN11QSGRootNodeD2Ev@Qt_5 5.6.0
 _ZN12QQuickPixmap10purgeCacheEv@Qt_5_PRIVATE_API 5.6.0
 _ZN12QQuickPixmap15connectFinishedEP7QObjectPKc@Qt_5_PRIVATE_API 5.6.0
 _ZN12QQuickPixmap15connectFinishedEP7QObjecti@Qt_5_PRIVATE_API 5.6.0
 _ZN12QQuickPixmap23connectDownloadProgressEP7QObjectPKc@Qt_5_PRIVATE_API 5.6.0
 _ZN12QQuickPixmap23connectDownloadProgressEP7QObjecti@Qt_5_PRIVATE_API 5.6.0
 _ZN12QQuickPixmap4loadEP10QQmlEngineRK4QUrl6QFlagsINS_6OptionEE@Qt_5_PRIVATE_API 5.6.0
 _ZN12QQuickPixmap4loadEP10QQmlEngineRK4QUrl@Qt_5_PRIVATE_API 5.6.0
 _ZN12QQuickPixmap4loadEP10QQmlEngineRK4QUrlRK5QSize6QFlagsINS_6OptionEE13AutoTransform@Qt_5_PRIVATE_API 5.6.0
 _ZN12QQuickPixmap4loadEP10QQmlEngineRK4QUrlRK5QSize6QFlagsINS_6OptionEE@Qt_5_PRIVATE_API 5.6.0
 _ZN12QQuickPixmap4loadEP10QQmlEngineRK4QUrlRK5QSize@Qt_5_PRIVATE_API 5.6.0
 _ZN12QQuickPixmap5clearEP7QObject@Qt_5_PRIVATE_API 5.6.0
 _ZN12QQuickPixmap5clearEv@Qt_5_PRIVATE_API 5.6.0
 _ZN12QQuickPixmap8isCachedERK4QUrlRK5QSize@Qt_5_PRIVATE_API 5.6.0
 _ZN12QQuickPixmap8setImageERK6QImage@Qt_5_PRIVATE_API 5.6.0
 _ZN12QQuickPixmap9setPixmapERKS_@Qt_5_PRIVATE_API 5.6.0
 _ZN12QQuickPixmapC1EP10QQmlEngineRK4QUrl@Qt_5_PRIVATE_API 5.6.0
 _ZN12QQuickPixmapC1EP10QQmlEngineRK4QUrlRK5QSize@Qt_5_PRIVATE_API 5.6.0
 _ZN12QQuickPixmapC1ERK4QUrlRK6QImage@Qt_5_PRIVATE_API 5.6.0
 _ZN12QQuickPixmapC1Ev@Qt_5_PRIVATE_API 5.6.0
 _ZN12QQuickPixmapC2EP10QQmlEngineRK4QUrl@Qt_5_PRIVATE_API 5.6.0
 _ZN12QQuickPixmapC2EP10QQmlEngineRK4QUrlRK5QSize@Qt_5_PRIVATE_API 5.6.0
 _ZN12QQuickPixmapC2ERK4QUrlRK6QImage@Qt_5_PRIVATE_API 5.6.0
 _ZN12QQuickPixmapC2Ev@Qt_5_PRIVATE_API 5.6.0
 _ZN12QQuickPixmapD1Ev@Qt_5_PRIVATE_API 5.6.0
 _ZN12QQuickPixmapD2Ev@Qt_5_PRIVATE_API 5.6.0
 _ZN12QQuickWindow10grabWindowEv@Qt_5 5.6.0
 _ZN12QQuickWindow10wheelEventEP11QWheelEvent@Qt_5 5.6.0
 _ZN12QQuickWindow11exposeEventEP12QExposeEvent@Qt_5 5.6.0
 _ZN12QQuickWindow11maybeUpdateEv@Qt_5 5.6.0
 _ZN12QQuickWindow11qt_metacallEN11QMetaObject4CallEiPPv@Qt_5 5.6.0
 _ZN12QQuickWindow11qt_metacastEPKc@Qt_5 5.6.0
 _ZN12QQuickWindow11resizeEventEP12QResizeEvent@Qt_5 5.6.0
 _ZN12QQuickWindow12colorChangedERK6QColor@Qt_5 5.6.0
 _ZN12QQuickWindow12focusInEventEP11QFocusEvent@Qt_5 5.6.0
 _ZN12QQuickWindow12frameSwappedEv@Qt_5 5.6.0
 _ZN12QQuickWindow13focusOutEventEP11QFocusEvent@Qt_5 5.6.0
 _ZN12QQuickWindow13keyPressEventEP9QKeyEvent@Qt_5 5.6.0
 _ZN12QQuickWindow14afterAnimatingEv@Qt_5 5.6.0
 _ZN12QQuickWindow14afterRenderingEv@Qt_5 5.6.0
 _ZN12QQuickWindow14mouseMoveEventEP11QMouseEvent@Qt_5 5.6.0
 _ZN12QQuickWindow15beforeRenderingEv@Qt_5 5.6.0
 _ZN12QQuickWindow15keyReleaseEventEP9QKeyEvent@Qt_5 5.6.0
 _ZN12QQuickWindow15mousePressEventEP11QMouseEvent@Qt_5 5.6.0
 _ZN12QQuickWindow15sceneGraphErrorENS_15SceneGraphErrorERK7QString@Qt_5 5.6.0
 _ZN12QQuickWindow15setRenderTargetEP24QOpenGLFramebufferObject@Qt_5 5.6.0
 _ZN12QQuickWindow15setRenderTargetEjRK5QSize@Qt_5 5.6.0
 _ZN12QQuickWindow16releaseResourcesEv@Qt_5 5.6.0
 _ZN12QQuickWindow16resetOpenGLStateEv@Qt_5 5.6.0
 _ZN12QQuickWindow16runJobsAfterSwapEv@Qt_5 5.6.0
 _ZN12QQuickWindow16staticMetaObjectE@Qt_5 5.6.0
 _ZN12QQuickWindow17cleanupSceneGraphEv@Qt_5 5.6.0
 _ZN12QQuickWindow17mouseReleaseEventEP11QMouseEvent@Qt_5 5.6.0
 _ZN12QQuickWindow17scheduleRenderJobEP9QRunnableNS_11RenderStageE@Qt_5 5.6.0
 _ZN12QQuickWindow18afterSynchronizingEv@Qt_5 5.6.0
 _ZN12QQuickWindow18physicalDpiChangedEv@Qt_5 5.6.0
 _ZN12QQuickWindow19beforeSynchronizingEv@Qt_5 5.6.0
 _ZN12QQuickWindow19handleScreenChangedEP7QScreen@Qt_5 5.6.0
 _ZN12QQuickWindow20openglContextCreatedEP14QOpenGLContext@Qt_5 5.6.0
 _ZN12QQuickWindow21hasDefaultAlphaBufferEv@Qt_5 5.6.0
 _ZN12QQuickWindow21mouseDoubleClickEventEP11QMouseEvent@Qt_5 5.6.0
 _ZN12QQuickWindow21sceneGraphAboutToStopEv@Qt_5 5.6.0
 _ZN12QQuickWindow21sceneGraphInitializedEv@Qt_5 5.6.0
 _ZN12QQuickWindow21sceneGraphInvalidatedEv@Qt_5 5.6.0
 _ZN12QQuickWindow21setDefaultAlphaBufferEb@Qt_5 5.6.0
 _ZN12QQuickWindow22activeFocusItemChangedEv@Qt_5 5.6.0
 _ZN12QQuickWindow23setClearBeforeRenderingEb@Qt_5 5.6.0
 _ZN12QQuickWindow23setPersistentSceneGraphEb@Qt_5 5.6.0
 _ZN12QQuickWindow25setTransientParent_helperEPS_@Qt_5 5.6.0
 _ZN12QQuickWindow26setPersistentOpenGLContextEb@Qt_5 5.6.0
 _ZN12QQuickWindow5eventEP6QEvent@Qt_5 5.6.0
 _ZN12QQuickWindow6updateEv@Qt_5 5.6.0
 _ZN12QQuickWindow7closingEP16QQuickCloseEvent@Qt_5_PRIVATE_API 5.6.0
 _ZN12QQuickWindow8setColorERK6QColor@Qt_5 5.6.0
 _ZN12QQuickWindow9hideEventEP10QHideEvent@Qt_5 5.6.0
 _ZN12QQuickWindow9sendEventEP10QQuickItemP6QEvent@Qt_5 5.6.0
 _ZN12QQuickWindow9showEventEP10QShowEvent@Qt_5 5.6.0
 _ZN12QQuickWindowC1EP19QQuickRenderControl@Qt_5 5.6.0
 _ZN12QQuickWindowC1EP7QWindow@Qt_5 5.6.0
 _ZN12QQuickWindowC1ER19QQuickWindowPrivateP7QWindow@Qt_5_PRIVATE_API 5.6.0
 _ZN12QQuickWindowC2EP19QQuickRenderControl@Qt_5 5.6.0
 _ZN12QQuickWindowC2EP7QWindow@Qt_5 5.6.0
 _ZN12QQuickWindowC2ER19QQuickWindowPrivateP7QWindow@Qt_5_PRIVATE_API 5.6.0
 _ZN12QQuickWindowD0Ev@Qt_5 5.6.0
 _ZN12QQuickWindowD1Ev@Qt_5 5.6.0
 _ZN12QQuickWindowD2Ev@Qt_5 5.6.0
 _ZN13QQuickAnchors10classBeginEv@Qt_5_PRIVATE_API 5.6.0
 _ZN13QQuickAnchors10resetRightEv@Qt_5_PRIVATE_API 5.6.0
 _ZN13QQuickAnchors10setMarginsEd@Qt_5_PRIVATE_API 5.6.0
 _ZN13QQuickAnchors10topChangedEv@Qt_5_PRIVATE_API 5.6.0
 _ZN13QQuickAnchors11fillChangedEv@Qt_5_PRIVATE_API 5.6.0
 _ZN13QQuickAnchors11leftChangedEv@Qt_5_PRIVATE_API 5.6.0
 _ZN13QQuickAnchors11qt_metacallEN11QMetaObject4CallEiPPv@Qt_5_PRIVATE_API 5.6.0
 _ZN13QQuickAnchors11qt_metacastEPKc@Qt_5_PRIVATE_API 5.6.0
 _ZN13QQuickAnchors11resetBottomEv@Qt_5_PRIVATE_API 5.6.0
 _ZN13QQuickAnchors11setBaselineERK16QQuickAnchorLine@Qt_5_PRIVATE_API 5.6.0
 _ZN13QQuickAnchors11setCenterInEP10QQuickItem@Qt_5_PRIVATE_API 5.6.0
 _ZN13QQuickAnchors12rightChangedEv@Qt_5_PRIVATE_API 5.6.0
 _ZN13QQuickAnchors12setTopMarginEd@Qt_5_PRIVATE_API 5.6.0
 _ZN13QQuickAnchors13bottomChangedEv@Qt_5_PRIVATE_API 5.6.0
 _ZN13QQuickAnchors13resetBaselineEv@Qt_5_PRIVATE_API 5.6.0
 _ZN13QQuickAnchors13resetCenterInEv@Qt_5_PRIVATE_API 5.6.0
 _ZN13QQuickAnchors13setLeftMarginEd@Qt_5_PRIVATE_API 5.6.0
 _ZN13QQuickAnchors14marginsChangedEv@Qt_5_PRIVATE_API 5.6.0
 _ZN13QQuickAnchors14resetTopMarginEv@Qt_5_PRIVATE_API 5.6.0
 _ZN13QQuickAnchors14setRightMarginEd@Qt_5_PRIVATE_API 5.6.0
 _ZN13QQuickAnchors15baselineChangedEv@Qt_5_PRIVATE_API 5.6.0
 _ZN13QQuickAnchors15centerInChangedEv@Qt_5_PRIVATE_API 5.6.0
 _ZN13QQuickAnchors15resetLeftMarginEv@Qt_5_PRIVATE_API 5.6.0
 _ZN13QQuickAnchors15setBottomMarginEd@Qt_5_PRIVATE_API 5.6.0
 _ZN13QQuickAnchors16resetRightMarginEv@Qt_5_PRIVATE_API 5.6.0
 _ZN13QQuickAnchors16staticMetaObjectE@Qt_5_PRIVATE_API 5.6.0
 _ZN13QQuickAnchors16topMarginChangedEv@Qt_5_PRIVATE_API 5.6.0
 _ZN13QQuickAnchors17componentCompleteEv@Qt_5_PRIVATE_API 5.6.0
 _ZN13QQuickAnchors17leftMarginChangedEv@Qt_5_PRIVATE_API 5.6.0
 _ZN13QQuickAnchors17resetBottomMarginEv@Qt_5_PRIVATE_API 5.6.0
 _ZN13QQuickAnchors17setBaselineOffsetEd@Qt_5_PRIVATE_API 5.6.0
 _ZN13QQuickAnchors17setVerticalCenterERK16QQuickAnchorLine@Qt_5_PRIVATE_API 5.6.0
 _ZN13QQuickAnchors18rightMarginChangedEv@Qt_5_PRIVATE_API 5.6.0
 _ZN13QQuickAnchors19bottomMarginChangedEv@Qt_5_PRIVATE_API 5.6.0
 _ZN13QQuickAnchors19resetVerticalCenterEv@Qt_5_PRIVATE_API 5.6.0
 _ZN13QQuickAnchors19setHorizontalCenterERK16QQuickAnchorLine@Qt_5_PRIVATE_API 5.6.0
 _ZN13QQuickAnchors20centerAlignedChangedEv@Qt_5_PRIVATE_API 5.6.0
 _ZN13QQuickAnchors20setAlignWhenCenteredEb@Qt_5_PRIVATE_API 5.6.0
 _ZN13QQuickAnchors21baselineOffsetChangedEv@Qt_5_PRIVATE_API 5.6.0
 _ZN13QQuickAnchors21resetHorizontalCenterEv@Qt_5_PRIVATE_API 5.6.0
 _ZN13QQuickAnchors21verticalCenterChangedEv@Qt_5_PRIVATE_API 5.6.0
 _ZN13QQuickAnchors23horizontalCenterChangedEv@Qt_5_PRIVATE_API 5.6.0
 _ZN13QQuickAnchors23setVerticalCenterOffsetEd@Qt_5_PRIVATE_API 5.6.0
 _ZN13QQuickAnchors25setHorizontalCenterOffsetEd@Qt_5_PRIVATE_API 5.6.0
 _ZN13QQuickAnchors27verticalCenterOffsetChangedEv@Qt_5_PRIVATE_API 5.6.0
 _ZN13QQuickAnchors29horizontalCenterOffsetChangedEv@Qt_5_PRIVATE_API 5.6.0
 _ZN13QQuickAnchors6setTopERK16QQuickAnchorLine@Qt_5_PRIVATE_API 5.6.0
 _ZN13QQuickAnchors7setFillEP10QQuickItem@Qt_5_PRIVATE_API 5.6.0
 _ZN13QQuickAnchors7setLeftERK16QQuickAnchorLine@Qt_5_PRIVATE_API 5.6.0
 _ZN13QQuickAnchors8mirroredEv@Qt_5_PRIVATE_API 5.6.0
 _ZN13QQuickAnchors8resetTopEv@Qt_5_PRIVATE_API 5.6.0
 _ZN13QQuickAnchors8setRightERK16QQuickAnchorLine@Qt_5_PRIVATE_API 5.6.0
 _ZN13QQuickAnchors9resetFillEv@Qt_5_PRIVATE_API 5.6.0
 _ZN13QQuickAnchors9resetLeftEv@Qt_5_PRIVATE_API 5.6.0
 _ZN13QQuickAnchors9setBottomERK16QQuickAnchorLine@Qt_5_PRIVATE_API 5.6.0
 _ZN13QQuickAnchorsC1EP10QQuickItemP7QObject@Qt_5_PRIVATE_API 5.6.0
 _ZN13QQuickAnchorsC2EP10QQuickItemP7QObject@Qt_5_PRIVATE_API 5.6.0
 _ZN13QQuickAnchorsD0Ev@Qt_5_PRIVATE_API 5.6.0
 _ZN13QQuickAnchorsD1Ev@Qt_5_PRIVATE_API 5.6.0
 _ZN13QQuickAnchorsD2Ev@Qt_5_PRIVATE_API 5.6.0
 _ZN13QSGNodeDumper13visitChildrenEP7QSGNode@Qt_5_PRIVATE_API 5.6.0
 _ZN13QSGNodeDumper4dumpEP7QSGNode@Qt_5_PRIVATE_API 5.6.0
 _ZN13QSGNodeDumper9visitNodeEP7QSGNode@Qt_5_PRIVATE_API 5.6.0
 _ZN13QSGNodeDumperD0Ev@Qt_5_PRIVATE_API 5.6.0
 _ZN13QSGNodeDumperD1Ev@Qt_5_PRIVATE_API 5.6.0
 _ZN13QSGNodeDumperD2Ev@Qt_5_PRIVATE_API 5.6.0
 _ZN13QSGRenderLoop10s_instanceE@Qt_5_PRIVATE_API 5.6.0
 _ZN13QSGRenderLoop11qt_metacallEN11QMetaObject4CallEiPPv@Qt_5_PRIVATE_API 5.6.0
 _ZN13QSGRenderLoop11qt_metacastEPKc@Qt_5_PRIVATE_API 5.6.0
 _ZN13QSGRenderLoop11setInstanceEPS_@Qt_5_PRIVATE_API 5.6.0
 _ZN13QSGRenderLoop14timeToIncubateEv@Qt_5_PRIVATE_API 5.6.0
 _ZN13QSGRenderLoop16staticMetaObjectE@Qt_5_PRIVATE_API 5.6.0
 _ZN13QSGRenderLoop28handleContextCreationFailureEP12QQuickWindowb@Qt_5_PRIVATE_API 5.6.0
 _ZN13QSGRenderLoop7cleanupEv@Qt_5_PRIVATE_API 5.6.0
 _ZN13QSGRenderLoop7postJobEP12QQuickWindowP9QRunnable@Qt_5_PRIVATE_API 5.6.0
 _ZN13QSGRenderLoop8instanceEv@Qt_5_PRIVATE_API 5.6.0
 _ZN13QSGRenderLoopD0Ev@Qt_5_PRIVATE_API 5.6.0
 _ZN13QSGRenderLoopD1Ev@Qt_5_PRIVATE_API 5.6.0
 _ZN13QSGRenderLoopD2Ev@Qt_5_PRIVATE_API 5.6.0
 _ZN13QSGRenderNode19setInheritedOpacityEd@Qt_5_PRIVATE_API 5.6.0
 _ZN13QSGRenderNodeC1Ev@Qt_5_PRIVATE_API 5.6.0
 _ZN13QSGRenderNodeC2Ev@Qt_5_PRIVATE_API 5.6.0
 _ZN14QQuickAnimator10transitionER5QListI17QQuickStateActionERS0_I12QQmlPropertyEN23QQuickAbstractAnimation19TransitionDirectionEP7QObject@Qt_5_PRIVATE_API 5.6.0
 _ZN14QQuickAnimator11fromChangedEd@Qt_5_PRIVATE_API 5.6.0
 _ZN14QQuickAnimator11qt_metacallEN11QMetaObject4CallEiPPv@Qt_5_PRIVATE_API 5.6.0
 _ZN14QQuickAnimator11qt_metacastEPKc@Qt_5_PRIVATE_API 5.6.0
 _ZN14QQuickAnimator11setDurationEi@Qt_5_PRIVATE_API 5.6.0
 _ZN14QQuickAnimator13easingChangedERK12QEasingCurve@Qt_5_PRIVATE_API 5.6.0
 _ZN14QQuickAnimator13setTargetItemEP10QQuickItem@Qt_5_PRIVATE_API 5.6.0
 _ZN14QQuickAnimator15durationChangedEi@Qt_5_PRIVATE_API 5.6.0
 _ZN14QQuickAnimator16staticMetaObjectE@Qt_5_PRIVATE_API 5.6.0
 _ZN14QQuickAnimator17targetItemChangedEP10QQuickItem@Qt_5_PRIVATE_API 5.6.0
 _ZN14QQuickAnimator5setToEd@Qt_5_PRIVATE_API 5.6.0
 _ZN14QQuickAnimator7setFromEd@Qt_5_PRIVATE_API 5.6.0
 _ZN14QQuickAnimator9setEasingERK12QEasingCurve@Qt_5_PRIVATE_API 5.6.0
 _ZN14QQuickAnimator9toChangedEd@Qt_5_PRIVATE_API 5.6.0
 _ZN14QQuickAnimatorC1EP7QObject@Qt_5_PRIVATE_API 5.6.0
 _ZN14QQuickAnimatorC1ER21QQuickAnimatorPrivateP7QObject@Qt_5_PRIVATE_API 5.6.0
 _ZN14QQuickAnimatorC2EP7QObject@Qt_5_PRIVATE_API 5.6.0
 _ZN14QQuickAnimatorC2ER21QQuickAnimatorPrivateP7QObject@Qt_5_PRIVATE_API 5.6.0
 _ZN14QQuickBehavior10setEnabledEb@Qt_5_PRIVATE_API 5.6.0
 _ZN14QQuickBehavior11qt_metacallEN11QMetaObject4CallEiPPv@Qt_5_PRIVATE_API 5.6.0
 _ZN14QQuickBehavior11qt_metacastEPKc@Qt_5_PRIVATE_API 5.6.0
 _ZN14QQuickBehavior12setAnimationEP23QQuickAbstractAnimation@Qt_5_PRIVATE_API 5.6.0
 _ZN14QQuickBehavior14enabledChangedEv@Qt_5_PRIVATE_API 5.6.0
 _ZN14QQuickBehavior16staticMetaObjectE@Qt_5_PRIVATE_API 5.6.0
 _ZN14QQuickBehavior18componentFinalizedEv@Qt_5_PRIVATE_API 5.6.0
 _ZN14QQuickBehavior5writeERK8QVariant@Qt_5_PRIVATE_API 5.6.0
 _ZN14QQuickBehavior9animationEv@Qt_5_PRIVATE_API 5.6.0
 _ZN14QQuickBehavior9setTargetERK12QQmlProperty@Qt_5_PRIVATE_API 5.6.0
 _ZN14QQuickBehaviorC1EP7QObject@Qt_5_PRIVATE_API 5.6.0
 _ZN14QQuickBehaviorC2EP7QObject@Qt_5_PRIVATE_API 5.6.0
 _ZN14QQuickBehaviorD0Ev@Qt_5_PRIVATE_API 5.6.0
 _ZN14QQuickBehaviorD1Ev@Qt_5_PRIVATE_API 5.6.0
 _ZN14QQuickBehaviorD2Ev@Qt_5_PRIVATE_API 5.6.0
 _ZN14QQuickGradient11qt_metacallEN11QMetaObject4CallEiPPv@Qt_5_PRIVATE_API 5.6.0
 _ZN14QQuickGradient11qt_metacastEPKc@Qt_5_PRIVATE_API 5.6.0
 _ZN14QQuickGradient16staticMetaObjectE@Qt_5_PRIVATE_API 5.6.0
 _ZN14QQuickGradient5stopsEv@Qt_5_PRIVATE_API 5.6.0
 _ZN14QQuickGradient7updatedEv@Qt_5_PRIVATE_API 5.6.0
 _ZN14QQuickGradient8doUpdateEv@Qt_5_PRIVATE_API 5.6.0
 _ZN14QQuickGradientC1EP7QObject@Qt_5_PRIVATE_API 5.6.0
 _ZN14QQuickGradientC2EP7QObject@Qt_5_PRIVATE_API 5.6.0
 _ZN14QQuickGradientD0Ev@Qt_5_PRIVATE_API 5.6.0
 _ZN14QQuickGradientD1Ev@Qt_5_PRIVATE_API 5.6.0
 _ZN14QQuickGradientD2Ev@Qt_5_PRIVATE_API 5.6.0
 _ZN14QQuickItemView11animStoppedEv@Qt_5_PRIVATE_API 5.6.0
 _ZN14QQuickItemView11createdItemEiP7QObject@Qt_5_PRIVATE_API 5.6.0
 _ZN14QQuickItemView11forceLayoutEv@Qt_5_PRIVATE_API 5.6.0
 _ZN14QQuickItemView11qt_metacallEN11QMetaObject4CallEiPPv@Qt_5_PRIVATE_API 5.6.0
 _ZN14QQuickItemView11qt_metacastEPKc@Qt_5_PRIVATE_API 5.6.0
 _ZN14QQuickItemView11setContentXEd@Qt_5_PRIVATE_API 5.6.0
 _ZN14QQuickItemView11setContentYEd@Qt_5_PRIVATE_API 5.6.0
 _ZN14QQuickItemView11setDelegateEP13QQmlComponent@Qt_5_PRIVATE_API 5.6.0
 _ZN14QQuickItemView12countChangedEv@Qt_5_PRIVATE_API 5.6.0
 _ZN14QQuickItemView12modelChangedEv@Qt_5_PRIVATE_API 5.6.0
 _ZN14QQuickItemView12modelUpdatedERK13QQmlChangeSetb@Qt_5_PRIVATE_API 5.6.0
 _ZN14QQuickItemView12setHighlightEP13QQmlComponent@Qt_5_PRIVATE_API 5.6.0
 _ZN14QQuickItemView12updatePolishEv@Qt_5_PRIVATE_API 5.6.0
 _ZN14QQuickItemView13footerChangedEv@Qt_5_PRIVATE_API 5.6.0
 _ZN14QQuickItemView13headerChangedEv@Qt_5_PRIVATE_API 5.6.0
 _ZN14QQuickItemView14destroyRemovedEv@Qt_5_PRIVATE_API 5.6.0
 _ZN14QQuickItemView14destroyingItemEP7QObject@Qt_5_PRIVATE_API 5.6.0
 _ZN14QQuickItemView14setCacheBufferEi@Qt_5_PRIVATE_API 5.6.0
 _ZN14QQuickItemView14setWrapEnabledEb@Qt_5_PRIVATE_API 5.6.0
 _ZN14QQuickItemView15delegateChangedEv@Qt_5_PRIVATE_API 5.6.0
 _ZN14QQuickItemView15geometryChangedERK6QRectFS2_@Qt_5_PRIVATE_API 5.6.0
 _ZN14QQuickItemView15setCurrentIndexEi@Qt_5_PRIVATE_API 5.6.0
 _ZN14QQuickItemView16highlightChangedEv@Qt_5_PRIVATE_API 5.6.0
 _ZN14QQuickItemView16setAddTransitionEP16QQuickTransition@Qt_5_PRIVATE_API 5.6.0
 _ZN14QQuickItemView16staticMetaObjectE@Qt_5_PRIVATE_API 5.6.0
 _ZN14QQuickItemView17componentCompleteEv@Qt_5_PRIVATE_API 5.6.0
 _ZN14QQuickItemView17footerItemChangedEv@Qt_5_PRIVATE_API 5.6.0
 _ZN14QQuickItemView17headerItemChangedEv@Qt_5_PRIVATE_API 5.6.0
 _ZN14QQuickItemView17positionViewAtEndEv@Qt_5_PRIVATE_API 5.6.0
 _ZN14QQuickItemView17setMoveTransitionEP16QQuickTransition@Qt_5_PRIVATE_API 5.6.0
 _ZN14QQuickItemView18cacheBufferChangedEv@Qt_5_PRIVATE_API 5.6.0
 _ZN14QQuickItemView18currentItemChangedEv@Qt_5_PRIVATE_API 5.6.0
 _ZN14QQuickItemView18setLayoutDirectionEN2Qt15LayoutDirectionE@Qt_5_PRIVATE_API 5.6.0
 _ZN14QQuickItemView19currentIndexChangedEv@Qt_5_PRIVATE_API 5.6.0
 _ZN14QQuickItemView19positionViewAtIndexEii@Qt_5_PRIVATE_API 5.6.0
 _ZN14QQuickItemView19setDisplayMarginEndEi@Qt_5_PRIVATE_API 5.6.0
 _ZN14QQuickItemView19setRemoveTransitionEP16QQuickTransition@Qt_5_PRIVATE_API 5.6.0
 _ZN14QQuickItemView20addTransitionChangedEv@Qt_5_PRIVATE_API 5.6.0
 _ZN14QQuickItemView20highlightItemChangedEv@Qt_5_PRIVATE_API 5.6.0
 _ZN14QQuickItemView21moveTransitionChangedEv@Qt_5_PRIVATE_API 5.6.0
 _ZN14QQuickItemView21setHighlightRangeModeENS_18HighlightRangeModeE@Qt_5_PRIVATE_API 5.6.0
 _ZN14QQuickItemView21setPopulateTransitionEP16QQuickTransition@Qt_5_PRIVATE_API 5.6.0
 _ZN14QQuickItemView22layoutDirectionChangedEv@Qt_5_PRIVATE_API 5.6.0
 _ZN14QQuickItemView22setDisplacedTransitionEP16QQuickTransition@Qt_5_PRIVATE_API 5.6.0
 _ZN14QQuickItemView22trackedPositionChangedEv@Qt_5_PRIVATE_API 5.6.0
 _ZN14QQuickItemView23displayMarginEndChangedEv@Qt_5_PRIVATE_API 5.6.0
 _ZN14QQuickItemView23positionViewAtBeginningEv@Qt_5_PRIVATE_API 5.6.0
 _ZN14QQuickItemView23removeTransitionChangedEv@Qt_5_PRIVATE_API 5.6.0
 _ZN14QQuickItemView24setHighlightMoveDurationEi@Qt_5_PRIVATE_API 5.6.0
 _ZN14QQuickItemView24setPreferredHighlightEndEd@Qt_5_PRIVATE_API 5.6.0
 _ZN14QQuickItemView25highlightRangeModeChangedEv@Qt_5_PRIVATE_API 5.6.0
 _ZN14QQuickItemView25keyNavigationWrapsChangedEv@Qt_5_PRIVATE_API 5.6.0
 _ZN14QQuickItemView25populateTransitionChangedEv@Qt_5_PRIVATE_API 5.6.0
 _ZN14QQuickItemView25setAddDisplacedTransitionEP16QQuickTransition@Qt_5_PRIVATE_API 5.6.0
 _ZN14QQuickItemView25setDisplayMarginBeginningEi@Qt_5_PRIVATE_API 5.6.0
 _ZN14QQuickItemView26displacedTransitionChangedEv@Qt_5_PRIVATE_API 5.6.0
 _ZN14QQuickItemView26resetPreferredHighlightEndEv@Qt_5_PRIVATE_API 5.6.0
 _ZN14QQuickItemView26setMoveDisplacedTransitionEP16QQuickTransition@Qt_5_PRIVATE_API 5.6.0
 _ZN14QQuickItemView26setPreferredHighlightBeginEd@Qt_5_PRIVATE_API 5.6.0
 _ZN14QQuickItemView26setVerticalLayoutDirectionENS_23VerticalLayoutDirectionE@Qt_5_PRIVATE_API 5.6.0
 _ZN14QQuickItemView28highlightMoveDurationChangedEv@Qt_5_PRIVATE_API 5.6.0
 _ZN14QQuickItemView28preferredHighlightEndChangedEv@Qt_5_PRIVATE_API 5.6.0
 _ZN14QQuickItemView28resetPreferredHighlightBeginEv@Qt_5_PRIVATE_API 5.6.0
 _ZN14QQuickItemView28setRemoveDisplacedTransitionEP16QQuickTransition@Qt_5_PRIVATE_API 5.6.0
 _ZN14QQuickItemView29addDisplacedTransitionChangedEv@Qt_5_PRIVATE_API 5.6.0
 _ZN14QQuickItemView29displayMarginBeginningChangedEv@Qt_5_PRIVATE_API 5.6.0
 _ZN14QQuickItemView30moveDisplacedTransitionChangedEv@Qt_5_PRIVATE_API 5.6.0
 _ZN14QQuickItemView30preferredHighlightBeginChangedEv@Qt_5_PRIVATE_API 5.6.0
 _ZN14QQuickItemView30setHighlightFollowsCurrentItemEb@Qt_5_PRIVATE_API 5.6.0
 _ZN14QQuickItemView30verticalLayoutDirectionChangedEv@Qt_5_PRIVATE_API 5.6.0
 _ZN14QQuickItemView31effectiveLayoutDirectionChangedEv@Qt_5_PRIVATE_API 5.6.0
 _ZN14QQuickItemView32removeDisplacedTransitionChangedEv@Qt_5_PRIVATE_API 5.6.0
 _ZN14QQuickItemView34highlightFollowsCurrentItemChangedEv@Qt_5_PRIVATE_API 5.6.0
 _ZN14QQuickItemView8initItemEiP7QObject@Qt_5_PRIVATE_API 5.6.0
 _ZN14QQuickItemView8setModelERK8QVariant@Qt_5_PRIVATE_API 5.6.0
 _ZN14QQuickItemView9setFooterEP13QQmlComponent@Qt_5_PRIVATE_API 5.6.0
 _ZN14QQuickItemView9setHeaderEP13QQmlComponent@Qt_5_PRIVATE_API 5.6.0
 _ZN14QQuickItemViewC1ER22QQuickFlickablePrivateP10QQuickItem@Qt_5_PRIVATE_API 5.6.0
 _ZN14QQuickItemViewC2ER22QQuickFlickablePrivateP10QQuickItem@Qt_5_PRIVATE_API 5.6.0
 _ZN14QQuickItemViewD0Ev@Qt_5_PRIVATE_API 5.6.0
 _ZN14QQuickItemViewD1Ev@Qt_5_PRIVATE_API 5.6.0
 _ZN14QQuickItemViewD2Ev@Qt_5_PRIVATE_API 5.6.0
 _ZN14QQuickProfiler10initializeEP19QQmlProfilerService@Qt_5_PRIVATE_API 5.6.0
 _ZN14QQuickProfiler10s_instanceE@Qt_5_PRIVATE_API 5.6.0
 _ZN14QQuickProfiler11qt_metacallEN11QMetaObject4CallEiPPv@Qt_5_PRIVATE_API 5.6.0
 _ZN14QQuickProfiler11qt_metacastEPKc@Qt_5_PRIVATE_API 5.6.0
 _ZN14QQuickProfiler12sendMessagesExR5QListI10QByteArrayE@Qt_5_PRIVATE_API 5.6.0
 _ZN14QQuickProfiler14reportDataImplEv@Qt_5_PRIVATE_API 5.6.0
 _ZN14QQuickProfiler15featuresEnabledE@Qt_5_PRIVATE_API 5.6.0
 _ZN14QQuickProfiler16staticMetaObjectE@Qt_5_PRIVATE_API 5.6.0
 _ZN14QQuickProfiler17stopProfilingImplEv@Qt_5_PRIVATE_API 5.6.0
 _ZN14QQuickProfiler18startProfilingImplEy@Qt_5_PRIVATE_API 5.6.0
 _ZN14QQuickProfiler21reportSceneGraphFrameILN23QQmlProfilerDefinitions19SceneGraphFrameTypeE2ELb1EEEvy@Qt_5_PRIVATE_API 5.6.0
 _ZN14QQuickProfiler25registerAnimationCallbackEv@Qt_5_PRIVATE_API 5.6.0
 _ZN14QQuickProfiler8setTimerERK13QElapsedTimer@Qt_5_PRIVATE_API 5.6.0
 _ZN14QQuickProfilerC1EP19QQmlProfilerService@Qt_5_PRIVATE_API 5.6.0
 _ZN14QQuickProfilerC2EP19QQmlProfilerService@Qt_5_PRIVATE_API 5.6.0
 _ZN14QQuickProfilerD0Ev@Qt_5_PRIVATE_API 5.6.0
 _ZN14QQuickProfilerD1Ev@Qt_5_PRIVATE_API 5.6.0
 _ZN14QQuickProfilerD2Ev@Qt_5_PRIVATE_API 5.6.0
 _ZN14QQuickTextEdit10selectWordEv@Qt_5_PRIVATE_API 5.6.0
 _ZN14QQuickTextEdit10setBaseUrlERK4QUrl@Qt_5_PRIVATE_API 5.6.0
 _ZN14QQuickTextEdit10setPaddingEd@Qt_5_PRIVATE_API 5.6.0
 _ZN14QQuickTextEdit10updateSizeEv@Qt_5_PRIVATE_API 5.6.0
 _ZN14QQuickTextEdit11fontChangedERK5QFont@Qt_5_PRIVATE_API 5.6.0
 _ZN14QQuickTextEdit11linkHoveredERK7QString@Qt_5_PRIVATE_API 5.6.0
 _ZN14QQuickTextEdit11qt_metacallEN11QMetaObject4CallEiPPv@Qt_5_PRIVATE_API 5.6.0
 _ZN14QQuickTextEdit11qt_metacastEPKc@Qt_5_PRIVATE_API 5.6.0
 _ZN14QQuickTextEdit11resetHAlignEv@Qt_5_PRIVATE_API 5.6.0
 _ZN14QQuickTextEdit11setReadOnlyEb@Qt_5_PRIVATE_API 5.6.0
 _ZN14QQuickTextEdit11setWrapModeENS_8WrapModeE@Qt_5_PRIVATE_API 5.6.0
 _ZN14QQuickTextEdit11textChangedEv@Qt_5_PRIVATE_API 5.6.0
 _ZN14QQuickTextEdit12colorChangedERK6QColor@Qt_5_PRIVATE_API 5.6.0
 _ZN14QQuickTextEdit12createCursorEv@Qt_5_PRIVATE_API 5.6.0
 _ZN14QQuickTextEdit12focusInEventEP11QFocusEvent@Qt_5_PRIVATE_API 5.6.0
 _ZN14QQuickTextEdit12resetBaseUrlEv@Qt_5_PRIVATE_API 5.6.0
 _ZN14QQuickTextEdit12resetPaddingEv@Qt_5_PRIVATE_API 5.6.0
 _ZN14QQuickTextEdit12textDocumentEv@Qt_5_PRIVATE_API 5.6.0
 _ZN14QQuickTextEdit12updateCursorEv@Qt_5_PRIVATE_API 5.6.0
 _ZN14QQuickTextEdit12updatePolishEv@Qt_5_PRIVATE_API 5.6.0
 _ZN14QQuickTextEdit13focusOutEventEP11QFocusEvent@Qt_5_PRIVATE_API 5.6.0
 _ZN14QQuickTextEdit13isRightToLeftEii@Qt_5_PRIVATE_API 5.6.0
 _ZN14QQuickTextEdit13keyPressEventEP9QKeyEvent@Qt_5_PRIVATE_API 5.6.0
 _ZN14QQuickTextEdit13linkActivatedERK7QString@Qt_5_PRIVATE_API 5.6.0
 _ZN14QQuickTextEdit13q_textChangedEv@Qt_5_PRIVATE_API 5.6.0
 _ZN14QQuickTextEdit13setRenderTypeENS_10RenderTypeE@Qt_5_PRIVATE_API 5.6.0
 _ZN14QQuickTextEdit13setTextFormatENS_10TextFormatE@Qt_5_PRIVATE_API 5.6.0
 _ZN14QQuickTextEdit13setTextMarginEd@Qt_5_PRIVATE_API 5.6.0
 _ZN14QQuickTextEdit13setTopPaddingEd@Qt_5_PRIVATE_API 5.6.0
 _ZN14QQuickTextEdit14baseUrlChangedEv@Qt_5_PRIVATE_API 5.6.0
 _ZN14QQuickTextEdit14canRedoChangedEv@Qt_5_PRIVATE_API 5.6.0
 _ZN14QQuickTextEdit14canUndoChangedEv@Qt_5_PRIVATE_API 5.6.0
 _ZN14QQuickTextEdit14hoverMoveEventEP11QHoverEvent@Qt_5_PRIVATE_API 5.6.0
 _ZN14QQuickTextEdit14mouseMoveEventEP11QMouseEvent@Qt_5_PRIVATE_API 5.6.0
 _ZN14QQuickTextEdit14paddingChangedEv@Qt_5_PRIVATE_API 5.6.0
 _ZN14QQuickTextEdit14setLeftPaddingEd@Qt_5_PRIVATE_API 5.6.0
 _ZN14QQuickTextEdit15canPasteChangedEv@Qt_5_PRIVATE_API 5.6.0
 _ZN14QQuickTextEdit15editingFinishedEv@Qt_5_PRIVATE_API 5.6.0
 _ZN14QQuickTextEdit15geometryChangedERK6QRectFS2_@Qt_5_PRIVATE_API 5.6.0
 _ZN14QQuickTextEdit15hoverEnterEventEP11QHoverEvent@Qt_5_PRIVATE_API 5.6.0
 _ZN14QQuickTextEdit15hoverLeaveEventEP11QHoverEvent@Qt_5_PRIVATE_API 5.6.0
 _ZN14QQuickTextEdit15invalidateBlockERK10QTextBlock@Qt_5_PRIVATE_API 5.6.0
 _ZN14QQuickTextEdit15keyReleaseEventEP9QKeyEvent@Qt_5_PRIVATE_API 5.6.0
 _ZN14QQuickTextEdit15mousePressEventEP11QMouseEvent@Qt_5_PRIVATE_API 5.6.0
 _ZN14QQuickTextEdit15readOnlyChangedEb@Qt_5_PRIVATE_API 5.6.0
 _ZN14QQuickTextEdit15resetTopPaddingEv@Qt_5_PRIVATE_API 5.6.0
 _ZN14QQuickTextEdit15setFocusOnPressEb@Qt_5_PRIVATE_API 5.6.0
 _ZN14QQuickTextEdit15setRightPaddingEd@Qt_5_PRIVATE_API 5.6.0
 _ZN14QQuickTextEdit15updatePaintNodeEP7QSGNodePN10QQuickItem19UpdatePaintNodeDataE@Qt_5_PRIVATE_API 5.6.0
 _ZN14QQuickTextEdit15updateSelectionEv@Qt_5_PRIVATE_API 5.6.0
 _ZN14QQuickTextEdit15wrapModeChangedEv@Qt_5_PRIVATE_API 5.6.0
 _ZN14QQuickTextEdit16inputMethodEventEP17QInputMethodEvent@Qt_5_PRIVATE_API 5.6.0
 _ZN14QQuickTextEdit16lineCountChangedEv@Qt_5_PRIVATE_API 5.6.0
 _ZN14QQuickTextEdit16q_contentsChangeEiii@Qt_5_PRIVATE_API 5.6.0
 _ZN14QQuickTextEdit16resetLeftPaddingEv@Qt_5_PRIVATE_API 5.6.0
 _ZN14QQuickTextEdit16setBottomPaddingEd@Qt_5_PRIVATE_API 5.6.0
 _ZN14QQuickTextEdit16setCursorVisibleEb@Qt_5_PRIVATE_API 5.6.0
 _ZN14QQuickTextEdit16setSelectByMouseEb@Qt_5_PRIVATE_API 5.6.0
 _ZN14QQuickTextEdit16staticMetaObjectE@Qt_5_PRIVATE_API 5.6.0
 _ZN14QQuickTextEdit16updateTotalLinesEv@Qt_5_PRIVATE_API 5.6.0
 _ZN14QQuickTextEdit17componentCompleteEv@Qt_5_PRIVATE_API 5.6.0
 _ZN14QQuickTextEdit17mouseReleaseEventEP11QMouseEvent@Qt_5_PRIVATE_API 5.6.0
 _ZN14QQuickTextEdit17q_canPasteChangedEv@Qt_5_PRIVATE_API 5.6.0
 _ZN14QQuickTextEdit17q_updateAlignmentEv@Qt_5_PRIVATE_API 5.6.0
 _ZN14QQuickTextEdit17renderTypeChangedEv@Qt_5_PRIVATE_API 5.6.0
 _ZN14QQuickTextEdit17resetRightPaddingEv@Qt_5_PRIVATE_API 5.6.0
 _ZN14QQuickTextEdit17setCursorDelegateEP13QQmlComponent@Qt_5_PRIVATE_API 5.6.0
 _ZN14QQuickTextEdit17setCursorPositionEi@Qt_5_PRIVATE_API 5.6.0
 _ZN14QQuickTextEdit17setSelectionColorERK6QColor@Qt_5_PRIVATE_API 5.6.0
 _ZN14QQuickTextEdit17textFormatChangedENS_10TextFormatE@Qt_5_PRIVATE_API 5.6.0
 _ZN14QQuickTextEdit17textMarginChangedEd@Qt_5_PRIVATE_API 5.6.0
 _ZN14QQuickTextEdit17topPaddingChangedEv@Qt_5_PRIVATE_API 5.6.0
 _ZN14QQuickTextEdit17triggerPreprocessEv@Qt_5_PRIVATE_API 5.6.0
 _ZN14QQuickTextEdit18contentSizeChangedEv@Qt_5_PRIVATE_API 5.6.0
 _ZN14QQuickTextEdit18leftPaddingChangedEv@Qt_5_PRIVATE_API 5.6.0
 _ZN14QQuickTextEdit18moveCursorDelegateEv@Qt_5_PRIVATE_API 5.6.0
 _ZN14QQuickTextEdit18resetBottomPaddingEv@Qt_5_PRIVATE_API 5.6.0
 _ZN14QQuickTextEdit19moveCursorSelectionEi@Qt_5_PRIVATE_API 5.6.0
 _ZN14QQuickTextEdit19moveCursorSelectionEiNS_13SelectionModeE@Qt_5_PRIVATE_API 5.6.0
 _ZN14QQuickTextEdit19rightPaddingChangedEv@Qt_5_PRIVATE_API 5.6.0
 _ZN14QQuickTextEdit19selectedTextChangedEv@Qt_5_PRIVATE_API 5.6.0
 _ZN14QQuickTextEdit19selectionEndChangedEv@Qt_5_PRIVATE_API 5.6.0
 _ZN14QQuickTextEdit19setInputMethodHintsE6QFlagsIN2Qt15InputMethodHintEE@Qt_5_PRIVATE_API 5.6.0
 _ZN14QQuickTextEdit19setSelectByKeyboardEb@Qt_5_PRIVATE_API 5.6.0
 _ZN14QQuickTextEdit19updateWholeDocumentEv@Qt_5_PRIVATE_API 5.6.0
 _ZN14QQuickTextEdit20bottomPaddingChangedEv@Qt_5_PRIVATE_API 5.6.0
 _ZN14QQuickTextEdit20cursorVisibleChangedEb@Qt_5_PRIVATE_API 5.6.0
 _ZN14QQuickTextEdit20invalidateFontCachesEv@Qt_5_PRIVATE_API 5.6.0
 _ZN14QQuickTextEdit20selectByMouseChangedEb@Qt_5_PRIVATE_API 5.6.0
 _ZN14QQuickTextEdit20setSelectedTextColorERK6QColor@Qt_5_PRIVATE_API 5.6.0
 _ZN14QQuickTextEdit21cursorDelegateChangedEv@Qt_5_PRIVATE_API 5.6.0
 _ZN14QQuickTextEdit21cursorPositionChangedEv@Qt_5_PRIVATE_API 5.6.0
 _ZN14QQuickTextEdit21mouseDoubleClickEventEP11QMouseEvent@Qt_5_PRIVATE_API 5.6.0
 _ZN14QQuickTextEdit21selectionColorChangedERK6QColor@Qt_5_PRIVATE_API 5.6.0
 _ZN14QQuickTextEdit21selectionStartChangedEv@Qt_5_PRIVATE_API 5.6.0
 _ZN14QQuickTextEdit21setMouseSelectionModeENS_13SelectionModeE@Qt_5_PRIVATE_API 5.6.0
 _ZN14QQuickTextEdit22cursorRectangleChangedEv@Qt_5_PRIVATE_API 5.6.0
 _ZN14QQuickTextEdit22markDirtyNodesForRangeEiii@Qt_5_PRIVATE_API 5.6.0
 _ZN14QQuickTextEdit22setPersistentSelectionEb@Qt_5_PRIVATE_API 5.6.0
 _ZN14QQuickTextEdit23inputMethodHintsChangedEv@Qt_5_PRIVATE_API 5.6.0
 _ZN14QQuickTextEdit23selectByKeyboardChangedEb@Qt_5_PRIVATE_API 5.6.0
 _ZN14QQuickTextEdit24selectedTextColorChangedERK6QColor@Qt_5_PRIVATE_API 5.6.0
 _ZN14QQuickTextEdit24verticalAlignmentChangedENS_10VAlignmentE@Qt_5_PRIVATE_API 5.6.0
 _ZN14QQuickTextEdit25activeFocusOnPressChangedEb@Qt_5_PRIVATE_API 5.6.0
 _ZN14QQuickTextEdit25mouseSelectionModeChangedENS_13SelectionModeE@Qt_5_PRIVATE_API 5.6.0
 _ZN14QQuickTextEdit26horizontalAlignmentChangedENS_10HAlignmentE@Qt_5_PRIVATE_API 5.6.0
 _ZN14QQuickTextEdit26persistentSelectionChangedEb@Qt_5_PRIVATE_API 5.6.0
 _ZN14QQuickTextEdit27inputMethodComposingChangedEv@Qt_5_PRIVATE_API 5.6.0
 _ZN14QQuickTextEdit35effectiveHorizontalAlignmentChangedEv@Qt_5_PRIVATE_API 5.6.0
 _ZN14QQuickTextEdit3cutEv@Qt_5_PRIVATE_API 5.6.0
 _ZN14QQuickTextEdit4copyEv@Qt_5_PRIVATE_API 5.6.0
 _ZN14QQuickTextEdit4redoEv@Qt_5_PRIVATE_API 5.6.0
 _ZN14QQuickTextEdit4undoEv@Qt_5_PRIVATE_API 5.6.0
 _ZN14QQuickTextEdit5eventEP6QEvent@Qt_5_PRIVATE_API 5.6.0
 _ZN14QQuickTextEdit5pasteEv@Qt_5_PRIVATE_API 5.6.0
 _ZN14QQuickTextEdit6appendERK7QString@Qt_5_PRIVATE_API 5.6.0
 _ZN14QQuickTextEdit6insertEiRK7QString@Qt_5_PRIVATE_API 5.6.0
 _ZN14QQuickTextEdit6removeEii@Qt_5_PRIVATE_API 5.6.0
 _ZN14QQuickTextEdit6selectEii@Qt_5_PRIVATE_API 5.6.0
 _ZN14QQuickTextEdit7setFontERK5QFont@Qt_5_PRIVATE_API 5.6.0
 _ZN14QQuickTextEdit7setTextERK7QString@Qt_5_PRIVATE_API 5.6.0
 _ZN14QQuickTextEdit8deselectEv@Qt_5_PRIVATE_API 5.6.0
 _ZN14QQuickTextEdit8setColorERK6QColor@Qt_5_PRIVATE_API 5.6.0
 _ZN14QQuickTextEdit9selectAllEv@Qt_5_PRIVATE_API 5.6.0
 _ZN14QQuickTextEdit9setHAlignENS_10HAlignmentE@Qt_5_PRIVATE_API 5.6.0
 _ZN14QQuickTextEdit9setVAlignENS_10VAlignmentE@Qt_5_PRIVATE_API 5.6.0
 _ZN14QQuickTextEditC1EP10QQuickItem@Qt_5_PRIVATE_API 5.6.0
 _ZN14QQuickTextEditC1ER21QQuickTextEditPrivateP10QQuickItem@Qt_5_PRIVATE_API 5.6.0
 _ZN14QQuickTextEditC2EP10QQuickItem@Qt_5_PRIVATE_API 5.6.0
 _ZN14QQuickTextEditC2ER21QQuickTextEditPrivateP10QQuickItem@Qt_5_PRIVATE_API 5.6.0
 _ZN14QQuickTextEditD0Ev@Qt_5_PRIVATE_API 5.6.0
 _ZN14QQuickTextEditD1Ev@Qt_5_PRIVATE_API 5.6.0
 _ZN14QQuickTextEditD2Ev@Qt_5_PRIVATE_API 5.6.0
 _ZN14QSGNodeUpdater12updateStatesEP7QSGNode@Qt_5_PRIVATE_API 5.6.0
 _ZN14QSGNodeUpdater13enterClipNodeEP11QSGClipNode@Qt_5_PRIVATE_API 5.6.0
 _ZN14QSGNodeUpdater13leaveClipNodeEP11QSGClipNode@Qt_5_PRIVATE_API 5.6.0
 _ZN14QSGNodeUpdater13visitChildrenEP7QSGNode@Qt_5_PRIVATE_API 5.6.0
 _ZN14QSGNodeUpdater15enterRenderNodeEP13QSGRenderNode@Qt_5_PRIVATE_API 5.6.0
 _ZN14QSGNodeUpdater15leaveRenderNodeEP13QSGRenderNode@Qt_5_PRIVATE_API 5.6.0
 _ZN14QSGNodeUpdater16enterOpacityNodeEP14QSGOpacityNode@Qt_5_PRIVATE_API 5.6.0
 _ZN14QSGNodeUpdater16leaveOpacityNodeEP14QSGOpacityNode@Qt_5_PRIVATE_API 5.6.0
 _ZN14QSGNodeUpdater17enterGeometryNodeEP15QSGGeometryNode@Qt_5_PRIVATE_API 5.6.0
 _ZN14QSGNodeUpdater17leaveGeometryNodeEP15QSGGeometryNode@Qt_5_PRIVATE_API 5.6.0
 _ZN14QSGNodeUpdater18enterTransformNodeEP16QSGTransformNode@Qt_5_PRIVATE_API 5.6.0
 _ZN14QSGNodeUpdater18leaveTransformNodeEP16QSGTransformNode@Qt_5_PRIVATE_API 5.6.0
 _ZN14QSGNodeUpdater9visitNodeEP7QSGNode@Qt_5_PRIVATE_API 5.6.0
 _ZN14QSGNodeUpdaterC1Ev@Qt_5_PRIVATE_API 5.6.0
 _ZN14QSGNodeUpdaterC2Ev@Qt_5_PRIVATE_API 5.6.0
 _ZN14QSGNodeUpdaterD0Ev@Qt_5_PRIVATE_API 5.6.0
 _ZN14QSGNodeUpdaterD1Ev@Qt_5_PRIVATE_API 5.6.0
 _ZN14QSGNodeUpdaterD2Ev@Qt_5_PRIVATE_API 5.6.0
 _ZN14QSGNodeVisitor13visitChildrenEP7QSGNode@Qt_5 5.6.0
 _ZN14QSGNodeVisitor9visitNodeEP7QSGNode@Qt_5 5.6.0
 _ZN14QSGNodeVisitorD0Ev@Qt_5 5.6.0
 _ZN14QSGNodeVisitorD1Ev@Qt_5 5.6.0
 _ZN14QSGNodeVisitorD2Ev@Qt_5 5.6.0
 _ZN14QSGOpacityNode10setOpacityEd@Qt_5 5.6.0
 _ZN14QSGOpacityNode18setCombinedOpacityEd@Qt_5 5.6.0
 _ZN14QSGOpacityNodeC1Ev@Qt_5 5.6.0
 _ZN14QSGOpacityNodeC2Ev@Qt_5 5.6.0
 _ZN14QSGOpacityNodeD0Ev@Qt_5 5.6.0
 _ZN14QSGOpacityNodeD1Ev@Qt_5 5.6.0
 _ZN14QSGOpacityNodeD2Ev@Qt_5 5.6.0
 _ZN15QQuickFlickable10flickEndedEv@Qt_5_PRIVATE_API 5.6.0
 _ZN15QQuickFlickable10setReboundEP16QQuickTransition@Qt_5_PRIVATE_API 5.6.0
 _ZN15QQuickFlickable10timerEventEP11QTimerEvent@Qt_5_PRIVATE_API 5.6.0
 _ZN15QQuickFlickable10wheelEventEP11QWheelEvent@Qt_5_PRIVATE_API 5.6.0
 _ZN15QQuickFlickable11cancelFlickEv@Qt_5_PRIVATE_API 5.6.0
 _ZN15QQuickFlickable11contentItemEv@Qt_5_PRIVATE_API 5.6.0
 _ZN15QQuickFlickable11dragStartedEv@Qt_5_PRIVATE_API 5.6.0
 _ZN15QQuickFlickable11qt_metacallEN11QMetaObject4CallEiPPv@Qt_5_PRIVATE_API 5.6.0
 _ZN15QQuickFlickable11qt_metacastEPKc@Qt_5_PRIVATE_API 5.6.0
 _ZN15QQuickFlickable11setContentXEd@Qt_5_PRIVATE_API 5.6.0
 _ZN15QQuickFlickable11setContentYEd@Qt_5_PRIVATE_API 5.6.0
 _ZN15QQuickFlickable11visibleAreaEv@Qt_5_PRIVATE_API 5.6.0
 _ZN15QQuickFlickable12flickStartedEv@Qt_5_PRIVATE_API 5.6.0
 _ZN15QQuickFlickable12setTopMarginEd@Qt_5_PRIVATE_API 5.6.0
 _ZN15QQuickFlickable13flickableDataEv@Qt_5_PRIVATE_API 5.6.0
 _ZN15QQuickFlickable13movementEndedEv@Qt_5_PRIVATE_API 5.6.0
 _ZN15QQuickFlickable13movingChangedEv@Qt_5_PRIVATE_API 5.6.0
 _ZN15QQuickFlickable13resizeContentEdd7QPointF@Qt_5_PRIVATE_API 5.6.0
 _ZN15QQuickFlickable13setLeftMarginEd@Qt_5_PRIVATE_API 5.6.0
 _ZN15QQuickFlickable13setPressDelayEi@Qt_5_PRIVATE_API 5.6.0
 _ZN15QQuickFlickable13viewportMovedE6QFlagsIN2Qt11OrientationEE@Qt_5_PRIVATE_API 5.6.0
 _ZN15QQuickFlickable14mouseMoveEventEP11QMouseEvent@Qt_5_PRIVATE_API 5.6.0
 _ZN15QQuickFlickable14movementEndingEbb@Qt_5_PRIVATE_API 5.6.0
 _ZN15QQuickFlickable14movementEndingEv@Qt_5_PRIVATE_API 5.6.0
 _ZN15QQuickFlickable14originXChangedEv@Qt_5_PRIVATE_API 5.6.0
 _ZN15QQuickFlickable14originYChangedEv@Qt_5_PRIVATE_API 5.6.0
 _ZN15QQuickFlickable14reboundChangedEv@Qt_5_PRIVATE_API 5.6.0
 _ZN15QQuickFlickable14returnToBoundsEv@Qt_5_PRIVATE_API 5.6.0
 _ZN15QQuickFlickable14sendMouseEventEP10QQuickItemP11QMouseEvent@Qt_5_PRIVATE_API 5.6.0
 _ZN15QQuickFlickable14setInteractiveEb@Qt_5_PRIVATE_API 5.6.0
 _ZN15QQuickFlickable14setRightMarginEd@Qt_5_PRIVATE_API 5.6.0
 _ZN15QQuickFlickable15contentXChangedEv@Qt_5_PRIVATE_API 5.6.0
 _ZN15QQuickFlickable15contentYChangedEv@Qt_5_PRIVATE_API 5.6.0
 _ZN15QQuickFlickable15draggingChangedEv@Qt_5_PRIVATE_API 5.6.0
 _ZN15QQuickFlickable15flickingChangedEv@Qt_5_PRIVATE_API 5.6.0
 _ZN15QQuickFlickable15geometryChangedERK6QRectFS2_@Qt_5_PRIVATE_API 5.6.0
 _ZN15QQuickFlickable15mousePressEventEP11QMouseEvent@Qt_5_PRIVATE_API 5.6.0
 _ZN15QQuickFlickable15movementStartedEv@Qt_5_PRIVATE_API 5.6.0
 _ZN15QQuickFlickable15setBottomMarginEd@Qt_5_PRIVATE_API 5.6.0
 _ZN15QQuickFlickable15setContentWidthEd@Qt_5_PRIVATE_API 5.6.0
 _ZN15QQuickFlickable15setPixelAlignedEb@Qt_5_PRIVATE_API 5.6.0
 _ZN15QQuickFlickable16mouseUngrabEventEv@Qt_5_PRIVATE_API 5.6.0
 _ZN15QQuickFlickable16movementStartingEv@Qt_5_PRIVATE_API 5.6.0
 _ZN15QQuickFlickable16setContentHeightEd@Qt_5_PRIVATE_API 5.6.0
 _ZN15QQuickFlickable16staticMetaObjectE@Qt_5_PRIVATE_API 5.6.0
 _ZN15QQuickFlickable16topMarginChangedEv@Qt_5_PRIVATE_API 5.6.0
 _ZN15QQuickFlickable17componentCompleteEv@Qt_5_PRIVATE_API 5.6.0
 _ZN15QQuickFlickable17flickableChildrenEv@Qt_5_PRIVATE_API 5.6.0
 _ZN15QQuickFlickable17leftMarginChangedEv@Qt_5_PRIVATE_API 5.6.0
 _ZN15QQuickFlickable17mouseReleaseEventEP11QMouseEvent@Qt_5_PRIVATE_API 5.6.0
 _ZN15QQuickFlickable17pressDelayChangedEv@Qt_5_PRIVATE_API 5.6.0
 _ZN15QQuickFlickable17setBoundsBehaviorE6QFlagsINS_18BoundsBehaviorFlagEE@Qt_5_PRIVATE_API 5.6.0
 _ZN15QQuickFlickable17timelineCompletedEv@Qt_5_PRIVATE_API 5.6.0
 _ZN15QQuickFlickable18interactiveChangedEv@Qt_5_PRIVATE_API 5.6.0
 _ZN15QQuickFlickable18rightMarginChangedEv@Qt_5_PRIVATE_API 5.6.0
 _ZN15QQuickFlickable19bottomMarginChangedEv@Qt_5_PRIVATE_API 5.6.0
 _ZN15QQuickFlickable19contentWidthChangedEv@Qt_5_PRIVATE_API 5.6.0
 _ZN15QQuickFlickable19isAtBoundaryChangedEv@Qt_5_PRIVATE_API 5.6.0
 _ZN15QQuickFlickable19pixelAlignedChangedEv@Qt_5_PRIVATE_API 5.6.0
 _ZN15QQuickFlickable20contentHeightChangedEv@Qt_5_PRIVATE_API 5.6.0
 _ZN15QQuickFlickable20setFlickDecelerationEd@Qt_5_PRIVATE_API 5.6.0
 _ZN15QQuickFlickable21boundsBehaviorChangedEv@Qt_5_PRIVATE_API 5.6.0
 _ZN15QQuickFlickable21childMouseEventFilterEP10QQuickItemP6QEvent@Qt_5_PRIVATE_API 5.6.0
 _ZN15QQuickFlickable21setFlickableDirectionENS_18FlickableDirectionE@Qt_5_PRIVATE_API 5.6.0
 _ZN15QQuickFlickable23movingVerticallyChangedEv@Qt_5_PRIVATE_API 5.6.0
 _ZN15QQuickFlickable23setMaximumFlickVelocityEd@Qt_5_PRIVATE_API 5.6.0
 _ZN15QQuickFlickable23verticalVelocityChangedEv@Qt_5_PRIVATE_API 5.6.0
 _ZN15QQuickFlickable24flickDecelerationChangedEv@Qt_5_PRIVATE_API 5.6.0
 _ZN15QQuickFlickable25draggingVerticallyChangedEv@Qt_5_PRIVATE_API 5.6.0
 _ZN15QQuickFlickable25flickableDirectionChangedEv@Qt_5_PRIVATE_API 5.6.0
 _ZN15QQuickFlickable25flickingVerticallyChangedEv@Qt_5_PRIVATE_API 5.6.0
 _ZN15QQuickFlickable25horizontalVelocityChangedEv@Qt_5_PRIVATE_API 5.6.0
 _ZN15QQuickFlickable25movingHorizontallyChangedEv@Qt_5_PRIVATE_API 5.6.0
 _ZN15QQuickFlickable27draggingHorizontallyChangedEv@Qt_5_PRIVATE_API 5.6.0
 _ZN15QQuickFlickable27flickingHorizontallyChangedEv@Qt_5_PRIVATE_API 5.6.0
 _ZN15QQuickFlickable27maximumFlickVelocityChangedEv@Qt_5_PRIVATE_API 5.6.0
 _ZN15QQuickFlickable5flickEdd@Qt_5_PRIVATE_API 5.6.0
 _ZN15QQuickFlickable9dragEndedEv@Qt_5_PRIVATE_API 5.6.0
 _ZN15QQuickFlickableC1EP10QQuickItem@Qt_5_PRIVATE_API 5.6.0
 _ZN15QQuickFlickableC1ER22QQuickFlickablePrivateP10QQuickItem@Qt_5_PRIVATE_API 5.6.0
 _ZN15QQuickFlickableC2EP10QQuickItem@Qt_5_PRIVATE_API 5.6.0
 _ZN15QQuickFlickableC2ER22QQuickFlickablePrivateP10QQuickItem@Qt_5_PRIVATE_API 5.6.0
 _ZN15QQuickFlickableD0Ev@Qt_5_PRIVATE_API 5.6.0
 _ZN15QQuickFlickableD1Ev@Qt_5_PRIVATE_API 5.6.0
 _ZN15QQuickFlickableD2Ev@Qt_5_PRIVATE_API 5.6.0
 _ZN15QQuickImageBase10itemChangeEN10QQuickItem10ItemChangeERKNS0_14ItemChangeDataE@Qt_5_PRIVATE_API 5.6.0
 _ZN15QQuickImageBase11qt_metacallEN11QMetaObject4CallEiPPv@Qt_5_PRIVATE_API 5.6.0
 _ZN15QQuickImageBase11qt_metacastEPKc@Qt_5_PRIVATE_API 5.6.0
 _ZN15QQuickImageBase12cacheChangedEv@Qt_5_PRIVATE_API 5.6.0
 _ZN15QQuickImageBase12pixmapChangeEv@Qt_5_PRIVATE_API 5.6.0
 _ZN15QQuickImageBase13mirrorChangedEv@Qt_5_PRIVATE_API 5.6.0
 _ZN15QQuickImageBase13setSourceSizeERK5QSize@Qt_5_PRIVATE_API 5.6.0
 _ZN15QQuickImageBase13sourceChangedERK4QUrl@Qt_5_PRIVATE_API 5.6.0
 _ZN15QQuickImageBase13statusChangedENS_6StatusE@Qt_5_PRIVATE_API 5.6.0
 _ZN15QQuickImageBase15progressChangedEd@Qt_5_PRIVATE_API 5.6.0
 _ZN15QQuickImageBase15requestFinishedEv@Qt_5_PRIVATE_API 5.6.0
 _ZN15QQuickImageBase15requestProgressExx@Qt_5_PRIVATE_API 5.6.0
 _ZN15QQuickImageBase15resetSourceSizeEv@Qt_5_PRIVATE_API 5.6.0
 _ZN15QQuickImageBase15setAsynchronousEb@Qt_5_PRIVATE_API 5.6.0
 _ZN15QQuickImageBase16setAutoTransformEb@Qt_5_PRIVATE_API 5.6.0
 _ZN15QQuickImageBase16staticMetaObjectE@Qt_5_PRIVATE_API 5.6.0
 _ZN15QQuickImageBase17componentCompleteEv@Qt_5_PRIVATE_API 5.6.0
 _ZN15QQuickImageBase17sourceSizeChangedEv@Qt_5_PRIVATE_API 5.6.0
 _ZN15QQuickImageBase18resolve2xLocalFileERK4QUrldPS0_Pd@Qt_5_PRIVATE_API 5.6.0
 _ZN15QQuickImageBase19asynchronousChangedEv@Qt_5_PRIVATE_API 5.6.0
 _ZN15QQuickImageBase19handleScreenChangedEP7QScreen@Qt_5_PRIVATE_API 5.6.0
 _ZN15QQuickImageBase4loadEv@Qt_5_PRIVATE_API 5.6.0
 _ZN15QQuickImageBase8setCacheEb@Qt_5_PRIVATE_API 5.6.0
 _ZN15QQuickImageBase9setMirrorEb@Qt_5_PRIVATE_API 5.6.0
 _ZN15QQuickImageBase9setSourceERK4QUrl@Qt_5_PRIVATE_API 5.6.0
 _ZN15QQuickImageBaseC1EP10QQuickItem@Qt_5_PRIVATE_API 5.6.0
 _ZN15QQuickImageBaseC1ER22QQuickImageBasePrivateP10QQuickItem@Qt_5_PRIVATE_API 5.6.0
 _ZN15QQuickImageBaseC2EP10QQuickItem@Qt_5_PRIVATE_API 5.6.0
 _ZN15QQuickImageBaseC2ER22QQuickImageBasePrivateP10QQuickItem@Qt_5_PRIVATE_API 5.6.0
 _ZN15QQuickImageBaseD0Ev@Qt_5_PRIVATE_API 5.6.0
 _ZN15QQuickImageBaseD1Ev@Qt_5_PRIVATE_API 5.6.0
 _ZN15QQuickImageBaseD2Ev@Qt_5_PRIVATE_API 5.6.0
 _ZN15QQuickMouseArea10itemChangeEN10QQuickItem10ItemChangeERKNS0_14ItemChangeDataE@Qt_5_PRIVATE_API 5.6.0
 _ZN15QQuickMouseArea10setEnabledEb@Qt_5_PRIVATE_API 5.6.0
 _ZN15QQuickMouseArea10setHoveredEb@Qt_5_PRIVATE_API 5.6.0
 _ZN15QQuickMouseArea10setPressedEN2Qt11MouseButtonEb@Qt_5_PRIVATE_API 5.6.0
 _ZN15QQuickMouseArea10timerEventEP11QTimerEvent@Qt_5_PRIVATE_API 5.6.0
 _ZN15QQuickMouseArea10wheelEventEP11QWheelEvent@Qt_5_PRIVATE_API 5.6.0
 _ZN15QQuickMouseArea11qt_metacallEN11QMetaObject4CallEiPPv@Qt_5_PRIVATE_API 5.6.0
 _ZN15QQuickMouseArea11qt_metacastEPKc@Qt_5_PRIVATE_API 5.6.0
 _ZN15QQuickMouseArea11ungrabMouseEv@Qt_5_PRIVATE_API 5.6.0
 _ZN15QQuickMouseArea12pressAndHoldEP16QQuickMouseEvent@Qt_5_PRIVATE_API 5.6.0
 _ZN15QQuickMouseArea13doubleClickedEP16QQuickMouseEvent@Qt_5_PRIVATE_API 5.6.0
 _ZN15QQuickMouseArea13mouseXChangedEP16QQuickMouseEvent@Qt_5_PRIVATE_API 5.6.0
 _ZN15QQuickMouseArea13mouseYChangedEP16QQuickMouseEvent@Qt_5_PRIVATE_API 5.6.0
 _ZN15QQuickMouseArea14enabledChangedEv@Qt_5_PRIVATE_API 5.6.0
 _ZN15QQuickMouseArea14hoverMoveEventEP11QHoverEvent@Qt_5_PRIVATE_API 5.6.0
 _ZN15QQuickMouseArea14hoveredChangedEv@Qt_5_PRIVATE_API 5.6.0
 _ZN15QQuickMouseArea14mouseMoveEventEP11QMouseEvent@Qt_5_PRIVATE_API 5.6.0
 _ZN15QQuickMouseArea14pressedChangedEv@Qt_5_PRIVATE_API 5.6.0
 _ZN15QQuickMouseArea14sendMouseEventEP11QMouseEvent@Qt_5_PRIVATE_API 5.6.0
 _ZN15QQuickMouseArea14setCursorShapeEN2Qt11CursorShapeE@Qt_5_PRIVATE_API 5.6.0
 _ZN15QQuickMouseArea15geometryChangedERK6QRectFS2_@Qt_5_PRIVATE_API 5.6.0
 _ZN15QQuickMouseArea15hoverEnterEventEP11QHoverEvent@Qt_5_PRIVATE_API 5.6.0
 _ZN15QQuickMouseArea15hoverLeaveEventEP11QHoverEvent@Qt_5_PRIVATE_API 5.6.0
 _ZN15QQuickMouseArea15mousePressEventEP11QMouseEvent@Qt_5_PRIVATE_API 5.6.0
 _ZN15QQuickMouseArea15positionChangedEP16QQuickMouseEvent@Qt_5_PRIVATE_API 5.6.0
 _ZN15QQuickMouseArea15setHoverEnabledEb@Qt_5_PRIVATE_API 5.6.0
 _ZN15QQuickMouseArea15updatePaintNodeEP7QSGNodePN10QQuickItem19UpdatePaintNodeDataE@Qt_5_PRIVATE_API 5.6.0
 _ZN15QQuickMouseArea16mouseUngrabEventEv@Qt_5_PRIVATE_API 5.6.0
 _ZN15QQuickMouseArea16staticMetaObjectE@Qt_5_PRIVATE_API 5.6.0
 _ZN15QQuickMouseArea17mouseReleaseEventEP11QMouseEvent@Qt_5_PRIVATE_API 5.6.0
 _ZN15QQuickMouseArea18cursorShapeChangedEv@Qt_5_PRIVATE_API 5.6.0
 _ZN15QQuickMouseArea18setAcceptedButtonsE6QFlagsIN2Qt11MouseButtonEE@Qt_5_PRIVATE_API 5.6.0
 _ZN15QQuickMouseArea18setPreventStealingEb@Qt_5_PRIVATE_API 5.6.0
 _ZN15QQuickMouseArea19hoverEnabledChangedEv@Qt_5_PRIVATE_API 5.6.0
 _ZN15QQuickMouseArea20containsPressChangedEv@Qt_5_PRIVATE_API 5.6.0
 _ZN15QQuickMouseArea21childMouseEventFilterEP10QQuickItemP6QEvent@Qt_5_PRIVATE_API 5.6.0
 _ZN15QQuickMouseArea21mouseDoubleClickEventEP11QMouseEvent@Qt_5_PRIVATE_API 5.6.0
 _ZN15QQuickMouseArea21pressedButtonsChangedEv@Qt_5_PRIVATE_API 5.6.0
 _ZN15QQuickMouseArea21windowDeactivateEventEv@Qt_5_PRIVATE_API 5.6.0
 _ZN15QQuickMouseArea22acceptedButtonsChangedEv@Qt_5_PRIVATE_API 5.6.0
 _ZN15QQuickMouseArea22preventStealingChangedEv@Qt_5_PRIVATE_API 5.6.0
 _ZN15QQuickMouseArea23setScrollGestureEnabledEb@Qt_5_PRIVATE_API 5.6.0
 _ZN15QQuickMouseArea26setPropagateComposedEventsEb@Qt_5_PRIVATE_API 5.6.0
 _ZN15QQuickMouseArea27scrollGestureEnabledChangedEv@Qt_5_PRIVATE_API 5.6.0
 _ZN15QQuickMouseArea30propagateComposedEventsChangedEv@Qt_5_PRIVATE_API 5.6.0
 _ZN15QQuickMouseArea4dragEv@Qt_5_PRIVATE_API 5.6.0
 _ZN15QQuickMouseArea5wheelEP16QQuickWheelEvent@Qt_5_PRIVATE_API 5.6.0
 _ZN15QQuickMouseArea6exitedEv@Qt_5_PRIVATE_API 5.6.0
 _ZN15QQuickMouseArea7clickedEP16QQuickMouseEvent@Qt_5_PRIVATE_API 5.6.0
 _ZN15QQuickMouseArea7enteredEv@Qt_5_PRIVATE_API 5.6.0
 _ZN15QQuickMouseArea7pressedEP16QQuickMouseEvent@Qt_5_PRIVATE_API 5.6.0
 _ZN15QQuickMouseArea8canceledEv@Qt_5_PRIVATE_API 5.6.0
 _ZN15QQuickMouseArea8releasedEP16QQuickMouseEvent@Qt_5_PRIVATE_API 5.6.0
 _ZN15QQuickMouseAreaC1EP10QQuickItem@Qt_5_PRIVATE_API 5.6.0
 _ZN15QQuickMouseAreaC2EP10QQuickItem@Qt_5_PRIVATE_API 5.6.0
 _ZN15QQuickMouseAreaD0Ev@Qt_5_PRIVATE_API 5.6.0
 _ZN15QQuickMouseAreaD1Ev@Qt_5_PRIVATE_API 5.6.0
 _ZN15QQuickMouseAreaD2Ev@Qt_5_PRIVATE_API 5.6.0
 _ZN15QQuickRectangle11qt_metacallEN11QMetaObject4CallEiPPv@Qt_5_PRIVATE_API 5.6.0
 _ZN15QQuickRectangle11qt_metacastEPKc@Qt_5_PRIVATE_API 5.6.0
 _ZN15QQuickRectangle11setGradientEP14QQuickGradient@Qt_5_PRIVATE_API 5.6.0
 _ZN15QQuickRectangle12colorChangedEv@Qt_5_PRIVATE_API 5.6.0
 _ZN15QQuickRectangle13radiusChangedEv@Qt_5_PRIVATE_API 5.6.0
 _ZN15QQuickRectangle13resetGradientEv@Qt_5_PRIVATE_API 5.6.0
 _ZN15QQuickRectangle15updatePaintNodeEP7QSGNodePN10QQuickItem19UpdatePaintNodeDataE@Qt_5_PRIVATE_API 5.6.0
 _ZN15QQuickRectangle16staticMetaObjectE@Qt_5_PRIVATE_API 5.6.0
 _ZN15QQuickRectangle6borderEv@Qt_5_PRIVATE_API 5.6.0
 _ZN15QQuickRectangle8doUpdateEv@Qt_5_PRIVATE_API 5.6.0
 _ZN15QQuickRectangle8setColorERK6QColor@Qt_5_PRIVATE_API 5.6.0
 _ZN15QQuickRectangle9setRadiusEd@Qt_5_PRIVATE_API 5.6.0
 _ZN15QQuickRectangleC1EP10QQuickItem@Qt_5_PRIVATE_API 5.6.0
 _ZN15QQuickRectangleC2EP10QQuickItem@Qt_5_PRIVATE_API 5.6.0
 _ZN15QQuickRectangleD0Ev@Qt_5_PRIVATE_API 5.6.0
 _ZN15QQuickRectangleD1Ev@Qt_5_PRIVATE_API 5.6.0
 _ZN15QQuickRectangleD2Ev@Qt_5_PRIVATE_API 5.6.0
 _ZN15QQuickTextInput10selectWordEv@Qt_5_PRIVATE_API 5.6.0
 _ZN15QQuickTextInput10setPaddingEd@Qt_5_PRIVATE_API 5.6.0
 _ZN15QQuickTextInput10timerEventEP11QTimerEvent@Qt_5_PRIVATE_API 5.6.0
 _ZN15QQuickTextInput11fontChangedERK5QFont@Qt_5_PRIVATE_API 5.6.0
 _ZN15QQuickTextInput11qt_metacallEN11QMetaObject4CallEiPPv@Qt_5_PRIVATE_API 5.6.0
 _ZN15QQuickTextInput11qt_metacastEPKc@Qt_5_PRIVATE_API 5.6.0
 _ZN15QQuickTextInput11resetHAlignEv@Qt_5_PRIVATE_API 5.6.0
 _ZN15QQuickTextInput11setEchoModeENS_8EchoModeE@Qt_5_PRIVATE_API 5.6.0
 _ZN15QQuickTextInput11setReadOnlyEb@Qt_5_PRIVATE_API 5.6.0
 _ZN15QQuickTextInput11setWrapModeENS_8WrapModeE@Qt_5_PRIVATE_API 5.6.0
 _ZN15QQuickTextInput11textChangedEv@Qt_5_PRIVATE_API 5.6.0
 _ZN15QQuickTextInput12colorChangedEv@Qt_5_PRIVATE_API 5.6.0
 _ZN15QQuickTextInput12createCursorEv@Qt_5_PRIVATE_API 5.6.0
 _ZN15QQuickTextInput12focusInEventEP11QFocusEvent@Qt_5_PRIVATE_API 5.6.0
 _ZN15QQuickTextInput12resetPaddingEv@Qt_5_PRIVATE_API 5.6.0
 _ZN15QQuickTextInput12setInputMaskERK7QString@Qt_5_PRIVATE_API 5.6.0
 _ZN15QQuickTextInput12setMaxLengthEi@Qt_5_PRIVATE_API 5.6.0
 _ZN15QQuickTextInput12setValidatorEP10QValidator@Qt_5_PRIVATE_API 5.6.0
 _ZN15QQuickTextInput12updatePolishEv@Qt_5_PRIVATE_API 5.6.0
 _ZN15QQuickTextInput13ensureVisibleEi@Qt_5_PRIVATE_API 5.6.0
 _ZN15QQuickTextInput13focusOutEventEP11QFocusEvent@Qt_5_PRIVATE_API 5.6.0
 _ZN15QQuickTextInput13isRightToLeftEii@Qt_5_PRIVATE_API 5.6.0
 _ZN15QQuickTextInput13keyPressEventEP9QKeyEvent@Qt_5_PRIVATE_API 5.6.0
 _ZN15QQuickTextInput13setAutoScrollEb@Qt_5_PRIVATE_API 5.6.0
 _ZN15QQuickTextInput13setRenderTypeENS_10RenderTypeE@Qt_5_PRIVATE_API 5.6.0
 _ZN15QQuickTextInput13setTopPaddingEd@Qt_5_PRIVATE_API 5.6.0
 _ZN15QQuickTextInput14canRedoChangedEv@Qt_5_PRIVATE_API 5.6.0
 _ZN15QQuickTextInput14canUndoChangedEv@Qt_5_PRIVATE_API 5.6.0
 _ZN15QQuickTextInput14mouseMoveEventEP11QMouseEvent@Qt_5_PRIVATE_API 5.6.0
 _ZN15QQuickTextInput14paddingChangedEv@Qt_5_PRIVATE_API 5.6.0
 _ZN15QQuickTextInput14setLeftPaddingEd@Qt_5_PRIVATE_API 5.6.0
 _ZN15QQuickTextInput15canPasteChangedEv@Qt_5_PRIVATE_API 5.6.0
 _ZN15QQuickTextInput15echoModeChangedENS_8EchoModeE@Qt_5_PRIVATE_API 5.6.0
 _ZN15QQuickTextInput15editingFinishedEv@Qt_5_PRIVATE_API 5.6.0
 _ZN15QQuickTextInput15geometryChangedERK6QRectFS2_@Qt_5_PRIVATE_API 5.6.0
 _ZN15QQuickTextInput15mousePressEventEP11QMouseEvent@Qt_5_PRIVATE_API 5.6.0
 _ZN15QQuickTextInput15readOnlyChangedEb@Qt_5_PRIVATE_API 5.6.0
 _ZN15QQuickTextInput15resetTopPaddingEv@Qt_5_PRIVATE_API 5.6.0
 _ZN15QQuickTextInput15setFocusOnPressEb@Qt_5_PRIVATE_API 5.6.0
 _ZN15QQuickTextInput15setRightPaddingEd@Qt_5_PRIVATE_API 5.6.0
 _ZN15QQuickTextInput15updatePaintNodeEP7QSGNodePN10QQuickItem19UpdatePaintNodeDataE@Qt_5_PRIVATE_API 5.6.0
 _ZN15QQuickTextInput15wrapModeChangedEv@Qt_5_PRIVATE_API 5.6.0
 _ZN15QQuickTextInput16inputMaskChangedERK7QString@Qt_5_PRIVATE_API 5.6.0
 _ZN15QQuickTextInput16inputMethodEventEP17QInputMethodEvent@Qt_5_PRIVATE_API 5.6.0
 _ZN15QQuickTextInput16mouseUngrabEventEv@Qt_5_PRIVATE_API 5.6.0
 _ZN15QQuickTextInput16resetLeftPaddingEv@Qt_5_PRIVATE_API 5.6.0
 _ZN15QQuickTextInput16selectionChangedEv@Qt_5_PRIVATE_API 5.6.0
 _ZN15QQuickTextInput16setBottomPaddingEd@Qt_5_PRIVATE_API 5.6.0
 _ZN15QQuickTextInput16setCursorVisibleEb@Qt_5_PRIVATE_API 5.6.0
 _ZN15QQuickTextInput16setSelectByMouseEb@Qt_5_PRIVATE_API 5.6.0
 _ZN15QQuickTextInput16staticMetaObjectE@Qt_5_PRIVATE_API 5.6.0
 _ZN15QQuickTextInput16validatorChangedEv@Qt_5_PRIVATE_API 5.6.0
 _ZN15QQuickTextInput17autoScrollChangedEb@Qt_5_PRIVATE_API 5.6.0
 _ZN15QQuickTextInput17componentCompleteEv@Qt_5_PRIVATE_API 5.6.0
 _ZN15QQuickTextInput17ensureActiveFocusEv@Qt_5_PRIVATE_API 5.6.0
 _ZN15QQuickTextInput17mouseReleaseEventEP11QMouseEvent@Qt_5_PRIVATE_API 5.6.0
 _ZN15QQuickTextInput17q_canPasteChangedEv@Qt_5_PRIVATE_API 5.6.0
 _ZN15QQuickTextInput17q_updateAlignmentEv@Qt_5_PRIVATE_API 5.6.0
 _ZN15QQuickTextInput17renderTypeChangedEv@Qt_5_PRIVATE_API 5.6.0
 _ZN15QQuickTextInput17resetRightPaddingEv@Qt_5_PRIVATE_API 5.6.0
 _ZN15QQuickTextInput17setCursorDelegateEP13QQmlComponent@Qt_5_PRIVATE_API 5.6.0
 _ZN15QQuickTextInput17setCursorPositionEi@Qt_5_PRIVATE_API 5.6.0
 _ZN15QQuickTextInput17setSelectionColorERK6QColor@Qt_5_PRIVATE_API 5.6.0
 _ZN15QQuickTextInput17topPaddingChangedEv@Qt_5_PRIVATE_API 5.6.0
 _ZN15QQuickTextInput17triggerPreprocessEv@Qt_5_PRIVATE_API 5.6.0
 _ZN15QQuickTextInput18contentSizeChangedEv@Qt_5_PRIVATE_API 5.6.0
 _ZN15QQuickTextInput18displayTextChangedEv@Qt_5_PRIVATE_API 5.6.0
 _ZN15QQuickTextInput18leftPaddingChangedEv@Qt_5_PRIVATE_API 5.6.0
 _ZN15QQuickTextInput18q_validatorChangedEv@Qt_5_PRIVATE_API 5.6.0
 _ZN15QQuickTextInput18resetBottomPaddingEv@Qt_5_PRIVATE_API 5.6.0
 _ZN15QQuickTextInput19moveCursorSelectionEi@Qt_5_PRIVATE_API 5.6.0
 _ZN15QQuickTextInput19moveCursorSelectionEiNS_13SelectionModeE@Qt_5_PRIVATE_API 5.6.0
 _ZN15QQuickTextInput19rightPaddingChangedEv@Qt_5_PRIVATE_API 5.6.0
 _ZN15QQuickTextInput19selectedTextChangedEv@Qt_5_PRIVATE_API 5.6.0
 _ZN15QQuickTextInput19selectionEndChangedEv@Qt_5_PRIVATE_API 5.6.0
 _ZN15QQuickTextInput19setInputMethodHintsE6QFlagsIN2Qt15InputMethodHintEE@Qt_5_PRIVATE_API 5.6.0
 _ZN15QQuickTextInput20bottomPaddingChangedEv@Qt_5_PRIVATE_API 5.6.0
 _ZN15QQuickTextInput20cursorVisibleChangedEb@Qt_5_PRIVATE_API 5.6.0
 _ZN15QQuickTextInput20invalidateFontCachesEv@Qt_5_PRIVATE_API 5.6.0
 _ZN15QQuickTextInput20maximumLengthChangedEi@Qt_5_PRIVATE_API 5.6.0
 _ZN15QQuickTextInput20selectByMouseChangedEb@Qt_5_PRIVATE_API 5.6.0
 _ZN15QQuickTextInput20setPasswordCharacterERK7QString@Qt_5_PRIVATE_API 5.6.0
 _ZN15QQuickTextInput20setPasswordMaskDelayEi@Qt_5_PRIVATE_API 5.6.0
 _ZN15QQuickTextInput20setSelectedTextColorERK6QColor@Qt_5_PRIVATE_API 5.6.0
 _ZN15QQuickTextInput21cursorDelegateChangedEv@Qt_5_PRIVATE_API 5.6.0
 _ZN15QQuickTextInput21cursorPositionChangedEv@Qt_5_PRIVATE_API 5.6.0
 _ZN15QQuickTextInput21mouseDoubleClickEventEP11QMouseEvent@Qt_5_PRIVATE_API 5.6.0
 _ZN15QQuickTextInput21selectionColorChangedEv@Qt_5_PRIVATE_API 5.6.0
 _ZN15QQuickTextInput21selectionStartChangedEv@Qt_5_PRIVATE_API 5.6.0
 _ZN15QQuickTextInput21setMouseSelectionModeENS_13SelectionModeE@Qt_5_PRIVATE_API 5.6.0
 _ZN15QQuickTextInput21updateCursorRectangleEb@Qt_5_PRIVATE_API 5.6.0
 _ZN15QQuickTextInput22acceptableInputChangedEv@Qt_5_PRIVATE_API 5.6.0
 _ZN15QQuickTextInput22cursorRectangleChangedEv@Qt_5_PRIVATE_API 5.6.0
 _ZN15QQuickTextInput22resetPasswordMaskDelayEv@Qt_5_PRIVATE_API 5.6.0
 _ZN15QQuickTextInput22setPersistentSelectionEb@Qt_5_PRIVATE_API 5.6.0
 _ZN15QQuickTextInput23inputMethodHintsChangedEv@Qt_5_PRIVATE_API 5.6.0
 _ZN15QQuickTextInput24passwordCharacterChangedEv@Qt_5_PRIVATE_API 5.6.0
 _ZN15QQuickTextInput24passwordMaskDelayChangedEi@Qt_5_PRIVATE_API 5.6.0
 _ZN15QQuickTextInput24selectedTextColorChangedEv@Qt_5_PRIVATE_API 5.6.0
 _ZN15QQuickTextInput24verticalAlignmentChangedENS_10VAlignmentE@Qt_5_PRIVATE_API 5.6.0
 _ZN15QQuickTextInput25activeFocusOnPressChangedEb@Qt_5_PRIVATE_API 5.6.0
 _ZN15QQuickTextInput25mouseSelectionModeChangedENS_13SelectionModeE@Qt_5_PRIVATE_API 5.6.0
 _ZN15QQuickTextInput26horizontalAlignmentChangedENS_10HAlignmentE@Qt_5_PRIVATE_API 5.6.0
 _ZN15QQuickTextInput26persistentSelectionChangedEv@Qt_5_PRIVATE_API 5.6.0
 _ZN15QQuickTextInput27inputMethodComposingChangedEv@Qt_5_PRIVATE_API 5.6.0
 _ZN15QQuickTextInput35effectiveHorizontalAlignmentChangedEv@Qt_5_PRIVATE_API 5.6.0
 _ZN15QQuickTextInput3cutEv@Qt_5_PRIVATE_API 5.6.0
 _ZN15QQuickTextInput4copyEv@Qt_5_PRIVATE_API 5.6.0
 _ZN15QQuickTextInput4redoEv@Qt_5_PRIVATE_API 5.6.0
 _ZN15QQuickTextInput4undoEv@Qt_5_PRIVATE_API 5.6.0
 _ZN15QQuickTextInput5eventEP6QEvent@Qt_5_PRIVATE_API 5.6.0
 _ZN15QQuickTextInput5pasteEv@Qt_5_PRIVATE_API 5.6.0
 _ZN15QQuickTextInput6insertEiRK7QString@Qt_5_PRIVATE_API 5.6.0
 _ZN15QQuickTextInput6removeEii@Qt_5_PRIVATE_API 5.6.0
 _ZN15QQuickTextInput6selectEii@Qt_5_PRIVATE_API 5.6.0
 _ZN15QQuickTextInput7setFontERK5QFont@Qt_5_PRIVATE_API 5.6.0
 _ZN15QQuickTextInput7setTextERK7QString@Qt_5_PRIVATE_API 5.6.0
 _ZN15QQuickTextInput8acceptedEv@Qt_5_PRIVATE_API 5.6.0
 _ZN15QQuickTextInput8deselectEv@Qt_5_PRIVATE_API 5.6.0
 _ZN15QQuickTextInput8setColorERK6QColor@Qt_5_PRIVATE_API 5.6.0
 _ZN15QQuickTextInput9selectAllEv@Qt_5_PRIVATE_API 5.6.0
 _ZN15QQuickTextInput9setHAlignENS_10HAlignmentE@Qt_5_PRIVATE_API 5.6.0
 _ZN15QQuickTextInput9setVAlignENS_10VAlignmentE@Qt_5_PRIVATE_API 5.6.0
 _ZN15QQuickTextInputC1EP10QQuickItem@Qt_5_PRIVATE_API 5.6.0
 _ZN15QQuickTextInputC1ER22QQuickTextInputPrivateP10QQuickItem@Qt_5_PRIVATE_API 5.6.0
 _ZN15QQuickTextInputC2EP10QQuickItem@Qt_5_PRIVATE_API 5.6.0
 _ZN15QQuickTextInputC2ER22QQuickTextInputPrivateP10QQuickItem@Qt_5_PRIVATE_API 5.6.0
 _ZN15QQuickTextInputD0Ev@Qt_5_PRIVATE_API 5.6.0
 _ZN15QQuickTextInputD1Ev@Qt_5_PRIVATE_API 5.6.0
 _ZN15QQuickTextInputD2Ev@Qt_5_PRIVATE_API 5.6.0
 _ZN15QQuickTransform11qt_metacallEN11QMetaObject4CallEiPPv@Qt_5 5.6.0
 _ZN15QQuickTransform11qt_metacastEPKc@Qt_5 5.6.0
 _ZN15QQuickTransform12appendToItemEP10QQuickItem@Qt_5 5.6.0
 _ZN15QQuickTransform13prependToItemEP10QQuickItem@Qt_5 5.6.0
 _ZN15QQuickTransform16staticMetaObjectE@Qt_5 5.6.0
 _ZN15QQuickTransform6updateEv@Qt_5 5.6.0
 _ZN15QQuickTransformC1EP7QObject@Qt_5 5.6.0
 _ZN15QQuickTransformC1ER22QQuickTransformPrivateP7QObject@Qt_5 5.6.0
 _ZN15QQuickTransformC2EP7QObject@Qt_5 5.6.0
 _ZN15QQuickTransformC2ER22QQuickTransformPrivateP7QObject@Qt_5 5.6.0
 _ZN15QQuickTransformD0Ev@Qt_5 5.6.0
 _ZN15QQuickTransformD1Ev@Qt_5 5.6.0
 _ZN15QQuickTransformD2Ev@Qt_5 5.6.0
 _ZN15QQuickXAnimator11qt_metacallEN11QMetaObject4CallEiPPv@Qt_5_PRIVATE_API 5.6.0
 _ZN15QQuickXAnimator11qt_metacastEPKc@Qt_5_PRIVATE_API 5.6.0
 _ZN15QQuickXAnimator16staticMetaObjectE@Qt_5_PRIVATE_API 5.6.0
 _ZN15QQuickXAnimatorC1EP7QObject@Qt_5_PRIVATE_API 5.6.0
 _ZN15QQuickXAnimatorC2EP7QObject@Qt_5_PRIVATE_API 5.6.0
 _ZN15QQuickXAnimatorD0Ev@Qt_5_PRIVATE_API 5.6.0
 _ZN15QQuickXAnimatorD1Ev@Qt_5_PRIVATE_API 5.6.0
 _ZN15QQuickXAnimatorD2Ev@Qt_5_PRIVATE_API 5.6.0
 _ZN15QQuickYAnimator11qt_metacallEN11QMetaObject4CallEiPPv@Qt_5_PRIVATE_API 5.6.0
 _ZN15QQuickYAnimator11qt_metacastEPKc@Qt_5_PRIVATE_API 5.6.0
 _ZN15QQuickYAnimator16staticMetaObjectE@Qt_5_PRIVATE_API 5.6.0
 _ZN15QQuickYAnimatorC1EP7QObject@Qt_5_PRIVATE_API 5.6.0
 _ZN15QQuickYAnimatorC2EP7QObject@Qt_5_PRIVATE_API 5.6.0
 _ZN15QQuickYAnimatorD0Ev@Qt_5_PRIVATE_API 5.6.0
 _ZN15QQuickYAnimatorD1Ev@Qt_5_PRIVATE_API 5.6.0
 _ZN15QQuickYAnimatorD2Ev@Qt_5_PRIVATE_API 5.6.0
 _ZN15QSGDefaultLayer11invalidatedEv@Qt_5_PRIVATE_API 5.6.0
 _ZN15QSGDefaultLayer11qt_metacallEN11QMetaObject4CallEiPPv@Qt_5_PRIVATE_API 5.6.0
 _ZN15QSGDefaultLayer11qt_metacastEPKc@Qt_5_PRIVATE_API 5.6.0
 _ZN15QSGDefaultLayer12setRecursiveEb@Qt_5_PRIVATE_API 5.6.0
 _ZN15QSGDefaultLayer13setHasMipmapsEb@Qt_5_PRIVATE_API 5.6.0
 _ZN15QSGDefaultLayer13updateTextureEv@Qt_5_PRIVATE_API 5.6.0
 _ZN15QSGDefaultLayer14scheduleUpdateEv@Qt_5_PRIVATE_API 5.6.0
 _ZN15QSGDefaultLayer16markDirtyTextureEv@Qt_5_PRIVATE_API 5.6.0
 _ZN15QSGDefaultLayer16staticMetaObjectE@Qt_5_PRIVATE_API 5.6.0
 _ZN15QSGDefaultLayer17setMirrorVerticalEb@Qt_5_PRIVATE_API 5.6.0
 _ZN15QSGDefaultLayer19setMirrorHorizontalEb@Qt_5_PRIVATE_API 5.6.0
 _ZN15QSGDefaultLayer4bindEv@Qt_5_PRIVATE_API 5.6.0
 _ZN15QSGDefaultLayer4grabEv@Qt_5_PRIVATE_API 5.6.0
 _ZN15QSGDefaultLayer7setItemEP7QSGNode@Qt_5_PRIVATE_API 5.6.0
 _ZN15QSGDefaultLayer7setLiveEb@Qt_5_PRIVATE_API 5.6.0
 _ZN15QSGDefaultLayer7setRectERK6QRectF@Qt_5_PRIVATE_API 5.6.0
 _ZN15QSGDefaultLayer7setSizeERK5QSize@Qt_5_PRIVATE_API 5.6.0
 _ZN15QSGDefaultLayer9setFormatEj@Qt_5_PRIVATE_API 5.6.0
 _ZN15QSGDefaultLayerC1EP16QSGRenderContext@Qt_5_PRIVATE_API 5.6.0
 _ZN15QSGDefaultLayerC2EP16QSGRenderContext@Qt_5_PRIVATE_API 5.6.0
 _ZN15QSGDefaultLayerD0Ev@Qt_5_PRIVATE_API 5.6.0
 _ZN15QSGDefaultLayerD1Ev@Qt_5_PRIVATE_API 5.6.0
 _ZN15QSGDefaultLayerD2Ev@Qt_5_PRIVATE_API 5.6.0
 _ZN15QSGGeometryNode11setMaterialEP11QSGMaterial@Qt_5 5.6.0
 _ZN15QSGGeometryNode14setRenderOrderEi@Qt_5 5.6.0
 _ZN15QSGGeometryNode17setOpaqueMaterialEP11QSGMaterial@Qt_5 5.6.0
 _ZN15QSGGeometryNode19setInheritedOpacityEd@Qt_5 5.6.0
 _ZN15QSGGeometryNodeC1ER22QSGGeometryNodePrivate@Qt_5 5.6.0
 _ZN15QSGGeometryNodeC1Ev@Qt_5 5.6.0
 _ZN15QSGGeometryNodeC2ER22QSGGeometryNodePrivate@Qt_5 5.6.0
 _ZN15QSGGeometryNodeC2Ev@Qt_5 5.6.0
 _ZN15QSGGeometryNodeD0Ev@Qt_5 5.6.0
 _ZN15QSGGeometryNodeD1Ev@Qt_5 5.6.0
 _ZN15QSGGeometryNodeD2Ev@Qt_5 5.6.0
 _ZN15QSGPlainTexture11qt_metacallEN11QMetaObject4CallEiPPv@Qt_5_PRIVATE_API 5.6.0
 _ZN15QSGPlainTexture11qt_metacastEPKc@Qt_5_PRIVATE_API 5.6.0
 _ZN15QSGPlainTexture12setTextureIdEi@Qt_5_PRIVATE_API 5.6.0
 _ZN15QSGPlainTexture16staticMetaObjectE@Qt_5_PRIVATE_API 5.6.0
 _ZN15QSGPlainTexture4bindEv@Qt_5_PRIVATE_API 5.6.0
 _ZN15QSGPlainTexture8setImageERK6QImage@Qt_5_PRIVATE_API 5.6.0
 _ZN15QSGPlainTextureC1Ev@Qt_5_PRIVATE_API 5.6.0
 _ZN15QSGPlainTextureC2Ev@Qt_5_PRIVATE_API 5.6.0
 _ZN15QSGPlainTextureD0Ev@Qt_5_PRIVATE_API 5.6.0
 _ZN15QSGPlainTextureD1Ev@Qt_5_PRIVATE_API 5.6.0
 _ZN15QSGPlainTextureD2Ev@Qt_5_PRIVATE_API 5.6.0
 _ZN16QQuickCloseEvent11qt_metacallEN11QMetaObject4CallEiPPv@Qt_5_PRIVATE_API 5.6.0
 _ZN16QQuickCloseEvent11qt_metacastEPKc@Qt_5_PRIVATE_API 5.6.0
 _ZN16QQuickCloseEvent16staticMetaObjectE@Qt_5_PRIVATE_API 5.6.0
 _ZN16QQuickCloseEventD0Ev@Qt_5_PRIVATE_API 5.6.0
 _ZN16QQuickCloseEventD1Ev@Qt_5_PRIVATE_API 5.6.0
 _ZN16QQuickCloseEventD2Ev@Qt_5_PRIVATE_API 5.6.0
 _ZN16QQuickMouseEvent11qt_metacallEN11QMetaObject4CallEiPPv@Qt_5_PRIVATE_API 5.6.0
 _ZN16QQuickMouseEvent11qt_metacastEPKc@Qt_5_PRIVATE_API 5.6.0
 _ZN16QQuickMouseEvent16staticMetaObjectE@Qt_5_PRIVATE_API 5.6.0
 _ZN16QQuickMouseEventD0Ev@Qt_5_PRIVATE_API 5.6.0
 _ZN16QQuickMouseEventD1Ev@Qt_5_PRIVATE_API 5.6.0
 _ZN16QQuickMouseEventD2Ev@Qt_5_PRIVATE_API 5.6.0
 _ZN16QQuickStateGroup10classBeginEv@Qt_5_PRIVATE_API 5.6.0
 _ZN16QQuickStateGroup11qt_metacallEN11QMetaObject4CallEiPPv@Qt_5_PRIVATE_API 5.6.0
 _ZN16QQuickStateGroup11qt_metacastEPKc@Qt_5_PRIVATE_API 5.6.0
 _ZN16QQuickStateGroup11removeStateEP11QQuickState@Qt_5_PRIVATE_API 5.6.0
 _ZN16QQuickStateGroup12stateChangedERK7QString@Qt_5_PRIVATE_API 5.6.0
 _ZN16QQuickStateGroup14statesPropertyEv@Qt_5_PRIVATE_API 5.6.0
 _ZN16QQuickStateGroup15updateAutoStateEv@Qt_5_PRIVATE_API 5.6.0
 _ZN16QQuickStateGroup16staticMetaObjectE@Qt_5_PRIVATE_API 5.6.0
 _ZN16QQuickStateGroup17componentCompleteEv@Qt_5_PRIVATE_API 5.6.0
 _ZN16QQuickStateGroup19transitionsPropertyEv@Qt_5_PRIVATE_API 5.6.0
 _ZN16QQuickStateGroup20stateAboutToCompleteEv@Qt_5_PRIVATE_API 5.6.0
 _ZN16QQuickStateGroup8setStateERK7QString@Qt_5_PRIVATE_API 5.6.0
 _ZN16QQuickStateGroupC1EP7QObject@Qt_5_PRIVATE_API 5.6.0
 _ZN16QQuickStateGroupC2EP7QObject@Qt_5_PRIVATE_API 5.6.0
 _ZN16QQuickStateGroupD0Ev@Qt_5_PRIVATE_API 5.6.0
 _ZN16QQuickStateGroupD1Ev@Qt_5_PRIVATE_API 5.6.0
 _ZN16QQuickStateGroupD2Ev@Qt_5_PRIVATE_API 5.6.0
 _ZN16QQuickTransition10animationsEv@Qt_5_PRIVATE_API 5.6.0
 _ZN16QQuickTransition10setEnabledEb@Qt_5_PRIVATE_API 5.6.0
 _ZN16QQuickTransition10setToStateERK7QString@Qt_5_PRIVATE_API 5.6.0
 _ZN16QQuickTransition11fromChangedEv@Qt_5_PRIVATE_API 5.6.0
 _ZN16QQuickTransition11qt_metacallEN11QMetaObject4CallEiPPv@Qt_5_PRIVATE_API 5.6.0
 _ZN16QQuickTransition11qt_metacastEPKc@Qt_5_PRIVATE_API 5.6.0
 _ZN16QQuickTransition11setReversedEb@Qt_5_PRIVATE_API 5.6.0
 _ZN16QQuickTransition12setFromStateERK7QString@Qt_5_PRIVATE_API 5.6.0
 _ZN16QQuickTransition13setReversibleEb@Qt_5_PRIVATE_API 5.6.0
 _ZN16QQuickTransition14enabledChangedEv@Qt_5_PRIVATE_API 5.6.0
 _ZN16QQuickTransition14runningChangedEv@Qt_5_PRIVATE_API 5.6.0
 _ZN16QQuickTransition16staticMetaObjectE@Qt_5_PRIVATE_API 5.6.0
 _ZN16QQuickTransition17reversibleChangedEv@Qt_5_PRIVATE_API 5.6.0
 _ZN16QQuickTransition7prepareER5QListI17QQuickStateActionERS0_I12QQmlPropertyEP23QQuickTransitionManagerP7QObject@Qt_5_PRIVATE_API 5.6.0
 _ZN16QQuickTransition9toChangedEv@Qt_5_PRIVATE_API 5.6.0
 _ZN16QQuickTransitionC1EP7QObject@Qt_5_PRIVATE_API 5.6.0
 _ZN16QQuickTransitionC2EP7QObject@Qt_5_PRIVATE_API 5.6.0
 _ZN16QQuickTransitionD0Ev@Qt_5_PRIVATE_API 5.6.0
 _ZN16QQuickTransitionD1Ev@Qt_5_PRIVATE_API 5.6.0
 _ZN16QQuickTransitionD2Ev@Qt_5_PRIVATE_API 5.6.0
 _ZN16QSGAreaAllocator10deallocateERK5QRect@Qt_5_PRIVATE_API 5.6.0
 _ZN16QSGAreaAllocator14allocateInNodeERK5QSizeR6QPointRK5QRectP20QSGAreaAllocatorNode@Qt_5_PRIVATE_API 5.6.0
 _ZN16QSGAreaAllocator16deallocateInNodeERK6QPointP20QSGAreaAllocatorNode@Qt_5_PRIVATE_API 5.6.0
 _ZN16QSGAreaAllocator22mergeNodeWithNeighborsEP20QSGAreaAllocatorNode@Qt_5_PRIVATE_API 5.6.0
 _ZN16QSGAreaAllocator8allocateERK5QSize@Qt_5_PRIVATE_API 5.6.0
 _ZN16QSGAreaAllocatorC1ERK5QSize@Qt_5_PRIVATE_API 5.6.0
 _ZN16QSGAreaAllocatorC2ERK5QSize@Qt_5_PRIVATE_API 5.6.0
 _ZN16QSGAreaAllocatorD1Ev@Qt_5_PRIVATE_API 5.6.0
 _ZN16QSGAreaAllocatorD2Ev@Qt_5_PRIVATE_API 5.6.0
 _ZN16QSGBatchRenderer8Renderer10updateClipEPK11QSGClipNodePKNS_5BatchE@Qt_5_PRIVATE_API 5.6.0
 _ZN16QSGBatchRenderer8Renderer11nodeChangedEP7QSGNode6QFlagsINS1_13DirtyStateBitEE@Qt_5_PRIVATE_API 5.6.0
 _ZN16QSGBatchRenderer8Renderer11tagSubRootsEPNS_4NodeE@Qt_5_PRIVATE_API 5.6.0
 _ZN16QSGBatchRenderer8Renderer11uploadBatchEPNS_5BatchE@Qt_5_PRIVATE_API 5.6.0
 _ZN16QSGBatchRenderer8Renderer12checkOverlapEiiRKNS_4RectE@Qt_5_PRIVATE_API 5.6.0
 _ZN16QSGBatchRenderer8Renderer12nodeWasAddedEP7QSGNodePNS_4NodeE@Qt_5_PRIVATE_API 5.6.0
 _ZN16QSGBatchRenderer8Renderer13batchRootInfoEPNS_4NodeE@Qt_5_PRIVATE_API 5.6.0
 _ZN16QSGBatchRenderer8Renderer13renderBatchesEv@Qt_5_PRIVATE_API 5.6.0
 _ZN16QSGBatchRenderer8Renderer14cleanupBatchesEP11QDataBufferIPNS_5BatchEE@Qt_5_PRIVATE_API 5.6.0
 _ZN16QSGBatchRenderer8Renderer14nodeWasRemovedEPNS_4NodeE@Qt_5_PRIVATE_API 5.6.0
 _ZN16QSGBatchRenderer8Renderer14visualizeBatchEPNS_5BatchE@Qt_5_PRIVATE_API 5.6.0
 _ZN16QSGBatchRenderer8Renderer15changeBatchRootEPNS_4NodeES2_@Qt_5_PRIVATE_API 5.6.0
 _ZN16QSGBatchRenderer8Renderer15setActiveShaderEP17QSGMaterialShaderPNS_13ShaderManager6ShaderE@Qt_5_PRIVATE_API 5.6.0
 _ZN16QSGBatchRenderer8Renderer15updateLineWidthEP11QSGGeometry@Qt_5_PRIVATE_API 5.6.0
 _ZN16QSGBatchRenderer8Renderer16buildRenderListsEP7QSGNode@Qt_5_PRIVATE_API 5.6.0
 _ZN16QSGBatchRenderer8Renderer16renderRenderNodeEPNS_5BatchE@Qt_5_PRIVATE_API 5.6.0
 _ZN16QSGBatchRenderer8Renderer16visualizeChangesEPNS_4NodeE@Qt_5_PRIVATE_API 5.6.0
 _ZN16QSGBatchRenderer8Renderer17registerBatchRootEPNS_4NodeES2_@Qt_5_PRIVATE_API 5.6.0
 _ZN16QSGBatchRenderer8Renderer17renderMergedBatchEPKNS_5BatchE@Qt_5_PRIVATE_API 5.6.0
 _ZN16QSGBatchRenderer8Renderer17updateStencilClipEPK11QSGClipNode@Qt_5_PRIVATE_API 5.6.0
 _ZN16QSGBatchRenderer8Renderer17visualizeClippingEP7QSGNode@Qt_5_PRIVATE_API 5.6.0
 _ZN16QSGBatchRenderer8Renderer17visualizeOverdrawEv@Qt_5_PRIVATE_API 5.6.0
 _ZN16QSGBatchRenderer8Renderer18nodeWasTransformedEPNS_4NodeEPi@Qt_5_PRIVATE_API 5.6.0
 _ZN16QSGBatchRenderer8Renderer19prepareAlphaBatchesEv@Qt_5_PRIVATE_API 5.6.0
 _ZN16QSGBatchRenderer8Renderer19renderUnmergedBatchEPKNS_5BatchE@Qt_5_PRIVATE_API 5.6.0
 _ZN16QSGBatchRenderer8Renderer19setCustomRenderModeERK10QByteArray@Qt_5_PRIVATE_API 5.6.0
 _ZN16QSGBatchRenderer8Renderer19uploadMergedElementEPNS_7ElementEiPPcS4_S4_PtPi@Qt_5_PRIVATE_API 5.6.0
 _ZN16QSGBatchRenderer8Renderer20nodeChangedBatchRootEPNS_4NodeES2_@Qt_5_PRIVATE_API 5.6.0
 _ZN16QSGBatchRenderer8Renderer20prepareOpaqueBatchesEv@Qt_5_PRIVATE_API 5.6.0
 _ZN16QSGBatchRenderer8Renderer21deleteRemovedElementsEv@Qt_5_PRIVATE_API 5.6.0
 _ZN16QSGBatchRenderer8Renderer21turnNodeIntoBatchRootEPNS_4NodeE@Qt_5_PRIVATE_API 5.6.0
 _ZN16QSGBatchRenderer8Renderer21visualizeDrawGeometryEPK11QSGGeometry@Qt_5_PRIVATE_API 5.6.0
 _ZN16QSGBatchRenderer8Renderer23visualizeChangesPrepareEPNS_4NodeEj@Qt_5_PRIVATE_API 5.6.0
 _ZN16QSGBatchRenderer8Renderer24visualizeOverdraw_helperEPNS_4NodeE@Qt_5_PRIVATE_API 5.6.0
 _ZN16QSGBatchRenderer8Renderer25invalidateAndRecycleBatchEPNS_5BatchE@Qt_5_PRIVATE_API 5.6.0
 _ZN16QSGBatchRenderer8Renderer25removeBatchRootFromParentEPNS_4NodeE@Qt_5_PRIVATE_API 5.6.0
 _ZN16QSGBatchRenderer8Renderer27buildRenderListsFromScratchEv@Qt_5_PRIVATE_API 5.6.0
 _ZN16QSGBatchRenderer8Renderer30buildRenderListsForTaggedRootsEv@Qt_5_PRIVATE_API 5.6.0
 _ZN16QSGBatchRenderer8Renderer3mapEPNS_6BufferEib@Qt_5_PRIVATE_API 5.6.0
 _ZN16QSGBatchRenderer8Renderer41invalidateBatchAndOverlappingRenderOrdersEPNS_5BatchE@Qt_5_PRIVATE_API 5.6.0
 _ZN16QSGBatchRenderer8Renderer5unmapEPNS_6BufferEb@Qt_5_PRIVATE_API 5.6.0
 _ZN16QSGBatchRenderer8Renderer6renderEv@Qt_5_PRIVATE_API 5.6.0
 _ZN16QSGBatchRenderer8Renderer9visualizeEv@Qt_5_PRIVATE_API 5.6.0
 _ZN16QSGBatchRenderer8RendererC1EP16QSGRenderContext@Qt_5_PRIVATE_API 5.6.0
 _ZN16QSGBatchRenderer8RendererC2EP16QSGRenderContext@Qt_5_PRIVATE_API 5.6.0
 _ZN16QSGBatchRenderer8RendererD0Ev@Qt_5_PRIVATE_API 5.6.0
 _ZN16QSGBatchRenderer8RendererD1Ev@Qt_5_PRIVATE_API 5.6.0
 _ZN16QSGBatchRenderer8RendererD2Ev@Qt_5_PRIVATE_API 5.6.0
 _ZN16QSGContextPlugin11qt_metacallEN11QMetaObject4CallEiPPv@Qt_5_PRIVATE_API 5.6.0
 _ZN16QSGContextPlugin11qt_metacastEPKc@Qt_5_PRIVATE_API 5.6.0
 _ZN16QSGContextPlugin16staticMetaObjectE@Qt_5_PRIVATE_API 5.6.0
 _ZN16QSGContextPluginC1EP7QObject@Qt_5_PRIVATE_API 5.6.0
 _ZN16QSGContextPluginC2EP7QObject@Qt_5_PRIVATE_API 5.6.0
 _ZN16QSGContextPluginD0Ev@Qt_5_PRIVATE_API 5.6.0
 _ZN16QSGContextPluginD1Ev@Qt_5_PRIVATE_API 5.6.0
 _ZN16QSGContextPluginD2Ev@Qt_5_PRIVATE_API 5.6.0
 _ZN16QSGNodeVisitorEx13visitChildrenEP7QSGNode@Qt_5_PRIVATE_API 5.6.0
 _ZN16QSGRenderContext10initializeEP14QOpenGLContext@Qt_5_PRIVATE_API 5.6.0
 _ZN16QSGRenderContext10initializeEP17QSGMaterialShader@Qt_5_PRIVATE_API 5.6.0
 _ZN16QSGRenderContext10invalidateEv@Qt_5_PRIVATE_API 5.6.0
 _ZN16QSGRenderContext11initializedEv@Qt_5_PRIVATE_API 5.6.0
 _ZN16QSGRenderContext11invalidatedEv@Qt_5_PRIVATE_API 5.6.0
 _ZN16QSGRenderContext11qt_metacallEN11QMetaObject4CallEiPPv@Qt_5_PRIVATE_API 5.6.0
 _ZN16QSGRenderContext11qt_metacastEPKc@Qt_5_PRIVATE_API 5.6.0
 _ZN16QSGRenderContext14createRendererEv@Qt_5_PRIVATE_API 5.6.0
 _ZN16QSGRenderContext15renderNextFrameEP11QSGRendererj@Qt_5_PRIVATE_API 5.6.0
 _ZN16QSGRenderContext16staticMetaObjectE@Qt_5_PRIVATE_API 5.6.0
 _ZN16QSGRenderContext17textureForFactoryEP20QQuickTextureFactoryP12QQuickWindow@Qt_5_PRIVATE_API 5.6.0
 _ZN16QSGRenderContext20setAttachToGLContextEb@Qt_5_PRIVATE_API 5.6.0
 _ZN16QSGRenderContext23distanceFieldGlyphCacheERK8QRawFont@Qt_5_PRIVATE_API 5.6.0
 _ZN16QSGRenderContext23textureFactoryDestroyedEP7QObject@Qt_5_PRIVATE_API 5.6.0
 _ZN16QSGRenderContext24depthStencilBufferForFboEP24QOpenGLFramebufferObject@Qt_5_PRIVATE_API 5.6.0
 _ZN16QSGRenderContext25depthStencilBufferManagerEv@Qt_5_PRIVATE_API 5.6.0
 _ZN16QSGRenderContext28registerFontengineForCleanupEP11QFontEngine@Qt_5_PRIVATE_API 5.6.0
 _ZN16QSGRenderContext4fromEP14QOpenGLContext@Qt_5_PRIVATE_API 5.6.0
 _ZN16QSGRenderContext7compileEP17QSGMaterialShaderP11QSGMaterialPKcS5_@Qt_5_PRIVATE_API 5.6.0
 _ZN16QSGRenderContext7endSyncEv@Qt_5_PRIVATE_API 5.6.0
 _ZN16QSGRenderContextC1EP10QSGContext@Qt_5_PRIVATE_API 5.6.0
 _ZN16QSGRenderContextC2EP10QSGContext@Qt_5_PRIVATE_API 5.6.0
 _ZN16QSGRenderContextD0Ev@Qt_5_PRIVATE_API 5.6.0
 _ZN16QSGRenderContextD1Ev@Qt_5_PRIVATE_API 5.6.0
 _ZN16QSGRenderContextD2Ev@Qt_5_PRIVATE_API 5.6.0
 _ZN16QSGTransformNode17setCombinedMatrixERK10QMatrix4x4@Qt_5 5.6.0
 _ZN16QSGTransformNode9setMatrixERK10QMatrix4x4@Qt_5 5.6.0
 _ZN16QSGTransformNodeC1Ev@Qt_5 5.6.0
 _ZN16QSGTransformNodeC2Ev@Qt_5 5.6.0
 _ZN16QSGTransformNodeD0Ev@Qt_5 5.6.0
 _ZN16QSGTransformNodeD1Ev@Qt_5 5.6.0
 _ZN16QSGTransformNodeD2Ev@Qt_5 5.6.0
 _ZN17QQuickAnimatorJob10initializeEP24QQuickAnimatorController@Qt_5_PRIVATE_API 5.6.0
 _ZN17QQuickAnimatorJob16targetWasDeletedEv@Qt_5_PRIVATE_API 5.6.0
 _ZN17QQuickAnimatorJob9setTargetEP10QQuickItem@Qt_5_PRIVATE_API 5.6.0
 _ZN17QQuickAnimatorJobC1Ev@Qt_5_PRIVATE_API 5.6.0
 _ZN17QQuickAnimatorJobC2Ev@Qt_5_PRIVATE_API 5.6.0
 _ZN17QQuickItemPrivate10data_clearEP16QQmlListPropertyI7QObjectE@Qt_5_PRIVATE_API 5.6.0
 _ZN17QQuickItemPrivate10data_countEP16QQmlListPropertyI7QObjectE@Qt_5_PRIVATE_API 5.6.0
 _ZN17QQuickItemPrivate10itemChangeEN10QQuickItem10ItemChangeERKNS0_14ItemChangeDataE@Qt_5_PRIVATE_API 5.6.0
 _ZN17QQuickItemPrivate11children_atEP16QQmlListPropertyI10QQuickItemEi@Qt_5_PRIVATE_API 5.6.0
 _ZN17QQuickItemPrivate11data_appendEP16QQmlListPropertyI7QObjectEPS1_@Qt_5_PRIVATE_API 5.6.0
 _ZN17QQuickItemPrivate11derefWindowEv@Qt_5_PRIVATE_API 5.6.0
 _ZN17QQuickItemPrivate11markObjectsEPN3QV415ExecutionEngineE@Qt_5_PRIVATE_API 5.6.0
 _ZN17QQuickItemPrivate11removeChildEP10QQuickItem@Qt_5_PRIVATE_API 5.6.0
 _ZN17QQuickItemPrivate11transitionsEv@Qt_5_PRIVATE_API 5.6.0
 _ZN17QQuickItemPrivate12resources_atEP16QQmlListPropertyI7QObjectEi@Qt_5_PRIVATE_API 5.6.0
 _ZN17QQuickItemPrivate12transform_atEP16QQmlListPropertyI15QQuickTransformEi@Qt_5_PRIVATE_API 5.6.0
 _ZN17QQuickItemPrivate13focusNextPrevEP10QQuickItemb@Qt_5_PRIVATE_API 5.6.0
 _ZN17QQuickItemPrivate13setAccessibleEv@Qt_5_PRIVATE_API 5.6.0
 _ZN17QQuickItemPrivate14addToDirtyListEv@Qt_5_PRIVATE_API 5.6.0
 _ZN17QQuickItemPrivate14children_clearEP16QQmlListPropertyI10QQuickItemE@Qt_5_PRIVATE_API 5.6.0
 _ZN17QQuickItemPrivate14children_countEP16QQmlListPropertyI10QQuickItemE@Qt_5_PRIVATE_API 5.6.0
 _ZN17QQuickItemPrivate15children_appendEP16QQmlListPropertyI10QQuickItemEPS1_@Qt_5_PRIVATE_API 5.6.0
 _ZN17QQuickItemPrivate15deliverKeyEventEP9QKeyEvent@Qt_5_PRIVATE_API 5.6.0
 _ZN17QQuickItemPrivate15resources_clearEP16QQmlListPropertyI7QObjectE@Qt_5_PRIVATE_API 5.6.0
 _ZN17QQuickItemPrivate15resources_countEP16QQmlListPropertyI7QObjectE@Qt_5_PRIVATE_API 5.6.0
 _ZN17QQuickItemPrivate15setLayoutMirrorEb@Qt_5_PRIVATE_API 5.6.0
 _ZN17QQuickItemPrivate15transform_clearEP16QQmlListPropertyI15QQuickTransformE@Qt_5_PRIVATE_API 5.6.0
 _ZN17QQuickItemPrivate15transform_countEP16QQmlListPropertyI15QQuickTransformE@Qt_5_PRIVATE_API 5.6.0
 _ZN17QQuickItemPrivate15visibleChildrenEv@Qt_5_PRIVATE_API 5.6.0
 _ZN17QQuickItemPrivate16nextTabChildItemEPK10QQuickItemi@Qt_5_PRIVATE_API 5.6.0
 _ZN17QQuickItemPrivate16prevTabChildItemEPK10QQuickItemi@Qt_5_PRIVATE_API 5.6.0
 _ZN17QQuickItemPrivate16resources_appendEP16QQmlListPropertyI7QObjectEPS1_@Qt_5_PRIVATE_API 5.6.0
 _ZN17QQuickItemPrivate16transformChangedEv@Qt_5_PRIVATE_API 5.6.0
 _ZN17QQuickItemPrivate16transform_appendEP16QQmlListPropertyI15QQuickTransformEPS1_@Qt_5_PRIVATE_API 5.6.0
 _ZN17QQuickItemPrivate17canAcceptTabFocusEP10QQuickItem@Qt_5_PRIVATE_API 5.6.0
 _ZN17QQuickItemPrivate17refFromEffectItemEb@Qt_5_PRIVATE_API 5.6.0
 _ZN17QQuickItemPrivate18updateSubFocusItemEP10QQuickItemb@Qt_5_PRIVATE_API 5.6.0
 _ZN17QQuickItemPrivate18visibleChildren_atEP16QQmlListPropertyI10QQuickItemEi@Qt_5_PRIVATE_API 5.6.0
 _ZN17QQuickItemPrivate19createTransformNodeEv@Qt_5_PRIVATE_API 5.6.0
 _ZN17QQuickItemPrivate19derefFromEffectItemEb@Qt_5_PRIVATE_API 5.6.0
 _ZN17QQuickItemPrivate19removeFromDirtyListEv@Qt_5_PRIVATE_API 5.6.0
 _ZN17QQuickItemPrivate19resolveLayoutMirrorEv@Qt_5_PRIVATE_API 5.6.0
 _ZN17QQuickItemPrivate19setHasCursorInChildEb@Qt_5_PRIVATE_API 5.6.0
 _ZN17QQuickItemPrivate19siblingOrderChangedEv@Qt_5_PRIVATE_API 5.6.0
 _ZN17QQuickItemPrivate20implicitWidthChangedEv@Qt_5_PRIVATE_API 5.6.0
 _ZN17QQuickItemPrivate21addItemChangeListenerEP24QQuickItemChangeListener6QFlagsINS_10ChangeTypeEE@Qt_5_PRIVATE_API 5.6.0
 _ZN17QQuickItemPrivate21implicitHeightChangedEv@Qt_5_PRIVATE_API 5.6.0
 _ZN17QQuickItemPrivate21visibleChildren_countEP16QQmlListPropertyI10QQuickItemE@Qt_5_PRIVATE_API 5.6.0
 _ZN17QQuickItemPrivate23deliverInputMethodEventEP17QInputMethodEvent@Qt_5_PRIVATE_API 5.6.0
 _ZN17QQuickItemPrivate23setEffectiveEnableRecurEP10QQuickItemb@Qt_5_PRIVATE_API 5.6.0
 _ZN17QQuickItemPrivate23setImplicitAntialiasingEb@Qt_5_PRIVATE_API 5.6.0
 _ZN17QQuickItemPrivate23setImplicitLayoutMirrorEbb@Qt_5_PRIVATE_API 5.6.0
 _ZN17QQuickItemPrivate24_q_resourceObjectDeletedEP7QObject@Qt_5_PRIVATE_API 5.6.0
 _ZN17QQuickItemPrivate24removeItemChangeListenerEP24QQuickItemChangeListener6QFlagsINS_10ChangeTypeEE@Qt_5_PRIVATE_API 5.6.0
 _ZN17QQuickItemPrivate24setEffectiveVisibleRecurEb@Qt_5_PRIVATE_API 5.6.0
 _ZN17QQuickItemPrivate26registerAccessorPropertiesEv@Qt_5_PRIVATE_API 5.6.0
 _ZN17QQuickItemPrivate27nextPrevItemInTabFocusChainEP10QQuickItemb@Qt_5_PRIVATE_API 5.6.0
 _ZN17QQuickItemPrivate27setTransparentForPositionerEb@Qt_5_PRIVATE_API 5.6.0
 _ZN17QQuickItemPrivate33updateOrAddGeometryChangeListenerEP24QQuickItemChangeListener6QFlagsINS_18GeometryChangeTypeEE@Qt_5_PRIVATE_API 5.6.0
 _ZN17QQuickItemPrivate36updateOrRemoveGeometryChangeListenerEP24QQuickItemChangeListener6QFlagsINS_18GeometryChangeTypeEE@Qt_5_PRIVATE_API 5.6.0
 _ZN17QQuickItemPrivate4dataEv@Qt_5_PRIVATE_API 5.6.0
 _ZN17QQuickItemPrivate4initEP10QQuickItem@Qt_5_PRIVATE_API 5.6.0
 _ZN17QQuickItemPrivate5dirtyENS_9DirtyTypeE@Qt_5_PRIVATE_API 5.6.0
 _ZN17QQuickItemPrivate6statesEv@Qt_5_PRIVATE_API 5.6.0
 _ZN17QQuickItemPrivate7_statesEv@Qt_5_PRIVATE_API 5.6.0
 _ZN17QQuickItemPrivate7data_atEP16QQmlListPropertyI7QObjectEi@Qt_5_PRIVATE_API 5.6.0
 _ZN17QQuickItemPrivate8addChildEP10QQuickItem@Qt_5_PRIVATE_API 5.6.0
 _ZN17QQuickItemPrivate8childrenEv@Qt_5_PRIVATE_API 5.6.0
 _ZN17QQuickItemPrivate8setStateERK7QString@Qt_5_PRIVATE_API 5.6.0
 _ZN17QQuickItemPrivate9ExtraDataC1Ev@Qt_5_PRIVATE_API 5.6.0
 _ZN17QQuickItemPrivate9ExtraDataC2Ev@Qt_5_PRIVATE_API 5.6.0
 _ZN17QQuickItemPrivate9refWindowEP12QQuickWindow@Qt_5_PRIVATE_API 5.6.0
 _ZN17QQuickItemPrivate9resourcesEv@Qt_5_PRIVATE_API 5.6.0
 _ZN17QQuickItemPrivate9setCulledEb@Qt_5_PRIVATE_API 5.6.0
 _ZN17QQuickItemPrivateC1Ev@Qt_5_PRIVATE_API 5.6.0
 _ZN17QQuickItemPrivateC2Ev@Qt_5_PRIVATE_API 5.6.0
 _ZN17QQuickItemPrivateD0Ev@Qt_5_PRIVATE_API 5.6.0
 _ZN17QQuickItemPrivateD1Ev@Qt_5_PRIVATE_API 5.6.0
 _ZN17QQuickItemPrivateD2Ev@Qt_5_PRIVATE_API 5.6.0
 _ZN17QQuickPaintedItem11qt_metacallEN11QMetaObject4CallEiPPv@Qt_5 5.6.0
 _ZN17QQuickPaintedItem11qt_metacastEPKc@Qt_5 5.6.0
 _ZN17QQuickPaintedItem12setFillColorERK6QColor@Qt_5 5.6.0
 _ZN17QQuickPaintedItem14setTextureSizeERK5QSize@Qt_5 5.6.0
 _ZN17QQuickPaintedItem15setAntialiasingEb@Qt_5 5.6.0
 _ZN17QQuickPaintedItem15setContentsSizeERK5QSize@Qt_5 5.6.0
 _ZN17QQuickPaintedItem15setRenderTargetENS_12RenderTargetE@Qt_5 5.6.0
 _ZN17QQuickPaintedItem15updatePaintNodeEP7QSGNodePN10QQuickItem19UpdatePaintNodeDataE@Qt_5 5.6.0
 _ZN17QQuickPaintedItem16fillColorChangedEv@Qt_5 5.6.0
 _ZN17QQuickPaintedItem16releaseResourcesEv@Qt_5 5.6.0
 _ZN17QQuickPaintedItem16setContentsScaleEd@Qt_5 5.6.0
 _ZN17QQuickPaintedItem16staticMetaObjectE@Qt_5 5.6.0
 _ZN17QQuickPaintedItem17resetContentsSizeEv@Qt_5 5.6.0
 _ZN17QQuickPaintedItem17setOpaquePaintingEb@Qt_5 5.6.0
 _ZN17QQuickPaintedItem18setPerformanceHintENS_15PerformanceHintEb@Qt_5 5.6.0
 _ZN17QQuickPaintedItem18textureSizeChangedEv@Qt_5 5.6.0
 _ZN17QQuickPaintedItem19contentsSizeChangedEv@Qt_5 5.6.0
 _ZN17QQuickPaintedItem19renderTargetChangedEv@Qt_5 5.6.0
 _ZN17QQuickPaintedItem19setPerformanceHintsE6QFlagsINS_15PerformanceHintEE@Qt_5 5.6.0
 _ZN17QQuickPaintedItem20contentsScaleChangedEv@Qt_5 5.6.0
 _ZN17QQuickPaintedItem20invalidateSceneGraphEv@Qt_5 5.6.0
 _ZN17QQuickPaintedItem6updateERK5QRect@Qt_5 5.6.0
 _ZN17QQuickPaintedItem9setMipmapEb@Qt_5 5.6.0
 _ZN17QQuickPaintedItemC1EP10QQuickItem@Qt_5 5.6.0
 _ZN17QQuickPaintedItemC1ER24QQuickPaintedItemPrivateP10QQuickItem@Qt_5_PRIVATE_API 5.6.0
 _ZN17QQuickPaintedItemC2EP10QQuickItem@Qt_5 5.6.0
 _ZN17QQuickPaintedItemC2ER24QQuickPaintedItemPrivateP10QQuickItem@Qt_5_PRIVATE_API 5.6.0
 _ZN17QQuickPaintedItemD0Ev@Qt_5 5.6.0
 _ZN17QQuickPaintedItemD1Ev@Qt_5 5.6.0
 _ZN17QQuickPaintedItemD2Ev@Qt_5 5.6.0
 _ZN17QQuickTextPrivate10updateSizeEv@Qt_5_PRIVATE_API 5.6.0
 _ZN17QQuickTextPrivate12elideFormatsEiiiP7QVectorIN11QTextLayout11FormatRangeEE@Qt_5_PRIVATE_API 5.6.0
 _ZN17QQuickTextPrivate12mirrorChangeEv@Qt_5_PRIVATE_API 5.6.0
 _ZN17QQuickTextPrivate12updateLayoutEv@Qt_5_PRIVATE_API 5.6.0
 _ZN17QQuickTextPrivate13setTopPaddingEdb@Qt_5_PRIVATE_API 5.6.0
 _ZN17QQuickTextPrivate14setLeftPaddingEdb@Qt_5_PRIVATE_API 5.6.0
 _ZN17QQuickTextPrivate14updateBaselineEdd@Qt_5_PRIVATE_API 5.6.0
 _ZN17QQuickTextPrivate15setLineGeometryER9QTextLinedRd@Qt_5_PRIVATE_API 5.6.0
 _ZN17QQuickTextPrivate15setRightPaddingEdb@Qt_5_PRIVATE_API 5.6.0
 _ZN17QQuickTextPrivate15setupTextLayoutEPd@Qt_5_PRIVATE_API 5.6.0
 _ZN17QQuickTextPrivate16setBottomPaddingEdb@Qt_5_PRIVATE_API 5.6.0
 _ZN17QQuickTextPrivate17processHoverEventEP11QHoverEvent@Qt_5_PRIVATE_API 5.6.0
 _ZN17QQuickTextPrivate22isLineLaidOutConnectedEv@Qt_5_PRIVATE_API 5.6.0
 _ZN17QQuickTextPrivate22isLinkHoveredConnectedEv@Qt_5_PRIVATE_API 5.6.0
 _ZN17QQuickTextPrivate23setupCustomLineGeometryER9QTextLineRdi@Qt_5_PRIVATE_API 5.6.0
 _ZN17QQuickTextPrivate24isLinkActivatedConnectedEv@Qt_5_PRIVATE_API 5.6.0
 _ZN17QQuickTextPrivate28determineHorizontalAlignmentEv@Qt_5_PRIVATE_API 5.6.0
 _ZN17QQuickTextPrivate4initEv@Qt_5_PRIVATE_API 5.6.0
 _ZN17QQuickTextPrivate8anchorAtEPK11QTextLayoutRK7QPointF@Qt_5_PRIVATE_API 5.6.0
 _ZN17QQuickTextPrivate9ExtraDataC1Ev@Qt_5_PRIVATE_API 5.6.0
 _ZN17QQuickTextPrivate9ExtraDataC2Ev@Qt_5_PRIVATE_API 5.6.0
 _ZN17QQuickTextPrivate9elideCharE@Qt_5_PRIVATE_API 5.6.0
 _ZN17QQuickTextPrivate9ensureDocEv@Qt_5_PRIVATE_API 5.6.0
 _ZN17QQuickTextPrivate9setHAlignEN10QQuickText10HAlignmentEb@Qt_5_PRIVATE_API 5.6.0
 _ZN17QQuickTextPrivateC1Ev@Qt_5_PRIVATE_API 5.6.0
 _ZN17QQuickTextPrivateC2Ev@Qt_5_PRIVATE_API 5.6.0
 _ZN17QQuickTextPrivateD0Ev@Qt_5_PRIVATE_API 5.6.0
 _ZN17QQuickTextPrivateD1Ev@Qt_5_PRIVATE_API 5.6.0
 _ZN17QQuickTextPrivateD2Ev@Qt_5_PRIVATE_API 5.6.0
 _ZN17QSGDynamicTexture11qt_metacallEN11QMetaObject4CallEiPPv@Qt_5 5.6.0
 _ZN17QSGDynamicTexture11qt_metacastEPKc@Qt_5 5.6.0
 _ZN17QSGDynamicTexture16staticMetaObjectE@Qt_5 5.6.0
 _ZN17QSGMaterialShader10deactivateEv@Qt_5 5.6.0
 _ZN17QSGMaterialShader11updateStateERKNS_11RenderStateEP11QSGMaterialS4_@Qt_5 5.6.0
 _ZN17QSGMaterialShader19setShaderSourceFileE6QFlagsIN13QOpenGLShader13ShaderTypeBitEERK7QString@Qt_5 5.6.0
 _ZN17QSGMaterialShader20setShaderSourceFilesE6QFlagsIN13QOpenGLShader13ShaderTypeBitEERK11QStringList@Qt_5 5.6.0
 _ZN17QSGMaterialShader7compileEv@Qt_5 5.6.0
 _ZN17QSGMaterialShader8activateEv@Qt_5 5.6.0
 _ZN17QSGMaterialShaderC1ER24QSGMaterialShaderPrivate@Qt_5_PRIVATE_API 5.6.0
 _ZN17QSGMaterialShaderC1Ev@Qt_5 5.6.0
 _ZN17QSGMaterialShaderC2ER24QSGMaterialShaderPrivate@Qt_5_PRIVATE_API 5.6.0
 _ZN17QSGMaterialShaderC2Ev@Qt_5 5.6.0
 _ZN17QSGMaterialShaderD0Ev@Qt_5 5.6.0
 _ZN17QSGMaterialShaderD1Ev@Qt_5 5.6.0
 _ZN17QSGMaterialShaderD2Ev@Qt_5 5.6.0
 _ZN17QSGPainterTexture4bindEv@Qt_5_PRIVATE_API 5.6.0
 _ZN17QSGPainterTextureC1Ev@Qt_5_PRIVATE_API 5.6.0
 _ZN17QSGPainterTextureC2Ev@Qt_5_PRIVATE_API 5.6.0
 _ZN17QSGPainterTextureD0Ev@Qt_5_PRIVATE_API 5.6.0
 _ZN17QSGPainterTextureD1Ev@Qt_5_PRIVATE_API 5.6.0
 _ZN17QSGPainterTextureD2Ev@Qt_5_PRIVATE_API 5.6.0
 _ZN17QSGSimpleRectNode7setRectERK6QRectF@Qt_5 5.6.0
 _ZN17QSGSimpleRectNode8setColorERK6QColor@Qt_5 5.6.0
 _ZN17QSGSimpleRectNodeC1ERK6QRectFRK6QColor@Qt_5 5.6.0
 _ZN17QSGSimpleRectNodeC1Ev@Qt_5 5.6.0
 _ZN17QSGSimpleRectNodeC2ERK6QRectFRK6QColor@Qt_5 5.6.0
 _ZN17QSGSimpleRectNodeC2Ev@Qt_5 5.6.0
 _ZN17QSGSimpleRectNodeD0Ev@Qt_5 5.6.0
 _ZN17QSGSimpleRectNodeD1Ev@Qt_5 5.6.0
 _ZN17QSGSimpleRectNodeD2Ev@Qt_5 5.6.0
 _ZN18QQmlQtQuick2Module12defineModuleEv@Qt_5_PRIVATE_API 5.6.0
 _ZN18QQmlQtQuick2Module14undefineModuleEv@Qt_5_PRIVATE_API 5.6.0
 _ZN18QQuickGradientStop11qt_metacallEN11QMetaObject4CallEiPPv@Qt_5_PRIVATE_API 5.6.0
 _ZN18QQuickGradientStop11qt_metacastEPKc@Qt_5_PRIVATE_API 5.6.0
 _ZN18QQuickGradientStop11setPositionEd@Qt_5_PRIVATE_API 5.6.0
 _ZN18QQuickGradientStop14updateGradientEv@Qt_5_PRIVATE_API 5.6.0
 _ZN18QQuickGradientStop16staticMetaObjectE@Qt_5_PRIVATE_API 5.6.0
 _ZN18QQuickGradientStop8setColorERK6QColor@Qt_5_PRIVATE_API 5.6.0
 _ZN18QQuickGradientStopC1EP7QObject@Qt_5_PRIVATE_API 5.6.0
 _ZN18QQuickGradientStopC2EP7QObject@Qt_5_PRIVATE_API 5.6.0
 _ZN18QQuickGradientStopD0Ev@Qt_5_PRIVATE_API 5.6.0
 _ZN18QQuickGradientStopD1Ev@Qt_5_PRIVATE_API 5.6.0
 _ZN18QQuickGradientStopD2Ev@Qt_5_PRIVATE_API 5.6.0
 _ZN18QQuickShaderEffect10itemChangeEN10QQuickItem10ItemChangeERKNS0_14ItemChangeDataE@Qt_5_PRIVATE_API 5.6.0
 _ZN18QQuickShaderEffect10logChangedEv@Qt_5_PRIVATE_API 5.6.0
 _ZN18QQuickShaderEffect11meshChangedEv@Qt_5_PRIVATE_API 5.6.0
 _ZN18QQuickShaderEffect11qt_metacallEN11QMetaObject4CallEiPPv@Qt_5_PRIVATE_API 5.6.0
 _ZN18QQuickShaderEffect11qt_metacastEPKc@Qt_5_PRIVATE_API 5.6.0
 _ZN18QQuickShaderEffect11setBlendingEb@Qt_5_PRIVATE_API 5.6.0
 _ZN18QQuickShaderEffect11setCullModeENS_8CullModeE@Qt_5_PRIVATE_API 5.6.0
 _ZN18QQuickShaderEffect13statusChangedEv@Qt_5_PRIVATE_API 5.6.0
 _ZN18QQuickShaderEffect14updateGeometryEv@Qt_5_PRIVATE_API 5.6.0
 _ZN18QQuickShaderEffect15blendingChangedEv@Qt_5_PRIVATE_API 5.6.0
 _ZN18QQuickShaderEffect15cullModeChangedEv@Qt_5_PRIVATE_API 5.6.0
 _ZN18QQuickShaderEffect15geometryChangedERK6QRectFS2_@Qt_5_PRIVATE_API 5.6.0
 _ZN18QQuickShaderEffect15propertyChangedEi@Qt_5_PRIVATE_API 5.6.0
 _ZN18QQuickShaderEffect15setVertexShaderERK10QByteArray@Qt_5_PRIVATE_API 5.6.0
 _ZN18QQuickShaderEffect15sourceDestroyedEP7QObject@Qt_5_PRIVATE_API 5.6.0
 _ZN18QQuickShaderEffect15updatePaintNodeEP7QSGNodePN10QQuickItem19UpdatePaintNodeDataE@Qt_5_PRIVATE_API 5.6.0
 _ZN18QQuickShaderEffect16staticMetaObjectE@Qt_5_PRIVATE_API 5.6.0
 _ZN18QQuickShaderEffect17componentCompleteEv@Qt_5_PRIVATE_API 5.6.0
 _ZN18QQuickShaderEffect17setFragmentShaderERK10QByteArray@Qt_5_PRIVATE_API 5.6.0
 _ZN18QQuickShaderEffect18updateLogAndStatusERK7QStringi@Qt_5_PRIVATE_API 5.6.0
 _ZN18QQuickShaderEffect19vertexShaderChangedEv@Qt_5_PRIVATE_API 5.6.0
 _ZN18QQuickShaderEffect21fragmentShaderChangedEv@Qt_5_PRIVATE_API 5.6.0
 _ZN18QQuickShaderEffect24setSupportsAtlasTexturesEb@Qt_5_PRIVATE_API 5.6.0
 _ZN18QQuickShaderEffect28supportsAtlasTexturesChangedEv@Qt_5_PRIVATE_API 5.6.0
 _ZN18QQuickShaderEffect5eventEP6QEvent@Qt_5_PRIVATE_API 5.6.0
 _ZN18QQuickShaderEffect7setMeshERK8QVariant@Qt_5_PRIVATE_API 5.6.0
 _ZN18QQuickShaderEffect8parseLogEv@Qt_5_PRIVATE_API 5.6.0
 _ZN18QQuickShaderEffectC1EP10QQuickItem@Qt_5_PRIVATE_API 5.6.0
 _ZN18QQuickShaderEffectC2EP10QQuickItem@Qt_5_PRIVATE_API 5.6.0
 _ZN18QQuickShaderEffectD0Ev@Qt_5_PRIVATE_API 5.6.0
 _ZN18QQuickShaderEffectD1Ev@Qt_5_PRIVATE_API 5.6.0
 _ZN18QQuickShaderEffectD2Ev@Qt_5_PRIVATE_API 5.6.0
 _ZN18QQuickSpriteEngine11qt_metacallEN11QMetaObject4CallEiPPv@Qt_5_PRIVATE_API 5.6.0
 _ZN18QQuickSpriteEngine11qt_metacastEPKc@Qt_5_PRIVATE_API 5.6.0
 _ZN18QQuickSpriteEngine11spriteCountEv@Qt_5_PRIVATE_API 5.6.0
 _ZN18QQuickSpriteEngine11spriteStartEi@Qt_5_PRIVATE_API 5.6.0
 _ZN18QQuickSpriteEngine11spriteStateEi@Qt_5_PRIVATE_API 5.6.0
 _ZN18QQuickSpriteEngine11spriteWidthEi@Qt_5_PRIVATE_API 5.6.0
 _ZN18QQuickSpriteEngine12spriteFramesEi@Qt_5_PRIVATE_API 5.6.0
 _ZN18QQuickSpriteEngine12spriteHeightEi@Qt_5_PRIVATE_API 5.6.0
 _ZN18QQuickSpriteEngine14assembledImageEv@Qt_5_PRIVATE_API 5.6.0
 _ZN18QQuickSpriteEngine14spriteDurationEi@Qt_5_PRIVATE_API 5.6.0
 _ZN18QQuickSpriteEngine16staticMetaObjectE@Qt_5_PRIVATE_API 5.6.0
 _ZN18QQuickSpriteEngine20pseudospriteProgressEiiPi@Qt_5_PRIVATE_API 5.6.0
 _ZN18QQuickSpriteEngine20startAssemblingImageEv@Qt_5_PRIVATE_API 5.6.0
 _ZN18QQuickSpriteEngine6spriteEi@Qt_5_PRIVATE_API 5.6.0
 _ZN18QQuickSpriteEngine6statusEv@Qt_5_PRIVATE_API 5.6.0
 _ZN18QQuickSpriteEngine7advanceEi@Qt_5_PRIVATE_API 5.6.0
 _ZN18QQuickSpriteEngine7restartEi@Qt_5_PRIVATE_API 5.6.0
 _ZN18QQuickSpriteEngine7spriteXEi@Qt_5_PRIVATE_API 5.6.0
 _ZN18QQuickSpriteEngine7spriteYEi@Qt_5_PRIVATE_API 5.6.0
 _ZN18QQuickSpriteEngine9maxFramesEv@Qt_5_PRIVATE_API 5.6.0
 _ZN18QQuickSpriteEngineC1E5QListIP12QQuickSpriteEP7QObject@Qt_5_PRIVATE_API 5.6.0
 _ZN18QQuickSpriteEngineC1EP7QObject@Qt_5_PRIVATE_API 5.6.0
 _ZN18QQuickSpriteEngineC2E5QListIP12QQuickSpriteEP7QObject@Qt_5_PRIVATE_API 5.6.0
 _ZN18QQuickSpriteEngineC2EP7QObject@Qt_5_PRIVATE_API 5.6.0
 _ZN18QQuickSpriteEngineD0Ev@Qt_5_PRIVATE_API 5.6.0
 _ZN18QQuickSpriteEngineD1Ev@Qt_5_PRIVATE_API 5.6.0
 _ZN18QQuickSpriteEngineD2Ev@Qt_5_PRIVATE_API 5.6.0
 _ZN18QQuickTextDocument11qt_metacallEN11QMetaObject4CallEiPPv@Qt_5 5.6.0
 _ZN18QQuickTextDocument11qt_metacastEPKc@Qt_5 5.6.0
 _ZN18QQuickTextDocument16staticMetaObjectE@Qt_5 5.6.0
 _ZN18QQuickTextDocumentC1EP10QQuickItem@Qt_5 5.6.0
 _ZN18QQuickTextDocumentC2EP10QQuickItem@Qt_5 5.6.0
 _ZN18QQuickTextDocumentD0Ev@Qt_5 5.6.0
 _ZN18QQuickTextDocumentD1Ev@Qt_5 5.6.0
 _ZN18QQuickTextDocumentD2Ev@Qt_5 5.6.0
 _ZN18QQuickWindowModule12defineModuleEv@Qt_5_PRIVATE_API 5.6.0
 _ZN18QQuickXAnimatorJob17updateCurrentTimeEi@Qt_5_PRIVATE_API 5.6.0
 _ZN18QQuickXAnimatorJob9writeBackEv@Qt_5_PRIVATE_API 5.6.0
 _ZN18QQuickXAnimatorJobD0Ev@Qt_5_PRIVATE_API 5.6.0
 _ZN18QQuickXAnimatorJobD1Ev@Qt_5_PRIVATE_API 5.6.0
 _ZN18QQuickXAnimatorJobD2Ev@Qt_5_PRIVATE_API 5.6.0
 _ZN18QQuickYAnimatorJob17updateCurrentTimeEi@Qt_5_PRIVATE_API 5.6.0
 _ZN18QQuickYAnimatorJob9writeBackEv@Qt_5_PRIVATE_API 5.6.0
 _ZN18QQuickYAnimatorJobD0Ev@Qt_5_PRIVATE_API 5.6.0
 _ZN18QQuickYAnimatorJobD1Ev@Qt_5_PRIVATE_API 5.6.0
 _ZN18QQuickYAnimatorJobD2Ev@Qt_5_PRIVATE_API 5.6.0
 _ZN18QSGTextureMaterialD0Ev@Qt_5 5.6.0
 _ZN18QSGTextureMaterialD1Ev@Qt_5 5.6.0
 _ZN18QSGTextureMaterialD2Ev@Qt_5 5.6.0
 _ZN18QSGTextureProvider11qt_metacallEN11QMetaObject4CallEiPPv@Qt_5 5.6.0
 _ZN18QSGTextureProvider11qt_metacastEPKc@Qt_5 5.6.0
 _ZN18QSGTextureProvider14textureChangedEv@Qt_5 5.6.0
 _ZN18QSGTextureProvider16staticMetaObjectE@Qt_5 5.6.0
 _ZN19QNativeGestureEventD0Ev@Qt_5 5.6.0
 _ZN19QNativeGestureEventD1Ev@Qt_5 5.6.0
 _ZN19QNativeGestureEventD2Ev@Qt_5 5.6.0
 _ZN19QQuickImageProvider12requestImageERK7QStringP5QSizeRKS3_@Qt_5 5.6.0
 _ZN19QQuickImageProvider13requestPixmapERK7QStringP5QSizeRKS3_@Qt_5 5.6.0
 _ZN19QQuickImageProvider14requestTextureERK7QStringP5QSizeRKS3_@Qt_5 5.6.0
 _ZN19QQuickImageProviderC1EN21QQmlImageProviderBase9ImageTypeE6QFlagsINS0_4FlagEE@Qt_5 5.6.0
 _ZN19QQuickImageProviderC2EN21QQmlImageProviderBase9ImageTypeE6QFlagsINS0_4FlagEE@Qt_5 5.6.0
 _ZN19QQuickImageProviderD0Ev@Qt_5 5.6.0
 _ZN19QQuickImageProviderD1Ev@Qt_5 5.6.0
 _ZN19QQuickImageProviderD2Ev@Qt_5 5.6.0
 _ZN19QQuickImageResponse11qt_metacallEN11QMetaObject4CallEiPPv@Qt_5 5.6.0
 _ZN19QQuickImageResponse11qt_metacastEPKc@Qt_5 5.6.0
 _ZN19QQuickImageResponse16staticMetaObjectE@Qt_5 5.6.0
 _ZN19QQuickImageResponse6cancelEv@Qt_5 5.6.0
 _ZN19QQuickImageResponse8finishedEv@Qt_5 5.6.0
 _ZN19QQuickImageResponseC1Ev@Qt_5 5.6.0
 _ZN19QQuickImageResponseC2Ev@Qt_5 5.6.0
 _ZN19QQuickImageResponseD0Ev@Qt_5 5.6.0
 _ZN19QQuickImageResponseD1Ev@Qt_5 5.6.0
 _ZN19QQuickImageResponseD2Ev@Qt_5 5.6.0
 _ZN19QQuickRenderControl10initializeEP14QOpenGLContext@Qt_5 5.6.0
 _ZN19QQuickRenderControl10invalidateEv@Qt_5 5.6.0
 _ZN19QQuickRenderControl11polishItemsEv@Qt_5 5.6.0
 _ZN19QQuickRenderControl11qt_metacallEN11QMetaObject4CallEiPPv@Qt_5 5.6.0
 _ZN19QQuickRenderControl11qt_metacastEPKc@Qt_5 5.6.0
 _ZN19QQuickRenderControl12sceneChangedEv@Qt_5 5.6.0
 _ZN19QQuickRenderControl13prepareThreadEP7QThread@Qt_5 5.6.0
 _ZN19QQuickRenderControl15renderRequestedEv@Qt_5 5.6.0
 _ZN19QQuickRenderControl15renderWindowForEP12QQuickWindowP6QPoint@Qt_5 5.6.0
 _ZN19QQuickRenderControl16staticMetaObjectE@Qt_5 5.6.0
 _ZN19QQuickRenderControl4grabEv@Qt_5 5.6.0
 _ZN19QQuickRenderControl4syncEv@Qt_5 5.6.0
 _ZN19QQuickRenderControl6renderEv@Qt_5 5.6.0
 _ZN19QQuickRenderControlC1EP7QObject@Qt_5 5.6.0
 _ZN19QQuickRenderControlC2EP7QObject@Qt_5 5.6.0
 _ZN19QQuickRenderControlD0Ev@Qt_5 5.6.0
 _ZN19QQuickRenderControlD1Ev@Qt_5 5.6.0
 _ZN19QQuickRenderControlD2Ev@Qt_5 5.6.0
 _ZN19QQuickScaleAnimator11qt_metacallEN11QMetaObject4CallEiPPv@Qt_5_PRIVATE_API 5.6.0
 _ZN19QQuickScaleAnimator11qt_metacastEPKc@Qt_5_PRIVATE_API 5.6.0
 _ZN19QQuickScaleAnimator16staticMetaObjectE@Qt_5_PRIVATE_API 5.6.0
 _ZN19QQuickScaleAnimatorC1EP7QObject@Qt_5_PRIVATE_API 5.6.0
 _ZN19QQuickScaleAnimatorC2EP7QObject@Qt_5_PRIVATE_API 5.6.0
 _ZN19QQuickScaleAnimatorD0Ev@Qt_5_PRIVATE_API 5.6.0
 _ZN19QQuickScaleAnimatorD1Ev@Qt_5_PRIVATE_API 5.6.0
 _ZN19QQuickScaleAnimatorD2Ev@Qt_5_PRIVATE_API 5.6.0
 _ZN19QQuickWindowPrivate10clearHoverEv@Qt_5_PRIVATE_API 5.6.0
 _ZN19QQuickWindowPrivate10data_clearEP16QQmlListPropertyI7QObjectE@Qt_5_PRIVATE_API 5.6.0
 _ZN19QQuickWindowPrivate10data_countEP16QQmlListPropertyI7QObjectE@Qt_5_PRIVATE_API 5.6.0
 _ZN19QQuickWindowPrivate11data_appendEP16QQmlListPropertyI7QObjectEPS1_@Qt_5_PRIVATE_API 5.6.0
 _ZN19QQuickWindowPrivate11forcePolishEv@Qt_5_PRIVATE_API 5.6.0
 _ZN19QQuickWindowPrivate11polishItemsEv@Qt_5_PRIVATE_API 5.6.0
 _ZN19QQuickWindowPrivate12cleanupNodesEv@Qt_5_PRIVATE_API 5.6.0
 _ZN19QQuickWindowPrivate12updateCursorERK7QPointF@Qt_5_PRIVATE_API 5.6.0
 _ZN19QQuickWindowPrivate14findCursorItemEP10QQuickItemRK7QPointF@Qt_5_PRIVATE_API 5.6.0
 _ZN19QQuickWindowPrivate14sendHoverEventEN6QEvent4TypeEP10QQuickItemRK7QPointFS6_6QFlagsIN2Qt16KeyboardModifierEEb@Qt_5_PRIVATE_API 5.6.0
 _ZN19QQuickWindowPrivate14syncSceneGraphEv@Qt_5_PRIVATE_API 5.6.0
 _ZN19QQuickWindowPrivate15cloneMouseEventEP11QMouseEventP7QPointF@Qt_5_PRIVATE_API 5.6.0
 _ZN19QQuickWindowPrivate15deliverKeyEventEP9QKeyEvent@Qt_5_PRIVATE_API 5.6.0
 _ZN19QQuickWindowPrivate15runAndClearJobsEP5QListIP9QRunnableE@Qt_5_PRIVATE_API 5.6.0
 _ZN19QQuickWindowPrivate15setFocusInScopeEP10QQuickItemS1_N2Qt11FocusReasonE6QFlagsINS_11FocusOptionEE@Qt_5_PRIVATE_API 5.6.0
 _ZN19QQuickWindowPrivate15setMouseGrabberEP10QQuickItem@Qt_5_PRIVATE_API 5.6.0
 _ZN19QQuickWindowPrivate15updateDirtyNodeEP10QQuickItem@Qt_5_PRIVATE_API 5.6.0
 _ZN19QQuickWindowPrivate16clearFocusObjectEv@Qt_5_PRIVATE_API 5.6.0
 _ZN19QQuickWindowPrivate16deliverDragEventEP17QQuickDragGrabberP10QQuickItemP14QDragMoveEvent@Qt_5_PRIVATE_API 5.6.0
 _ZN19QQuickWindowPrivate16deliverDragEventEP17QQuickDragGrabberP6QEvent@Qt_5_PRIVATE_API 5.6.0
 _ZN19QQuickWindowPrivate16renderSceneGraphERK5QSize@Qt_5_PRIVATE_API 5.6.0
 _ZN19QQuickWindowPrivate16updateDirtyNodesEv@Qt_5_PRIVATE_API 5.6.0
 _ZN19QQuickWindowPrivate17clearFocusInScopeEP10QQuickItemS1_N2Qt11FocusReasonE6QFlagsINS_11FocusOptionEE@Qt_5_PRIVATE_API 5.6.0
 _ZN19QQuickWindowPrivate17deliverHoverEventEP10QQuickItemRK7QPointFS4_6QFlagsIN2Qt16KeyboardModifierEERb@Qt_5_PRIVATE_API 5.6.0
 _ZN19QQuickWindowPrivate17deliverMouseEventEP11QMouseEvent@Qt_5_PRIVATE_API 5.6.0
 _ZN19QQuickWindowPrivate17deliverTouchEventEP11QTouchEvent@Qt_5_PRIVATE_API 5.6.0
 _ZN19QQuickWindowPrivate17deliverWheelEventEP10QQuickItemP11QWheelEvent@Qt_5_PRIVATE_API 5.6.0
 _ZN19QQuickWindowPrivate17dragOverThresholdEdN2Qt4AxisEP11QMouseEventi@Qt_5_PRIVATE_API 5.6.0
 _ZN19QQuickWindowPrivate18defaultAlphaBufferE@Qt_5_PRIVATE_API 5.6.0
 _ZN19QQuickWindowPrivate18deliverTouchPointsEP10QQuickItemP11QTouchEventRK5QListINS2_10TouchPointEEP4QSetIiEP5QHashIS1_S6_EPS9_IS1_E@Qt_5_PRIVATE_API 5.6.0
 _ZN19QQuickWindowPrivate19translateTouchEventEP11QTouchEvent@Qt_5_PRIVATE_API 5.6.0
 _ZN19QQuickWindowPrivate20checkIfDoubleClickedEm@Qt_5_PRIVATE_API 5.6.0
 _ZN19QQuickWindowPrivate20touchEventWithPointsERK11QTouchEventRK5QListINS0_10TouchPointEE@Qt_5_PRIVATE_API 5.6.0
 _ZN19QQuickWindowPrivate20transformTouchPointsER5QListIN11QTouchEvent10TouchPointEERK10QTransform@Qt_5_PRIVATE_API 5.6.0
 _ZN19QQuickWindowPrivate21translateTouchToMouseEP10QQuickItemP11QTouchEvent@Qt_5_PRIVATE_API 5.6.0
 _ZN19QQuickWindowPrivate22cleanupNodesOnShutdownEP10QQuickItem@Qt_5_PRIVATE_API 5.6.0
 _ZN19QQuickWindowPrivate22cleanupNodesOnShutdownEv@Qt_5_PRIVATE_API 5.6.0
 _ZN19QQuickWindowPrivate22flushDelayedTouchEventEv@Qt_5_PRIVATE_API 5.6.0
 _ZN19QQuickWindowPrivate22sendFilteredMouseEventEP10QQuickItemS1_P6QEventP4QSetIS1_E@Qt_5_PRIVATE_API 5.6.0
 _ZN19QQuickWindowPrivate22sendFilteredTouchEventEP10QQuickItemS1_P11QTouchEventP4QSetIS1_E@Qt_5_PRIVATE_API 5.6.0
 _ZN19QQuickWindowPrivate23deliverTouchCancelEventEP11QTouchEvent@Qt_5_PRIVATE_API 5.6.0
 _ZN19QQuickWindowPrivate23notifyFocusChangesRecurEPP10QQuickItemi@Qt_5_PRIVATE_API 5.6.0
 _ZN19QQuickWindowPrivate23reallyDeliverTouchEventEP11QTouchEvent@Qt_5_PRIVATE_API 5.6.0
 _ZN19QQuickWindowPrivate23touchEventForItemBoundsEP10QQuickItemRK11QTouchEvent@Qt_5_PRIVATE_API 5.6.0
 _ZN19QQuickWindowPrivate24deliverDelayedTouchEventEv@Qt_5_PRIVATE_API 5.6.0
 _ZN19QQuickWindowPrivate24updateFocusItemTransformEv@Qt_5_PRIVATE_API 5.6.0
 _ZN19QQuickWindowPrivate25deliverNativeGestureEventEP10QQuickItemP19QNativeGestureEvent@Qt_5_PRIVATE_API 5.6.0
 _ZN19QQuickWindowPrivate27deliverMatchingPointsToItemEP10QQuickItemP11QTouchEventP4QSetIiERKS5_RK5QListINS2_10TouchPointEEPS4_IS1_E@Qt_5_PRIVATE_API 5.6.0
 _ZN19QQuickWindowPrivate29contextCreationFailureMessageERK14QSurfaceFormatP7QStringS4_b@Qt_5_PRIVATE_API 5.6.0
 _ZN19QQuickWindowPrivate29deliverInitialMousePressEventEP10QQuickItemP11QMouseEvent@Qt_5_PRIVATE_API 5.6.0
 _ZN19QQuickWindowPrivate4dataEv@Qt_5_PRIVATE_API 5.6.0
 _ZN19QQuickWindowPrivate4initEP12QQuickWindowP19QQuickRenderControl@Qt_5_PRIVATE_API 5.6.0
 _ZN19QQuickWindowPrivate7cleanupEP7QSGNode@Qt_5_PRIVATE_API 5.6.0
 _ZN19QQuickWindowPrivate7data_atEP16QQmlListPropertyI7QObjectEi@Qt_5_PRIVATE_API 5.6.0
 _ZN19QQuickWindowPrivate9dirtyItemEP10QQuickItem@Qt_5_PRIVATE_API 5.6.0
 _ZN19QQuickWindowPrivate9emitErrorEN12QQuickWindow15SceneGraphErrorERK7QString@Qt_5_PRIVATE_API 5.6.0
 _ZN19QQuickWindowPrivateC1Ev@Qt_5_PRIVATE_API 5.6.0
 _ZN19QQuickWindowPrivateC2Ev@Qt_5_PRIVATE_API 5.6.0
 _ZN19QQuickWindowPrivateD0Ev@Qt_5_PRIVATE_API 5.6.0
 _ZN19QQuickWindowPrivateD1Ev@Qt_5_PRIVATE_API 5.6.0
 _ZN19QQuickWindowPrivateD2Ev@Qt_5_PRIVATE_API 5.6.0
 _ZN19QQuickWindowQmlImpl10classBeginEv@Qt_5_PRIVATE_API 5.6.0
 _ZN19QQuickWindowQmlImpl10setVisibleEb@Qt_5_PRIVATE_API 5.6.0
 _ZN19QQuickWindowQmlImpl11qt_metacallEN11QMetaObject4CallEiPPv@Qt_5_PRIVATE_API 5.6.0
 _ZN19QQuickWindowQmlImpl11qt_metacastEPKc@Qt_5_PRIVATE_API 5.6.0
 _ZN19QQuickWindowQmlImpl13setVisibilityEN7QWindow10VisibilityE@Qt_5_PRIVATE_API 5.6.0
 _ZN19QQuickWindowQmlImpl14visibleChangedEb@Qt_5_PRIVATE_API 5.6.0
 _ZN19QQuickWindowQmlImpl16staticMetaObjectE@Qt_5_PRIVATE_API 5.6.0
 _ZN19QQuickWindowQmlImpl17componentCompleteEv@Qt_5_PRIVATE_API 5.6.0
 _ZN19QQuickWindowQmlImpl17visibilityChangedEN7QWindow10VisibilityE@Qt_5_PRIVATE_API 5.6.0
 _ZN19QQuickWindowQmlImpl19setWindowVisibilityEv@Qt_5_PRIVATE_API 5.6.0
 _ZN19QQuickWindowQmlImpl21qmlAttachedPropertiesEP7QObject@Qt_5_PRIVATE_API 5.6.0
 _ZN19QQuickWindowQmlImplC1EP7QWindow@Qt_5_PRIVATE_API 5.6.0
 _ZN19QQuickWindowQmlImplC2EP7QWindow@Qt_5_PRIVATE_API 5.6.0
 _ZN19QQuickWindowQmlImplD0Ev@Qt_5_PRIVATE_API 5.6.0
 _ZN19QQuickWindowQmlImplD1Ev@Qt_5_PRIVATE_API 5.6.0
 _ZN19QQuickWindowQmlImplD2Ev@Qt_5_PRIVATE_API 5.6.0
 _ZN19QSGAbstractRenderer11qt_metacallEN11QMetaObject4CallEiPPv@Qt_5 5.6.0
 _ZN19QSGAbstractRenderer11qt_metacastEPKc@Qt_5 5.6.0
 _ZN19QSGAbstractRenderer11setRootNodeEP11QSGRootNode@Qt_5 5.6.0
 _ZN19QSGAbstractRenderer12setClearModeE6QFlagsINS_12ClearModeBitEE@Qt_5 5.6.0
 _ZN19QSGAbstractRenderer13setClearColorERK6QColor@Qt_5 5.6.0
 _ZN19QSGAbstractRenderer13setDeviceRectERK5QRect@Qt_5 5.6.0
 _ZN19QSGAbstractRenderer15setViewportRectERK5QRect@Qt_5 5.6.0
 _ZN19QSGAbstractRenderer16staticMetaObjectE@Qt_5 5.6.0
 _ZN19QSGAbstractRenderer17sceneGraphChangedEv@Qt_5 5.6.0
 _ZN19QSGAbstractRenderer19setProjectionMatrixERK10QMatrix4x4@Qt_5 5.6.0
 _ZN19QSGAbstractRenderer25setProjectionMatrixToRectERK6QRectF@Qt_5 5.6.0
 _ZN19QSGAbstractRendererC1EP7QObject@Qt_5 5.6.0
 _ZN19QSGAbstractRendererC2EP7QObject@Qt_5 5.6.0
 _ZN19QSGAbstractRendererD0Ev@Qt_5 5.6.0
 _ZN19QSGAbstractRendererD1Ev@Qt_5 5.6.0
 _ZN19QSGAbstractRendererD2Ev@Qt_5 5.6.0
 _ZN19QSGDefaultImageNode10preprocessEv@Qt_5_PRIVATE_API 5.6.0
 _ZN19QSGDefaultImageNode10setTextureEP10QSGTexture@Qt_5_PRIVATE_API 5.6.0
 _ZN19QSGDefaultImageNode12setFilteringEN10QSGTexture9FilteringE@Qt_5_PRIVATE_API 5.6.0
 _ZN19QSGDefaultImageNode13setTargetRectERK6QRectF@Qt_5_PRIVATE_API 5.6.0
 _ZN19QSGDefaultImageNode14updateGeometryEv@Qt_5_PRIVATE_API 5.6.0
 _ZN19QSGDefaultImageNode15setAntialiasingEb@Qt_5_PRIVATE_API 5.6.0
 _ZN19QSGDefaultImageNode16setSubSourceRectERK6QRectF@Qt_5_PRIVATE_API 5.6.0
 _ZN19QSGDefaultImageNode18setInnerSourceRectERK6QRectF@Qt_5_PRIVATE_API 5.6.0
 _ZN19QSGDefaultImageNode18setInnerTargetRectERK6QRectF@Qt_5_PRIVATE_API 5.6.0
 _ZN19QSGDefaultImageNode18setMipmapFilteringEN10QSGTexture9FilteringE@Qt_5_PRIVATE_API 5.6.0
 _ZN19QSGDefaultImageNode19setVerticalWrapModeEN10QSGTexture8WrapModeE@Qt_5_PRIVATE_API 5.6.0
 _ZN19QSGDefaultImageNode21setHorizontalWrapModeEN10QSGTexture8WrapModeE@Qt_5_PRIVATE_API 5.6.0
 _ZN19QSGDefaultImageNode6updateEv@Qt_5_PRIVATE_API 5.6.0
 _ZN19QSGDefaultImageNode9setMirrorEb@Qt_5_PRIVATE_API 5.6.0
 _ZN19QSGDefaultImageNodeC1Ev@Qt_5_PRIVATE_API 5.6.0
 _ZN19QSGDefaultImageNodeC2Ev@Qt_5_PRIVATE_API 5.6.0
 _ZN19QSGDefaultImageNodeD0Ev@Qt_5_PRIVATE_API 5.6.0
 _ZN19QSGDefaultImageNodeD1Ev@Qt_5_PRIVATE_API 5.6.0
 _ZN19QSGDefaultImageNodeD2Ev@Qt_5_PRIVATE_API 5.6.0
 _ZN20QQuickAnimationGroup10animationsEv@Qt_5_PRIVATE_API 5.6.0
 _ZN20QQuickAnimationGroup11qt_metacallEN11QMetaObject4CallEiPPv@Qt_5_PRIVATE_API 5.6.0
 _ZN20QQuickAnimationGroup11qt_metacastEPKc@Qt_5_PRIVATE_API 5.6.0
 _ZN20QQuickAnimationGroup16staticMetaObjectE@Qt_5_PRIVATE_API 5.6.0
 _ZN20QQuickAnimationGroupC1EP7QObject@Qt_5_PRIVATE_API 5.6.0
 _ZN20QQuickAnimationGroupC1ER27QQuickAnimationGroupPrivateP7QObject@Qt_5_PRIVATE_API 5.6.0
 _ZN20QQuickAnimationGroupC2EP7QObject@Qt_5_PRIVATE_API 5.6.0
 _ZN20QQuickAnimationGroupC2ER27QQuickAnimationGroupPrivateP7QObject@Qt_5_PRIVATE_API 5.6.0
 _ZN20QQuickAnimationGroupD0Ev@Qt_5_PRIVATE_API 5.6.0
 _ZN20QQuickAnimationGroupD1Ev@Qt_5_PRIVATE_API 5.6.0
 _ZN20QQuickAnimationGroupD2Ev@Qt_5_PRIVATE_API 5.6.0
 _ZN20QQuickBasePositioner10addChangedEv@Qt_5_PRIVATE_API 5.6.0
 _ZN20QQuickBasePositioner10itemChangeEN10QQuickItem10ItemChangeERKNS0_14ItemChangeDataE@Qt_5_PRIVATE_API 5.6.0
 _ZN20QQuickBasePositioner10setPaddingEd@Qt_5_PRIVATE_API 5.6.0
 _ZN20QQuickBasePositioner10setSpacingEd@Qt_5_PRIVATE_API 5.6.0
 _ZN20QQuickBasePositioner11moveChangedEv@Qt_5_PRIVATE_API 5.6.0
 _ZN20QQuickBasePositioner11qt_metacallEN11QMetaObject4CallEiPPv@Qt_5_PRIVATE_API 5.6.0
 _ZN20QQuickBasePositioner11qt_metacastEPKc@Qt_5_PRIVATE_API 5.6.0
 _ZN20QQuickBasePositioner11setPopulateEP16QQuickTransition@Qt_5_PRIVATE_API 5.6.0
 _ZN20QQuickBasePositioner12positionItemEddPNS_14PositionedItemE@Qt_5_PRIVATE_API 5.6.0
 _ZN20QQuickBasePositioner12resetPaddingEv@Qt_5_PRIVATE_API 5.6.0
 _ZN20QQuickBasePositioner12updatePolishEv@Qt_5_PRIVATE_API 5.6.0
 _ZN20QQuickBasePositioner13positionItemXEdPNS_14PositionedItemE@Qt_5_PRIVATE_API 5.6.0
 _ZN20QQuickBasePositioner13positionItemYEdPNS_14PositionedItemE@Qt_5_PRIVATE_API 5.6.0
 _ZN20QQuickBasePositioner13setTopPaddingEd@Qt_5_PRIVATE_API 5.6.0
 _ZN20QQuickBasePositioner14PositionedItem13updatePaddingEdddd@Qt_5_PRIVATE_API 5.6.0
 _ZN20QQuickBasePositioner14PositionedItem15startTransitionEP26QQuickItemViewTransitioner@Qt_5_PRIVATE_API 5.6.0
 _ZN20QQuickBasePositioner14PositionedItem17prepareTransitionEP26QQuickItemViewTransitionerRK6QRectF@Qt_5_PRIVATE_API 5.6.0
 _ZN20QQuickBasePositioner14PositionedItem24transitionNextRepositionEP26QQuickItemViewTransitionerNS1_14TransitionTypeEb@Qt_5_PRIVATE_API 5.6.0
 _ZN20QQuickBasePositioner14PositionedItem6moveToERK7QPointF@Qt_5_PRIVATE_API 5.6.0
 _ZN20QQuickBasePositioner14PositionedItemC1EP10QQuickItem@Qt_5_PRIVATE_API 5.6.0
 _ZN20QQuickBasePositioner14PositionedItemC2EP10QQuickItem@Qt_5_PRIVATE_API 5.6.0
 _ZN20QQuickBasePositioner14PositionedItemD1Ev@Qt_5_PRIVATE_API 5.6.0
 _ZN20QQuickBasePositioner14PositionedItemD2Ev@Qt_5_PRIVATE_API 5.6.0
 _ZN20QQuickBasePositioner14paddingChangedEv@Qt_5_PRIVATE_API 5.6.0
 _ZN20QQuickBasePositioner14prePositioningEv@Qt_5_PRIVATE_API 5.6.0
 _ZN20QQuickBasePositioner14setLeftPaddingEd@Qt_5_PRIVATE_API 5.6.0
 _ZN20QQuickBasePositioner14spacingChangedEv@Qt_5_PRIVATE_API 5.6.0
 _ZN20QQuickBasePositioner15populateChangedEv@Qt_5_PRIVATE_API 5.6.0
 _ZN20QQuickBasePositioner15resetTopPaddingEv@Qt_5_PRIVATE_API 5.6.0
 _ZN20QQuickBasePositioner15setRightPaddingEd@Qt_5_PRIVATE_API 5.6.0
 _ZN20QQuickBasePositioner16resetLeftPaddingEv@Qt_5_PRIVATE_API 5.6.0
 _ZN20QQuickBasePositioner16setBottomPaddingEd@Qt_5_PRIVATE_API 5.6.0
 _ZN20QQuickBasePositioner16staticMetaObjectE@Qt_5_PRIVATE_API 5.6.0
 _ZN20QQuickBasePositioner17componentCompleteEv@Qt_5_PRIVATE_API 5.6.0
 _ZN20QQuickBasePositioner17resetRightPaddingEv@Qt_5_PRIVATE_API 5.6.0
 _ZN20QQuickBasePositioner17topPaddingChangedEv@Qt_5_PRIVATE_API 5.6.0
 _ZN20QQuickBasePositioner18leftPaddingChangedEv@Qt_5_PRIVATE_API 5.6.0
 _ZN20QQuickBasePositioner18resetBottomPaddingEv@Qt_5_PRIVATE_API 5.6.0
 _ZN20QQuickBasePositioner19rightPaddingChangedEv@Qt_5_PRIVATE_API 5.6.0
 _ZN20QQuickBasePositioner20bottomPaddingChangedEv@Qt_5_PRIVATE_API 5.6.0
 _ZN20QQuickBasePositioner20clearPositionedItemsEP10QPODVectorINS_14PositionedItemELi8EE@Qt_5_PRIVATE_API 5.6.0
 _ZN20QQuickBasePositioner20removePositionedItemEP10QPODVectorINS_14PositionedItemELi8EEi@Qt_5_PRIVATE_API 5.6.0
 _ZN20QQuickBasePositioner21qmlAttachedPropertiesEP7QObject@Qt_5_PRIVATE_API 5.6.0
 _ZN20QQuickBasePositioner6setAddEP16QQuickTransition@Qt_5_PRIVATE_API 5.6.0
 _ZN20QQuickBasePositioner7setMoveEP16QQuickTransition@Qt_5_PRIVATE_API 5.6.0
 _ZN20QQuickBasePositionerC1ENS_14PositionerTypeEP10QQuickItem@Qt_5_PRIVATE_API 5.6.0
 _ZN20QQuickBasePositionerC1ER27QQuickBasePositionerPrivateNS_14PositionerTypeEP10QQuickItem@Qt_5_PRIVATE_API 5.6.0
 _ZN20QQuickBasePositionerC2ENS_14PositionerTypeEP10QQuickItem@Qt_5_PRIVATE_API 5.6.0
 _ZN20QQuickBasePositionerC2ER27QQuickBasePositionerPrivateNS_14PositionerTypeEP10QQuickItem@Qt_5_PRIVATE_API 5.6.0
 _ZN20QQuickBasePositionerD0Ev@Qt_5_PRIVATE_API 5.6.0
 _ZN20QQuickBasePositionerD1Ev@Qt_5_PRIVATE_API 5.6.0
 _ZN20QQuickBasePositionerD2Ev@Qt_5_PRIVATE_API 5.6.0
 _ZN20QQuickColorAnimation11qt_metacallEN11QMetaObject4CallEiPPv@Qt_5_PRIVATE_API 5.6.0
 _ZN20QQuickColorAnimation11qt_metacastEPKc@Qt_5_PRIVATE_API 5.6.0
 _ZN20QQuickColorAnimation16staticMetaObjectE@Qt_5_PRIVATE_API 5.6.0
 _ZN20QQuickColorAnimation5setToERK6QColor@Qt_5_PRIVATE_API 5.6.0
 _ZN20QQuickColorAnimation7setFromERK6QColor@Qt_5_PRIVATE_API 5.6.0
 _ZN20QQuickColorAnimationC1EP7QObject@Qt_5_PRIVATE_API 5.6.0
 _ZN20QQuickColorAnimationC2EP7QObject@Qt_5_PRIVATE_API 5.6.0
 _ZN20QQuickColorAnimationD0Ev@Qt_5_PRIVATE_API 5.6.0
 _ZN20QQuickColorAnimationD1Ev@Qt_5_PRIVATE_API 5.6.0
 _ZN20QQuickColorAnimationD2Ev@Qt_5_PRIVATE_API 5.6.0
 _ZN20QQuickItemGrabResult10saveToFileERK7QString@Qt_5 5.6.0
 _ZN20QQuickItemGrabResult11qt_metacallEN11QMetaObject4CallEiPPv@Qt_5 5.6.0
 _ZN20QQuickItemGrabResult11qt_metacastEPKc@Qt_5 5.6.0
 _ZN20QQuickItemGrabResult16staticMetaObjectE@Qt_5 5.6.0
 _ZN20QQuickItemGrabResult5eventEP6QEvent@Qt_5 5.6.0
 _ZN20QQuickItemGrabResult5readyEv@Qt_5 5.6.0
 _ZN20QQuickItemGrabResult5setupEv@Qt_5 5.6.0
 _ZN20QQuickItemGrabResult6renderEv@Qt_5 5.6.0
 _ZN20QQuickItemGrabResultC1EP7QObject@Qt_5 5.6.0
 _ZN20QQuickItemGrabResultC2EP7QObject@Qt_5 5.6.0
 _ZN20QQuickItemGrabResultD0Ev@Qt_5 5.6.0
 _ZN20QQuickItemGrabResultD1Ev@Qt_5 5.6.0
 _ZN20QQuickItemGrabResultD2Ev@Qt_5 5.6.0
 _ZN20QQuickPauseAnimation10transitionER5QListI17QQuickStateActionERS0_I12QQmlPropertyEN23QQuickAbstractAnimation19TransitionDirectionEP7QObject@Qt_5_PRIVATE_API 5.6.0
 _ZN20QQuickPauseAnimation11qt_metacallEN11QMetaObject4CallEiPPv@Qt_5_PRIVATE_API 5.6.0
 _ZN20QQuickPauseAnimation11qt_metacastEPKc@Qt_5_PRIVATE_API 5.6.0
 _ZN20QQuickPauseAnimation11setDurationEi@Qt_5_PRIVATE_API 5.6.0
 _ZN20QQuickPauseAnimation15durationChangedEi@Qt_5_PRIVATE_API 5.6.0
 _ZN20QQuickPauseAnimation16staticMetaObjectE@Qt_5_PRIVATE_API 5.6.0
 _ZN20QQuickPauseAnimationC1EP7QObject@Qt_5_PRIVATE_API 5.6.0
 _ZN20QQuickPauseAnimationC2EP7QObject@Qt_5_PRIVATE_API 5.6.0
 _ZN20QQuickPauseAnimationD0Ev@Qt_5_PRIVATE_API 5.6.0
 _ZN20QQuickPauseAnimationD1Ev@Qt_5_PRIVATE_API 5.6.0
 _ZN20QQuickPauseAnimationD2Ev@Qt_5_PRIVATE_API 5.6.0
 _ZN20QQuickStateOperation11qt_metacallEN11QMetaObject4CallEiPPv@Qt_5_PRIVATE_API 5.6.0
 _ZN20QQuickStateOperation11qt_metacastEPKc@Qt_5_PRIVATE_API 5.6.0
 _ZN20QQuickStateOperation16staticMetaObjectE@Qt_5_PRIVATE_API 5.6.0
 _ZN20QQuickStateOperation7actionsEv@Qt_5_PRIVATE_API 5.6.0
 _ZN20QQuickStateOperation8setStateEP11QQuickState@Qt_5_PRIVATE_API 5.6.0
 _ZN20QQuickStateOperationC1ER14QObjectPrivateP7QObject@Qt_5_PRIVATE_API 5.6.0
 _ZN20QQuickStateOperationC2ER14QObjectPrivateP7QObject@Qt_5_PRIVATE_API 5.6.0
 _ZN20QQuickStateOperationD0Ev@Qt_5_PRIVATE_API 5.6.0
 _ZN20QQuickStateOperationD1Ev@Qt_5_PRIVATE_API 5.6.0
 _ZN20QQuickStateOperationD2Ev@Qt_5_PRIVATE_API 5.6.0
 _ZN20QQuickTextureFactory22textureFactoryForImageERK6QImage@Qt_5 5.6.0
 _ZN20QQuickTextureFactoryC1Ev@Qt_5 5.6.0
 _ZN20QQuickTextureFactoryC2Ev@Qt_5 5.6.0
 _ZN20QQuickTextureFactoryD0Ev@Qt_5 5.6.0
 _ZN20QQuickTextureFactoryD1Ev@Qt_5 5.6.0
 _ZN20QQuickTextureFactoryD2Ev@Qt_5 5.6.0
 _ZN20QSGBasicGeometryNode11setGeometryEP11QSGGeometry@Qt_5 5.6.0
 _ZN20QSGBasicGeometryNodeC1EN7QSGNode8NodeTypeE@Qt_5 5.6.0
 _ZN20QSGBasicGeometryNodeC1ER27QSGBasicGeometryNodePrivateN7QSGNode8NodeTypeE@Qt_5 5.6.0
 _ZN20QSGBasicGeometryNodeC2EN7QSGNode8NodeTypeE@Qt_5 5.6.0
 _ZN20QSGBasicGeometryNodeC2ER27QSGBasicGeometryNodePrivateN7QSGNode8NodeTypeE@Qt_5 5.6.0
 _ZN20QSGBasicGeometryNodeD0Ev@Qt_5 5.6.0
 _ZN20QSGBasicGeometryNodeD1Ev@Qt_5 5.6.0
 _ZN20QSGBasicGeometryNodeD2Ev@Qt_5 5.6.0
 _ZN20QSGFlatColorMaterial8setColorERK6QColor@Qt_5 5.6.0
 _ZN20QSGFlatColorMaterialC1Ev@Qt_5 5.6.0
 _ZN20QSGFlatColorMaterialC2Ev@Qt_5 5.6.0
 _ZN20QSGFlatColorMaterialD0Ev@Qt_5 5.6.0
 _ZN20QSGFlatColorMaterialD1Ev@Qt_5 5.6.0
 _ZN20QSGFlatColorMaterialD2Ev@Qt_5 5.6.0
 _ZN20QSGSimpleTextureNode10setTextureEP10QSGTexture@Qt_5 5.6.0
 _ZN20QSGSimpleTextureNode12setFilteringEN10QSGTexture9FilteringE@Qt_5 5.6.0
 _ZN20QSGSimpleTextureNode13setSourceRectERK6QRectF@Qt_5 5.6.0
 _ZN20QSGSimpleTextureNode14setOwnsTextureEb@Qt_5 5.6.0
 _ZN20QSGSimpleTextureNode30setTextureCoordinatesTransformE6QFlagsINS_31TextureCoordinatesTransformFlagEE@Qt_5 5.6.0
 _ZN20QSGSimpleTextureNode7setRectERK6QRectF@Qt_5 5.6.0
 _ZN20QSGSimpleTextureNodeC1Ev@Qt_5 5.6.0
 _ZN20QSGSimpleTextureNodeC2Ev@Qt_5 5.6.0
 _ZN20QSGSimpleTextureNodeD0Ev@Qt_5 5.6.0
 _ZN20QSGSimpleTextureNodeD1Ev@Qt_5 5.6.0
 _ZN20QSGSimpleTextureNodeD2Ev@Qt_5 5.6.0
 _ZN21QQuickDefaultClipNode14updateGeometryEv@Qt_5_PRIVATE_API 5.6.0
 _ZN21QQuickDefaultClipNode6updateEv@Qt_5_PRIVATE_API 5.6.0
 _ZN21QQuickDefaultClipNode7setRectERK6QRectF@Qt_5_PRIVATE_API 5.6.0
 _ZN21QQuickDefaultClipNode9setRadiusEd@Qt_5_PRIVATE_API 5.6.0
 _ZN21QQuickDefaultClipNodeC1ERK6QRectF@Qt_5_PRIVATE_API 5.6.0
 _ZN21QQuickDefaultClipNodeC2ERK6QRectF@Qt_5_PRIVATE_API 5.6.0
 _ZN21QQuickDefaultClipNodeD0Ev@Qt_5_PRIVATE_API 5.6.0
 _ZN21QQuickDefaultClipNodeD1Ev@Qt_5_PRIVATE_API 5.6.0
 _ZN21QQuickDefaultClipNodeD2Ev@Qt_5_PRIVATE_API 5.6.0
 _ZN21QQuickDesignerSupport10resetDirtyEP10QQuickItem@Qt_5_PRIVATE_API 5.6.0
 _ZN21QQuickDesignerSupport11borderWidthEP10QQuickItem@Qt_5_PRIVATE_API 5.6.0
 _ZN21QQuickDesignerSupport11polishItemsEP12QQuickWindow@Qt_5_PRIVATE_API 5.6.0
 _ZN21QQuickDesignerSupport11resetAnchorEP10QQuickItemRK7QString@Qt_5_PRIVATE_API 5.6.0
 _ZN21QQuickDesignerSupport11setRootItemEP10QQuickViewP10QQuickItem@Qt_5_PRIVATE_API 5.6.0
 _ZN21QQuickDesignerSupport12isAnchoredToEP10QQuickItemS1_@Qt_5_PRIVATE_API 5.6.0
 _ZN21QQuickDesignerSupport12isValidWidthEP10QQuickItem@Qt_5_PRIVATE_API 5.6.0
 _ZN21QQuickDesignerSupport13isValidHeightEP10QQuickItem@Qt_5_PRIVATE_API 5.6.0
 _ZN21QQuickDesignerSupport13statesForItemEP10QQuickItem@Qt_5_PRIVATE_API 5.6.0
 _ZN21QQuickDesignerSupport15parentTransformEP10QQuickItem@Qt_5_PRIVATE_API 5.6.0
 _ZN21QQuickDesignerSupport15updateDirtyNodeEP10QQuickItem@Qt_5_PRIVATE_API 5.6.0
 _ZN21QQuickDesignerSupport15windowTransformEP10QQuickItem@Qt_5_PRIVATE_API 5.6.0
 _ZN21QQuickDesignerSupport16anchorLineTargetEP10QQuickItemRK7QStringP11QQmlContext@Qt_5_PRIVATE_API 5.6.0
 _ZN21QQuickDesignerSupport17refFromEffectItemEP10QQuickItemb@Qt_5_PRIVATE_API 5.6.0
 _ZN21QQuickDesignerSupport18refreshExpressionsEP11QQmlContext@Qt_5_PRIVATE_API 5.6.0
 _ZN21QQuickDesignerSupport18renderImageForItemEP10QQuickItemRK6QRectFRK5QSize@Qt_5_PRIVATE_API 5.6.0
 _ZN21QQuickDesignerSupport19createOpenGLContextEP12QQuickWindow@Qt_5_PRIVATE_API 5.6.0
 _ZN21QQuickDesignerSupport19derefFromEffectItemEP10QQuickItemb@Qt_5_PRIVATE_API 5.6.0
 _ZN21QQuickDesignerSupport19isComponentCompleteEP10QQuickItem@Qt_5_PRIVATE_API 5.6.0
 _ZN21QQuickDesignerSupport20activateDesignerModeEv@Qt_5_PRIVATE_API 5.6.0
 _ZN21QQuickDesignerSupport20anchorFillTargetItemEP10QQuickItem@Qt_5_PRIVATE_API 5.6.0
 _ZN21QQuickDesignerSupport21areChildrenAnchoredToEP10QQuickItemS1_@Qt_5_PRIVATE_API 5.6.0
 _ZN21QQuickDesignerSupport23enableComponentCompleteEv@Qt_5_PRIVATE_API 5.6.0
 _ZN21QQuickDesignerSupport24anchorCenterInTargetItemEP10QQuickItem@Qt_5_PRIVATE_API 5.6.0
 _ZN21QQuickDesignerSupport24disableComponentCompleteEv@Qt_5_PRIVATE_API 5.6.0
 _ZN21QQuickDesignerSupport29activateDesignerWindowManagerEv@Qt_5_PRIVATE_API 5.6.0
 _ZN21QQuickDesignerSupport46emitComponentCompleteSignalForAttachedPropertyEP10QQuickItem@Qt_5_PRIVATE_API 5.6.0
 _ZN21QQuickDesignerSupport7isDirtyEP10QQuickItemNS_9DirtyTypeE@Qt_5_PRIVATE_API 5.6.0
 _ZN21QQuickDesignerSupport8addDirtyEP10QQuickItemNS_9DirtyTypeE@Qt_5_PRIVATE_API 5.6.0
 _ZN21QQuickDesignerSupport9hasAnchorEP10QQuickItemRK7QString@Qt_5_PRIVATE_API 5.6.0
 _ZN21QQuickDesignerSupportC1Ev@Qt_5_PRIVATE_API 5.6.0
 _ZN21QQuickDesignerSupportC2Ev@Qt_5_PRIVATE_API 5.6.0
 _ZN21QQuickDesignerSupportD1Ev@Qt_5_PRIVATE_API 5.6.0
 _ZN21QQuickDesignerSupportD2Ev@Qt_5_PRIVATE_API 5.6.0
 _ZN21QQuickNumberAnimation11qt_metacallEN11QMetaObject4CallEiPPv@Qt_5_PRIVATE_API 5.6.0
 _ZN21QQuickNumberAnimation11qt_metacastEPKc@Qt_5_PRIVATE_API 5.6.0
 _ZN21QQuickNumberAnimation16staticMetaObjectE@Qt_5_PRIVATE_API 5.6.0
 _ZN21QQuickNumberAnimation4initEv@Qt_5_PRIVATE_API 5.6.0
 _ZN21QQuickNumberAnimation5setToEd@Qt_5_PRIVATE_API 5.6.0
 _ZN21QQuickNumberAnimation7setFromEd@Qt_5_PRIVATE_API 5.6.0
 _ZN21QQuickNumberAnimationC1EP7QObject@Qt_5_PRIVATE_API 5.6.0
 _ZN21QQuickNumberAnimationC1ER30QQuickPropertyAnimationPrivateP7QObject@Qt_5_PRIVATE_API 5.6.0
 _ZN21QQuickNumberAnimationC2EP7QObject@Qt_5_PRIVATE_API 5.6.0
 _ZN21QQuickNumberAnimationC2ER30QQuickPropertyAnimationPrivateP7QObject@Qt_5_PRIVATE_API 5.6.0
 _ZN21QQuickNumberAnimationD0Ev@Qt_5_PRIVATE_API 5.6.0
 _ZN21QQuickNumberAnimationD1Ev@Qt_5_PRIVATE_API 5.6.0
 _ZN21QQuickNumberAnimationD2Ev@Qt_5_PRIVATE_API 5.6.0
 _ZN21QQuickOpacityAnimator11qt_metacallEN11QMetaObject4CallEiPPv@Qt_5_PRIVATE_API 5.6.0
 _ZN21QQuickOpacityAnimator11qt_metacastEPKc@Qt_5_PRIVATE_API 5.6.0
 _ZN21QQuickOpacityAnimator16staticMetaObjectE@Qt_5_PRIVATE_API 5.6.0
 _ZN21QQuickOpacityAnimatorC1EP7QObject@Qt_5_PRIVATE_API 5.6.0
 _ZN21QQuickOpacityAnimatorC2EP7QObject@Qt_5_PRIVATE_API 5.6.0
 _ZN21QQuickOpacityAnimatorD0Ev@Qt_5_PRIVATE_API 5.6.0
 _ZN21QQuickOpacityAnimatorD1Ev@Qt_5_PRIVATE_API 5.6.0
 _ZN21QQuickOpacityAnimatorD2Ev@Qt_5_PRIVATE_API 5.6.0
 _ZN21QQuickPropertyChanges11changeValueERK7QStringRK8QVariant@Qt_5_PRIVATE_API 5.6.0
 _ZN21QQuickPropertyChanges11qt_metacallEN11QMetaObject4CallEiPPv@Qt_5_PRIVATE_API 5.6.0
 _ZN21QQuickPropertyChanges11qt_metacastEPKc@Qt_5_PRIVATE_API 5.6.0
 _ZN21QQuickPropertyChanges13attachToStateEv@Qt_5_PRIVATE_API 5.6.0
 _ZN21QQuickPropertyChanges13setIsExplicitEb@Qt_5_PRIVATE_API 5.6.0
 _ZN21QQuickPropertyChanges14removePropertyERK7QString@Qt_5_PRIVATE_API 5.6.0
 _ZN21QQuickPropertyChanges15detachFromStateEv@Qt_5_PRIVATE_API 5.6.0
 _ZN21QQuickPropertyChanges16changeExpressionERK7QStringS2_@Qt_5_PRIVATE_API 5.6.0
 _ZN21QQuickPropertyChanges16staticMetaObjectE@Qt_5_PRIVATE_API 5.6.0
 _ZN21QQuickPropertyChanges21setRestoreEntryValuesEb@Qt_5_PRIVATE_API 5.6.0
 _ZN21QQuickPropertyChanges7actionsEv@Qt_5_PRIVATE_API 5.6.0
 _ZN21QQuickPropertyChanges9setObjectEP7QObject@Qt_5_PRIVATE_API 5.6.0
 _ZN21QQuickPropertyChangesC1Ev@Qt_5_PRIVATE_API 5.6.0
 _ZN21QQuickPropertyChangesC2Ev@Qt_5_PRIVATE_API 5.6.0
 _ZN21QQuickPropertyChangesD0Ev@Qt_5_PRIVATE_API 5.6.0
 _ZN21QQuickPropertyChangesD1Ev@Qt_5_PRIVATE_API 5.6.0
 _ZN21QQuickPropertyChangesD2Ev@Qt_5_PRIVATE_API 5.6.0
 _ZN21QQuickStochasticState11nameChangedERK7QString@Qt_5_PRIVATE_API 5.6.0
 _ZN21QQuickStochasticState11qt_metacallEN11QMetaObject4CallEiPPv@Qt_5_PRIVATE_API 5.6.0
 _ZN21QQuickStochasticState11qt_metacastEPKc@Qt_5_PRIVATE_API 5.6.0
 _ZN21QQuickStochasticState15durationChangedEi@Qt_5_PRIVATE_API 5.6.0
 _ZN21QQuickStochasticState16staticMetaObjectE@Qt_5_PRIVATE_API 5.6.0
 _ZN21QQuickStochasticState18randomStartChangedEb@Qt_5_PRIVATE_API 5.6.0
 _ZN21QQuickStochasticState24durationVariationChangedEi@Qt_5_PRIVATE_API 5.6.0
 _ZN21QQuickStochasticState7enteredEv@Qt_5_PRIVATE_API 5.6.0
 _ZN21QQuickStochasticState9toChangedERK4QMapI7QString8QVariantE@Qt_5_PRIVATE_API 5.6.0
 _ZN21QQuickStochasticStateD0Ev@Qt_5_PRIVATE_API 5.6.0
 _ZN21QQuickStochasticStateD1Ev@Qt_5_PRIVATE_API 5.6.0
 _ZN21QQuickStochasticStateD2Ev@Qt_5_PRIVATE_API 5.6.0
 _ZN21QQuickTextEditPrivate12mirrorChangeEv@Qt_5_PRIVATE_API 5.6.0
 _ZN21QQuickTextEditPrivate13setTopPaddingEdb@Qt_5_PRIVATE_API 5.6.0
 _ZN21QQuickTextEditPrivate14createTextNodeEv@Qt_5_PRIVATE_API 5.6.0
 _ZN21QQuickTextEditPrivate14setLeftPaddingEdb@Qt_5_PRIVATE_API 5.6.0
 _ZN21QQuickTextEditPrivate15setRightPaddingEdb@Qt_5_PRIVATE_API 5.6.0
 _ZN21QQuickTextEditPrivate16handleFocusEventEP11QFocusEvent@Qt_5_PRIVATE_API 5.6.0
 _ZN21QQuickTextEditPrivate16setBottomPaddingEdb@Qt_5_PRIVATE_API 5.6.0
 _ZN21QQuickTextEditPrivate22isLinkHoveredConnectedEv@Qt_5_PRIVATE_API 5.6.0
 _ZN21QQuickTextEditPrivate23updateDefaultTextOptionEv@Qt_5_PRIVATE_API 5.6.0
 _ZN21QQuickTextEditPrivate24addCurrentTextNodeToRootEP20QQuickTextNodeEngineP16QSGTransformNodeP14QQuickTextNodeRN5QListIPNS_4NodeEE8iteratorEi@Qt_5_PRIVATE_API 5.6.0
 _ZN21QQuickTextEditPrivate24setImplicitResizeEnabledEb@Qt_5_PRIVATE_API 5.6.0
 _ZN21QQuickTextEditPrivate28determineHorizontalAlignmentEv@Qt_5_PRIVATE_API 5.6.0
 _ZN21QQuickTextEditPrivate4initEv@Qt_5_PRIVATE_API 5.6.0
 _ZN21QQuickTextEditPrivate9ExtraDataC1Ev@Qt_5_PRIVATE_API 5.6.0
 _ZN21QQuickTextEditPrivate9ExtraDataC2Ev@Qt_5_PRIVATE_API 5.6.0
 _ZN21QQuickTextEditPrivate9setHAlignEN14QQuickTextEdit10HAlignmentEb@Qt_5_PRIVATE_API 5.6.0
 _ZN21QQuickUniformAnimator10setUniformERK7QString@Qt_5_PRIVATE_API 5.6.0
 _ZN21QQuickUniformAnimator11qt_metacallEN11QMetaObject4CallEiPPv@Qt_5_PRIVATE_API 5.6.0
 _ZN21QQuickUniformAnimator11qt_metacastEPKc@Qt_5_PRIVATE_API 5.6.0
 _ZN21QQuickUniformAnimator14uniformChangedERK7QString@Qt_5_PRIVATE_API 5.6.0
 _ZN21QQuickUniformAnimator16staticMetaObjectE@Qt_5_PRIVATE_API 5.6.0
 _ZN21QQuickUniformAnimatorC1EP7QObject@Qt_5_PRIVATE_API 5.6.0
 _ZN21QQuickUniformAnimatorC2EP7QObject@Qt_5_PRIVATE_API 5.6.0
 _ZN21QQuickUniformAnimatorD0Ev@Qt_5_PRIVATE_API 5.6.0
 _ZN21QQuickUniformAnimatorD1Ev@Qt_5_PRIVATE_API 5.6.0
 _ZN21QQuickUniformAnimatorD2Ev@Qt_5_PRIVATE_API 5.6.0
 _ZN21QSGDefaultPainterNode12setFillColorERK6QColor@Qt_5_PRIVATE_API 5.6.0
 _ZN21QSGDefaultPainterNode13setMipmappingEb@Qt_5_PRIVATE_API 5.6.0
 _ZN21QSGDefaultPainterNode13updateFBOSizeEv@Qt_5_PRIVATE_API 5.6.0
 _ZN21QSGDefaultPainterNode13updateTextureEv@Qt_5_PRIVATE_API 5.6.0
 _ZN21QSGDefaultPainterNode14setTextureSizeERK5QSize@Qt_5_PRIVATE_API 5.6.0
 _ZN21QSGDefaultPainterNode14updateGeometryEv@Qt_5_PRIVATE_API 5.6.0
 _ZN21QSGDefaultPainterNode16setContentsScaleEd@Qt_5_PRIVATE_API 5.6.0
 _ZN21QSGDefaultPainterNode17setOpaquePaintingEb@Qt_5_PRIVATE_API 5.6.0
 _ZN21QSGDefaultPainterNode17setSmoothPaintingEb@Qt_5_PRIVATE_API 5.6.0
 _ZN21QSGDefaultPainterNode18setFastFBOResizingEb@Qt_5_PRIVATE_API 5.6.0
 _ZN21QSGDefaultPainterNode18setLinearFilteringEb@Qt_5_PRIVATE_API 5.6.0
 _ZN21QSGDefaultPainterNode18updateRenderTargetEv@Qt_5_PRIVATE_API 5.6.0
 _ZN21QSGDefaultPainterNode24setPreferredRenderTargetEN17QQuickPaintedItem12RenderTargetE@Qt_5_PRIVATE_API 5.6.0
 _ZN21QSGDefaultPainterNode5paintEv@Qt_5_PRIVATE_API 5.6.0
 _ZN21QSGDefaultPainterNode6updateEv@Qt_5_PRIVATE_API 5.6.0
 _ZN21QSGDefaultPainterNode7setSizeERK5QSize@Qt_5_PRIVATE_API 5.6.0
 _ZN21QSGDefaultPainterNode8setDirtyERK5QRect@Qt_5_PRIVATE_API 5.6.0
 _ZN21QSGDefaultPainterNodeC1EP17QQuickPaintedItem@Qt_5_PRIVATE_API 5.6.0
 _ZN21QSGDefaultPainterNodeC2EP17QQuickPaintedItem@Qt_5_PRIVATE_API 5.6.0
 _ZN21QSGDefaultPainterNodeD0Ev@Qt_5_PRIVATE_API 5.6.0
 _ZN21QSGDefaultPainterNodeD1Ev@Qt_5_PRIVATE_API 5.6.0
 _ZN21QSGDefaultPainterNodeD2Ev@Qt_5_PRIVATE_API 5.6.0
 _ZN22QQuickAnimatorProxyJob11qt_metacallEN11QMetaObject4CallEiPPv@Qt_5_PRIVATE_API 5.6.0
 _ZN22QQuickAnimatorProxyJob11qt_metacastEPKc@Qt_5_PRIVATE_API 5.6.0
 _ZN22QQuickAnimatorProxyJob11updateStateEN21QAbstractAnimationJob5StateES1_@Qt_5_PRIVATE_API 5.6.0
 _ZN22QQuickAnimatorProxyJob13windowChangedEP12QQuickWindow@Qt_5_PRIVATE_API 5.6.0
 _ZN22QQuickAnimatorProxyJob14readyToAnimateEv@Qt_5_PRIVATE_API 5.6.0
 _ZN22QQuickAnimatorProxyJob16staticMetaObjectE@Qt_5_PRIVATE_API 5.6.0
 _ZN22QQuickAnimatorProxyJob17updateCurrentTimeEi@Qt_5_PRIVATE_API 5.6.0
 _ZN22QQuickAnimatorProxyJob19startedByControllerEv@Qt_5_PRIVATE_API 5.6.0
 _ZN22QQuickAnimatorProxyJob20controllerWasDeletedEv@Qt_5_PRIVATE_API 5.6.0
 _ZN22QQuickAnimatorProxyJob20findAnimationContextEP23QQuickAbstractAnimation@Qt_5_PRIVATE_API 5.6.0
 _ZN22QQuickAnimatorProxyJob21sceneGraphInitializedEv@Qt_5_PRIVATE_API 5.6.0
 _ZN22QQuickAnimatorProxyJob21syncBackCurrentValuesEv@Qt_5_PRIVATE_API 5.6.0
 _ZN22QQuickAnimatorProxyJob9deleteJobEv@Qt_5_PRIVATE_API 5.6.0
 _ZN22QQuickAnimatorProxyJob9setWindowEP12QQuickWindow@Qt_5_PRIVATE_API 5.6.0
 _ZN22QQuickAnimatorProxyJobC1EP21QAbstractAnimationJobP7QObject@Qt_5_PRIVATE_API 5.6.0
 _ZN22QQuickAnimatorProxyJobC2EP21QAbstractAnimationJobP7QObject@Qt_5_PRIVATE_API 5.6.0
 _ZN22QQuickAnimatorProxyJobD0Ev@Qt_5_PRIVATE_API 5.6.0
 _ZN22QQuickAnimatorProxyJobD1Ev@Qt_5_PRIVATE_API 5.6.0
 _ZN22QQuickAnimatorProxyJobD2Ev@Qt_5_PRIVATE_API 5.6.0
 _ZN22QQuickImplicitSizeItem11qt_metacallEN11QMetaObject4CallEiPPv@Qt_5_PRIVATE_API 5.6.0
 _ZN22QQuickImplicitSizeItem11qt_metacastEPKc@Qt_5_PRIVATE_API 5.6.0
 _ZN22QQuickImplicitSizeItem16staticMetaObjectE@Qt_5_PRIVATE_API 5.6.0
 _ZN22QQuickImplicitSizeItem21implicitWidthChanged2Ev@Qt_5_PRIVATE_API 5.6.0
 _ZN22QQuickImplicitSizeItem22implicitHeightChanged2Ev@Qt_5_PRIVATE_API 5.6.0
 _ZN22QQuickImplicitSizeItemC1ER29QQuickImplicitSizeItemPrivateP10QQuickItem@Qt_5_PRIVATE_API 5.6.0
 _ZN22QQuickImplicitSizeItemC2ER29QQuickImplicitSizeItemPrivateP10QQuickItem@Qt_5_PRIVATE_API 5.6.0
 _ZN22QQuickImplicitSizeItemD0Ev@Qt_5_PRIVATE_API 5.6.0
 _ZN22QQuickImplicitSizeItemD1Ev@Qt_5_PRIVATE_API 5.6.0
 _ZN22QQuickImplicitSizeItemD2Ev@Qt_5_PRIVATE_API 5.6.0
 _ZN22QQuickItemViewAttached11qt_metacallEN11QMetaObject4CallEiPPv@Qt_5_PRIVATE_API 5.6.0
 _ZN22QQuickItemViewAttached11qt_metacastEPKc@Qt_5_PRIVATE_API 5.6.0
 _ZN22QQuickItemViewAttached11viewChangedEv@Qt_5_PRIVATE_API 5.6.0
 _ZN22QQuickItemViewAttached14sectionChangedEv@Qt_5_PRIVATE_API 5.6.0
 _ZN22QQuickItemViewAttached16staticMetaObjectE@Qt_5_PRIVATE_API 5.6.0
 _ZN22QQuickItemViewAttached18currentItemChangedEv@Qt_5_PRIVATE_API 5.6.0
 _ZN22QQuickItemViewAttached18delayRemoveChangedEv@Qt_5_PRIVATE_API 5.6.0
 _ZN22QQuickItemViewAttached18nextSectionChangedEv@Qt_5_PRIVATE_API 5.6.0
 _ZN22QQuickItemViewAttached18prevSectionChangedEv@Qt_5_PRIVATE_API 5.6.0
 _ZN22QQuickItemViewAttached3addEv@Qt_5_PRIVATE_API 5.6.0
 _ZN22QQuickItemViewAttached6removeEv@Qt_5_PRIVATE_API 5.6.0
 _ZN22QQuickRotationAnimator11qt_metacallEN11QMetaObject4CallEiPPv@Qt_5_PRIVATE_API 5.6.0
 _ZN22QQuickRotationAnimator11qt_metacastEPKc@Qt_5_PRIVATE_API 5.6.0
 _ZN22QQuickRotationAnimator12setDirectionENS_17RotationDirectionE@Qt_5_PRIVATE_API 5.6.0
 _ZN22QQuickRotationAnimator16directionChangedENS_17RotationDirectionE@Qt_5_PRIVATE_API 5.6.0
 _ZN22QQuickRotationAnimator16staticMetaObjectE@Qt_5_PRIVATE_API 5.6.0
 _ZN22QQuickRotationAnimatorC1EP7QObject@Qt_5_PRIVATE_API 5.6.0
 _ZN22QQuickRotationAnimatorC2EP7QObject@Qt_5_PRIVATE_API 5.6.0
 _ZN22QQuickRotationAnimatorD0Ev@Qt_5_PRIVATE_API 5.6.0
 _ZN22QQuickRotationAnimatorD1Ev@Qt_5_PRIVATE_API 5.6.0
 _ZN22QQuickRotationAnimatorD2Ev@Qt_5_PRIVATE_API 5.6.0
 _ZN22QQuickScaleAnimatorJob17updateCurrentTimeEi@Qt_5_PRIVATE_API 5.6.0
 _ZN22QQuickScaleAnimatorJob9writeBackEv@Qt_5_PRIVATE_API 5.6.0
 _ZN22QQuickScaleAnimatorJobD0Ev@Qt_5_PRIVATE_API 5.6.0
 _ZN22QQuickScaleAnimatorJobD1Ev@Qt_5_PRIVATE_API 5.6.0
 _ZN22QQuickScaleAnimatorJobD2Ev@Qt_5_PRIVATE_API 5.6.0
 _ZN22QQuickShaderEffectNode10preprocessEv@Qt_5_PRIVATE_API 5.6.0
 _ZN22QQuickShaderEffectNode11qt_metacallEN11QMetaObject4CallEiPPv@Qt_5_PRIVATE_API 5.6.0
 _ZN22QQuickShaderEffectNode11qt_metacastEPKc@Qt_5_PRIVATE_API 5.6.0
 _ZN22QQuickShaderEffectNode16markDirtyTextureEv@Qt_5_PRIVATE_API 5.6.0
 _ZN22QQuickShaderEffectNode16staticMetaObjectE@Qt_5_PRIVATE_API 5.6.0
 _ZN22QQuickShaderEffectNode19logAndStatusChangedERK7QStringi@Qt_5_PRIVATE_API 5.6.0
 _ZN22QQuickShaderEffectNode24textureProviderDestroyedEP7QObject@Qt_5_PRIVATE_API 5.6.0
 _ZN22QQuickShaderEffectNodeC1Ev@Qt_5_PRIVATE_API 5.6.0
 _ZN22QQuickShaderEffectNodeC2Ev@Qt_5_PRIVATE_API 5.6.0
 _ZN22QQuickShaderEffectNodeD0Ev@Qt_5_PRIVATE_API 5.6.0
 _ZN22QQuickShaderEffectNodeD1Ev@Qt_5_PRIVATE_API 5.6.0
 _ZN22QQuickShaderEffectNodeD2Ev@Qt_5_PRIVATE_API 5.6.0
 _ZN22QQuickStochasticEngine11qt_metacallEN11QMetaObject4CallEiPPv@Qt_5_PRIVATE_API 5.6.0
 _ZN22QQuickStochasticEngine11qt_metacastEPKc@Qt_5_PRIVATE_API 5.6.0
 _ZN22QQuickStochasticEngine12stateChangedEi@Qt_5_PRIVATE_API 5.6.0
 _ZN22QQuickStochasticEngine13updateSpritesEj@Qt_5_PRIVATE_API 5.6.0
 _ZN22QQuickStochasticEngine15addToUpdateListEji@Qt_5_PRIVATE_API 5.6.0
 _ZN22QQuickStochasticEngine16staticMetaObjectE@Qt_5_PRIVATE_API 5.6.0
 _ZN22QQuickStochasticEngine17globalGoalChangedERK7QString@Qt_5_PRIVATE_API 5.6.0
 _ZN22QQuickStochasticEngine4stopEi@Qt_5_PRIVATE_API 5.6.0
 _ZN22QQuickStochasticEngine5startEii@Qt_5_PRIVATE_API 5.6.0
 _ZN22QQuickStochasticEngine7advanceEi@Qt_5_PRIVATE_API 5.6.0
 _ZN22QQuickStochasticEngine7restartEi@Qt_5_PRIVATE_API 5.6.0
 _ZN22QQuickStochasticEngine7setGoalEiib@Qt_5_PRIVATE_API 5.6.0
 _ZN22QQuickStochasticEngine8goalSeekEiii@Qt_5_PRIVATE_API 5.6.0
 _ZN22QQuickStochasticEngine8setCountEi@Qt_5_PRIVATE_API 5.6.0
 _ZN22QQuickStochasticEngine9nextStateEii@Qt_5_PRIVATE_API 5.6.0
 _ZN22QQuickStochasticEngineC1E5QListIP21QQuickStochasticStateEP7QObject@Qt_5_PRIVATE_API 5.6.0
 _ZN22QQuickStochasticEngineC1EP7QObject@Qt_5_PRIVATE_API 5.6.0
 _ZN22QQuickStochasticEngineC2E5QListIP21QQuickStochasticStateEP7QObject@Qt_5_PRIVATE_API 5.6.0
 _ZN22QQuickStochasticEngineC2EP7QObject@Qt_5_PRIVATE_API 5.6.0
 _ZN22QQuickStochasticEngineD0Ev@Qt_5_PRIVATE_API 5.6.0
 _ZN22QQuickStochasticEngineD1Ev@Qt_5_PRIVATE_API 5.6.0
 _ZN22QQuickStochasticEngineD2Ev@Qt_5_PRIVATE_API 5.6.0
 _ZN22QQuickTextInputPrivate10addCommandERKNS_7CommandE@Qt_5_PRIVATE_API 5.6.0
 _ZN22QQuickTextInputPrivate10moveCursorEib@Qt_5_PRIVATE_API 5.6.0
 _ZN22QQuickTextInputPrivate12checkIsValidEv@Qt_5_PRIVATE_API 5.6.0
 _ZN22QQuickTextInputPrivate12finishChangeEibb@Qt_5_PRIVATE_API 5.6.0
 _ZN22QQuickTextInputPrivate12internalRedoEv@Qt_5_PRIVATE_API 5.6.0
 _ZN22QQuickTextInputPrivate12internalUndoEi@Qt_5_PRIVATE_API 5.6.0
 _ZN22QQuickTextInputPrivate12mirrorChangeEv@Qt_5_PRIVATE_API 5.6.0
 _ZN22QQuickTextInputPrivate12setSelectionEii@Qt_5_PRIVATE_API 5.6.0
 _ZN22QQuickTextInputPrivate12updateLayoutEv@Qt_5_PRIVATE_API 5.6.0
 _ZN22QQuickTextInputPrivate13cancelPreeditEv@Qt_5_PRIVATE_API 5.6.0
 _ZN22QQuickTextInputPrivate13commitPreeditEv@Qt_5_PRIVATE_API 5.6.0
 _ZN22QQuickTextInputPrivate13ensureVisibleEiii@Qt_5_PRIVATE_API 5.6.0
 _ZN22QQuickTextInputPrivate13setTopPaddingEdb@Qt_5_PRIVATE_API 5.6.0
 _ZN22QQuickTextInputPrivate14internalDeleteEb@Qt_5_PRIVATE_API 5.6.0
 _ZN22QQuickTextInputPrivate14internalInsertERK7QString@Qt_5_PRIVATE_API 5.6.0
 _ZN22QQuickTextInputPrivate14parseInputMaskERK7QString@Qt_5_PRIVATE_API 5.6.0
 _ZN22QQuickTextInputPrivate14setLeftPaddingEdb@Qt_5_PRIVATE_API 5.6.0
 _ZN22QQuickTextInputPrivate15deleteEndOfLineEv@Qt_5_PRIVATE_API 5.6.0
 _ZN22QQuickTextInputPrivate15deleteEndOfWordEv@Qt_5_PRIVATE_API 5.6.0
 _ZN22QQuickTextInputPrivate15internalSetTextERK7QStringib@Qt_5_PRIVATE_API 5.6.0
 _ZN22QQuickTextInputPrivate15processKeyEventEP9QKeyEvent@Qt_5_PRIVATE_API 5.6.0
 _ZN22QQuickTextInputPrivate15selectWordAtPosEi@Qt_5_PRIVATE_API 5.6.0
 _ZN22QQuickTextInputPrivate15setRightPaddingEdb@Qt_5_PRIVATE_API 5.6.0
 _ZN22QQuickTextInputPrivate16handleFocusEventEP11QFocusEvent@Qt_5_PRIVATE_API 5.6.0
 _ZN22QQuickTextInputPrivate16setBottomPaddingEdb@Qt_5_PRIVATE_API 5.6.0
 _ZN22QQuickTextInputPrivate17deleteStartOfWordEv@Qt_5_PRIVATE_API 5.6.0
 _ZN22QQuickTextInputPrivate17separateSelectionEv@Qt_5_PRIVATE_API 5.6.0
 _ZN22QQuickTextInputPrivate17updateDisplayTextEb@Qt_5_PRIVATE_API 5.6.0
 _ZN22QQuickTextInputPrivate18removeSelectedTextEv@Qt_5_PRIVATE_API 5.6.0
 _ZN22QQuickTextInputPrivate19emitUndoRedoChangedEv@Qt_5_PRIVATE_API 5.6.0
 _ZN22QQuickTextInputPrivate20setCursorBlinkPeriodEi@Qt_5_PRIVATE_API 5.6.0
 _ZN22QQuickTextInputPrivate20updateBaselineOffsetEv@Qt_5_PRIVATE_API 5.6.0
 _ZN22QQuickTextInputPrivate20updateVerticalScrollEv@Qt_5_PRIVATE_API 5.6.0
 _ZN22QQuickTextInputPrivate22updateHorizontalScrollEv@Qt_5_PRIVATE_API 5.6.0
 _ZN22QQuickTextInputPrivate23processInputMethodEventEP17QInputMethodEvent@Qt_5_PRIVATE_API 5.6.0
 _ZN22QQuickTextInputPrivate24setImplicitResizeEnabledEb@Qt_5_PRIVATE_API 5.6.0
 _ZN22QQuickTextInputPrivate25emitCursorPositionChangedEv@Qt_5_PRIVATE_API 5.6.0
 _ZN22QQuickTextInputPrivate25updatePasswordEchoEditingEb@Qt_5_PRIVATE_API 5.6.0
 _ZN22QQuickTextInputPrivate28determineHorizontalAlignmentEv@Qt_5_PRIVATE_API 5.6.0
 _ZN22QQuickTextInputPrivate28sendMouseEventToInputContextEP11QMouseEvent@Qt_5_PRIVATE_API 5.6.0
 _ZN22QQuickTextInputPrivate3delEv@Qt_5_PRIVATE_API 5.6.0
 _ZN22QQuickTextInputPrivate4initEv@Qt_5_PRIVATE_API 5.6.0
 _ZN22QQuickTextInputPrivate5clearEv@Qt_5_PRIVATE_API 5.6.0
 _ZN22QQuickTextInputPrivate5fixupEv@Qt_5_PRIVATE_API 5.6.0
 _ZN22QQuickTextInputPrivate5pasteEN10QClipboard4ModeE@Qt_5_PRIVATE_API 5.6.0
 _ZN22QQuickTextInputPrivate6insertERK7QString@Qt_5_PRIVATE_API 5.6.0
 _ZN22QQuickTextInputPrivate9ExtraDataC1Ev@Qt_5_PRIVATE_API 5.6.0
 _ZN22QQuickTextInputPrivate9ExtraDataC2Ev@Qt_5_PRIVATE_API 5.6.0
 _ZN22QQuickTextInputPrivate9backspaceEv@Qt_5_PRIVATE_API 5.6.0
 _ZN22QQuickTextInputPrivate9setHAlignEN15QQuickTextInput10HAlignmentEb@Qt_5_PRIVATE_API 5.6.0
 _ZN22QSGShaderSourceBuilder12appendSourceERK10QByteArray@Qt_5_PRIVATE_API 5.6.0
 _ZN22QSGShaderSourceBuilder13addDefinitionERK10QByteArray@Qt_5_PRIVATE_API 5.6.0
 _ZN22QSGShaderSourceBuilder13removeVersionEv@Qt_5_PRIVATE_API 5.6.0
 _ZN22QSGShaderSourceBuilder16appendSourceFileERK7QString@Qt_5_PRIVATE_API 5.6.0
 _ZN22QSGShaderSourceBuilder26initializeProgramFromFilesEP20QOpenGLShaderProgramRK7QStringS4_@Qt_5_PRIVATE_API 5.6.0
 _ZN22QSGShaderSourceBuilder5clearEv@Qt_5_PRIVATE_API 5.6.0
 _ZN22QSGShaderSourceBuilderC1Ev@Qt_5_PRIVATE_API 5.6.0
 _ZN22QSGShaderSourceBuilderC2Ev@Qt_5_PRIVATE_API 5.6.0
 _ZN22QSGSmoothColorMaterialC1Ev@Qt_5_PRIVATE_API 5.6.0
 _ZN22QSGSmoothColorMaterialC2Ev@Qt_5_PRIVATE_API 5.6.0
 _ZN22QSGSmoothColorMaterialD0Ev@Qt_5_PRIVATE_API 5.6.0
 _ZN22QSGSmoothColorMaterialD1Ev@Qt_5_PRIVATE_API 5.6.0
 _ZN22QSGSmoothColorMaterialD2Ev@Qt_5_PRIVATE_API 5.6.0
 _ZN22QSGVertexColorMaterialC1Ev@Qt_5 5.6.0
 _ZN22QSGVertexColorMaterialC2Ev@Qt_5 5.6.0
 _ZN22QSGVertexColorMaterialD0Ev@Qt_5 5.6.0
 _ZN22QSGVertexColorMaterialD1Ev@Qt_5 5.6.0
 _ZN22QSGVertexColorMaterialD2Ev@Qt_5 5.6.0
 _ZN23QQuickAbstractAnimation10classBeginEv@Qt_5_PRIVATE_API 5.6.0
 _ZN23QQuickAbstractAnimation10setRunningEb@Qt_5_PRIVATE_API 5.6.0
 _ZN23QQuickAbstractAnimation10transitionER5QListI17QQuickStateActionERS0_I12QQmlPropertyENS_19TransitionDirectionEP7QObject@Qt_5_PRIVATE_API 5.6.0
 _ZN23QQuickAbstractAnimation11currentTimeEv@Qt_5_PRIVATE_API 5.6.0
 _ZN23QQuickAbstractAnimation11qtAnimationEv@Qt_5_PRIVATE_API 5.6.0
 _ZN23QQuickAbstractAnimation11qt_metacallEN11QMetaObject4CallEiPPv@Qt_5_PRIVATE_API 5.6.0
 _ZN23QQuickAbstractAnimation11qt_metacastEPKc@Qt_5_PRIVATE_API 5.6.0
 _ZN23QQuickAbstractAnimation12initInstanceEP21QAbstractAnimationJob@Qt_5_PRIVATE_API 5.6.0
 _ZN23QQuickAbstractAnimation13pausedChangedEb@Qt_5_PRIVATE_API 5.6.0
 _ZN23QQuickAbstractAnimation14runningChangedEb@Qt_5_PRIVATE_API 5.6.0
 _ZN23QQuickAbstractAnimation14setCurrentTimeEi@Qt_5_PRIVATE_API 5.6.0
 _ZN23QQuickAbstractAnimation16loopCountChangedEi@Qt_5_PRIVATE_API 5.6.0
 _ZN23QQuickAbstractAnimation16setDefaultTargetERK12QQmlProperty@Qt_5_PRIVATE_API 5.6.0
 _ZN23QQuickAbstractAnimation16staticMetaObjectE@Qt_5_PRIVATE_API 5.6.0
 _ZN23QQuickAbstractAnimation17componentCompleteEv@Qt_5_PRIVATE_API 5.6.0
 _ZN23QQuickAbstractAnimation17setAlwaysRunToEndEb@Qt_5_PRIVATE_API 5.6.0
 _ZN23QQuickAbstractAnimation18componentFinalizedEv@Qt_5_PRIVATE_API 5.6.0
 _ZN23QQuickAbstractAnimation20notifyRunningChangedEb@Qt_5_PRIVATE_API 5.6.0
 _ZN23QQuickAbstractAnimation20setEnableUserControlEv@Qt_5_PRIVATE_API 5.6.0
 _ZN23QQuickAbstractAnimation21alwaysRunToEndChangedEb@Qt_5_PRIVATE_API 5.6.0
 _ZN23QQuickAbstractAnimation21setDisableUserControlEv@Qt_5_PRIVATE_API 5.6.0
 _ZN23QQuickAbstractAnimation4stopEv@Qt_5_PRIVATE_API 5.6.0
 _ZN23QQuickAbstractAnimation5pauseEv@Qt_5_PRIVATE_API 5.6.0
 _ZN23QQuickAbstractAnimation5startEv@Qt_5_PRIVATE_API 5.6.0
 _ZN23QQuickAbstractAnimation6resumeEv@Qt_5_PRIVATE_API 5.6.0
 _ZN23QQuickAbstractAnimation7restartEv@Qt_5_PRIVATE_API 5.6.0
 _ZN23QQuickAbstractAnimation7startedEv@Qt_5_PRIVATE_API 5.6.0
 _ZN23QQuickAbstractAnimation7stoppedEv@Qt_5_PRIVATE_API 5.6.0
 _ZN23QQuickAbstractAnimation8completeEv@Qt_5_PRIVATE_API 5.6.0
 _ZN23QQuickAbstractAnimation8setGroupEP20QQuickAnimationGroup@Qt_5_PRIVATE_API 5.6.0
 _ZN23QQuickAbstractAnimation8setLoopsEi@Qt_5_PRIVATE_API 5.6.0
 _ZN23QQuickAbstractAnimation9setPausedEb@Qt_5_PRIVATE_API 5.6.0
 _ZN23QQuickAbstractAnimation9setTargetERK12QQmlProperty@Qt_5_PRIVATE_API 5.6.0
 _ZN23QQuickAbstractAnimationC1EP7QObject@Qt_5_PRIVATE_API 5.6.0
 _ZN23QQuickAbstractAnimationC1ER30QQuickAbstractAnimationPrivateP7QObject@Qt_5_PRIVATE_API 5.6.0
 _ZN23QQuickAbstractAnimationC2EP7QObject@Qt_5_PRIVATE_API 5.6.0
 _ZN23QQuickAbstractAnimationC2ER30QQuickAbstractAnimationPrivateP7QObject@Qt_5_PRIVATE_API 5.6.0
 _ZN23QQuickAbstractAnimationD0Ev@Qt_5_PRIVATE_API 5.6.0
 _ZN23QQuickAbstractAnimationD1Ev@Qt_5_PRIVATE_API 5.6.0
 _ZN23QQuickAbstractAnimationD2Ev@Qt_5_PRIVATE_API 5.6.0
 _ZN23QQuickFramebufferObject11qt_metacallEN11QMetaObject4CallEiPPv@Qt_5 5.6.0
 _ZN23QQuickFramebufferObject11qt_metacastEPKc@Qt_5 5.6.0
 _ZN23QQuickFramebufferObject15geometryChangedERK6QRectFS2_@Qt_5 5.6.0
 _ZN23QQuickFramebufferObject15updatePaintNodeEP7QSGNodePN10QQuickItem19UpdatePaintNodeDataE@Qt_5 5.6.0
 _ZN23QQuickFramebufferObject16releaseResourcesEv@Qt_5 5.6.0
 _ZN23QQuickFramebufferObject16staticMetaObjectE@Qt_5 5.6.0
 _ZN23QQuickFramebufferObject19setMirrorVerticallyEb@Qt_5 5.6.0
 _ZN23QQuickFramebufferObject20invalidateSceneGraphEv@Qt_5 5.6.0
 _ZN23QQuickFramebufferObject23mirrorVerticallyChangedEb@Qt_5 5.6.0
 _ZN23QQuickFramebufferObject25setTextureFollowsItemSizeEb@Qt_5 5.6.0
 _ZN23QQuickFramebufferObject29textureFollowsItemSizeChangedEb@Qt_5 5.6.0
 _ZN23QQuickFramebufferObject8Renderer11synchronizeEPS_@Qt_5_PRIVATE_API 5.6.0
 _ZN23QQuickFramebufferObject8Renderer23createFramebufferObjectERK5QSize@Qt_5_PRIVATE_API 5.6.0
 _ZN23QQuickFramebufferObject8Renderer27invalidateFramebufferObjectEv@Qt_5_PRIVATE_API 5.6.0
 _ZN23QQuickFramebufferObject8Renderer6updateEv@Qt_5_PRIVATE_API 5.6.0
 _ZN23QQuickFramebufferObject8RendererC1Ev@Qt_5_PRIVATE_API 5.6.0
 _ZN23QQuickFramebufferObject8RendererC2Ev@Qt_5_PRIVATE_API 5.6.0
 _ZN23QQuickFramebufferObject8RendererD0Ev@Qt_5_PRIVATE_API 5.6.0
 _ZN23QQuickFramebufferObject8RendererD1Ev@Qt_5_PRIVATE_API 5.6.0
 _ZN23QQuickFramebufferObject8RendererD2Ev@Qt_5_PRIVATE_API 5.6.0
 _ZN23QQuickFramebufferObjectC1EP10QQuickItem@Qt_5 5.6.0
 _ZN23QQuickFramebufferObjectC2EP10QQuickItem@Qt_5 5.6.0
 _ZN23QQuickParallelAnimation10transitionER5QListI17QQuickStateActionERS0_I12QQmlPropertyEN23QQuickAbstractAnimation19TransitionDirectionEP7QObject@Qt_5_PRIVATE_API 5.6.0
 _ZN23QQuickParallelAnimation11qt_metacallEN11QMetaObject4CallEiPPv@Qt_5_PRIVATE_API 5.6.0
 _ZN23QQuickParallelAnimation11qt_metacastEPKc@Qt_5_PRIVATE_API 5.6.0
 _ZN23QQuickParallelAnimation16staticMetaObjectE@Qt_5_PRIVATE_API 5.6.0
 _ZN23QQuickParallelAnimationC1EP7QObject@Qt_5_PRIVATE_API 5.6.0
 _ZN23QQuickParallelAnimationC2EP7QObject@Qt_5_PRIVATE_API 5.6.0
 _ZN23QQuickParallelAnimationD0Ev@Qt_5_PRIVATE_API 5.6.0
 _ZN23QQuickParallelAnimationD1Ev@Qt_5_PRIVATE_API 5.6.0
 _ZN23QQuickParallelAnimationD2Ev@Qt_5_PRIVATE_API 5.6.0
 _ZN23QQuickPropertyAnimation10transitionER5QListI17QQuickStateActionERS0_I12QQmlPropertyEN23QQuickAbstractAnimation19TransitionDirectionEP7QObject@Qt_5_PRIVATE_API 5.6.0
 _ZN23QQuickPropertyAnimation11fromChangedERK8QVariant@Qt_5_PRIVATE_API 5.6.0
 _ZN23QQuickPropertyAnimation11qt_metacallEN11QMetaObject4CallEiPPv@Qt_5_PRIVATE_API 5.6.0
 _ZN23QQuickPropertyAnimation11qt_metacastEPKc@Qt_5_PRIVATE_API 5.6.0
 _ZN23QQuickPropertyAnimation11setDurationEi@Qt_5_PRIVATE_API 5.6.0
 _ZN23QQuickPropertyAnimation11setPropertyERK7QString@Qt_5_PRIVATE_API 5.6.0
 _ZN23QQuickPropertyAnimation13easingChangedERK12QEasingCurve@Qt_5_PRIVATE_API 5.6.0
 _ZN23QQuickPropertyAnimation13setPropertiesERK7QString@Qt_5_PRIVATE_API 5.6.0
 _ZN23QQuickPropertyAnimation13targetChangedEv@Qt_5_PRIVATE_API 5.6.0
 _ZN23QQuickPropertyAnimation15durationChangedEi@Qt_5_PRIVATE_API 5.6.0
 _ZN23QQuickPropertyAnimation15propertyChangedEv@Qt_5_PRIVATE_API 5.6.0
 _ZN23QQuickPropertyAnimation15setTargetObjectEP7QObject@Qt_5_PRIVATE_API 5.6.0
 _ZN23QQuickPropertyAnimation16staticMetaObjectE@Qt_5_PRIVATE_API 5.6.0
 _ZN23QQuickPropertyAnimation17propertiesChangedERK7QString@Qt_5_PRIVATE_API 5.6.0
 _ZN23QQuickPropertyAnimation23createTransitionActionsER5QListI17QQuickStateActionERS0_I12QQmlPropertyEP7QObject@Qt_5_PRIVATE_API 5.6.0
 _ZN23QQuickPropertyAnimation5setToERK8QVariant@Qt_5_PRIVATE_API 5.6.0
 _ZN23QQuickPropertyAnimation7excludeEv@Qt_5_PRIVATE_API 5.6.0
 _ZN23QQuickPropertyAnimation7setFromERK8QVariant@Qt_5_PRIVATE_API 5.6.0
 _ZN23QQuickPropertyAnimation7targetsEv@Qt_5_PRIVATE_API 5.6.0
 _ZN23QQuickPropertyAnimation9setEasingERK12QEasingCurve@Qt_5_PRIVATE_API 5.6.0
 _ZN23QQuickPropertyAnimation9toChangedERK8QVariant@Qt_5_PRIVATE_API 5.6.0
 _ZN23QQuickPropertyAnimationC1EP7QObject@Qt_5_PRIVATE_API 5.6.0
 _ZN23QQuickPropertyAnimationC1ER30QQuickPropertyAnimationPrivateP7QObject@Qt_5_PRIVATE_API 5.6.0
 _ZN23QQuickPropertyAnimationC2EP7QObject@Qt_5_PRIVATE_API 5.6.0
 _ZN23QQuickPropertyAnimationC2ER30QQuickPropertyAnimationPrivateP7QObject@Qt_5_PRIVATE_API 5.6.0
 _ZN23QQuickPropertyAnimationD0Ev@Qt_5_PRIVATE_API 5.6.0
 _ZN23QQuickPropertyAnimationD1Ev@Qt_5_PRIVATE_API 5.6.0
 _ZN23QQuickPropertyAnimationD2Ev@Qt_5_PRIVATE_API 5.6.0
 _ZN23QQuickRotationAnimation11qt_metacallEN11QMetaObject4CallEiPPv@Qt_5_PRIVATE_API 5.6.0
 _ZN23QQuickRotationAnimation11qt_metacastEPKc@Qt_5_PRIVATE_API 5.6.0
 _ZN23QQuickRotationAnimation12setDirectionENS_17RotationDirectionE@Qt_5_PRIVATE_API 5.6.0
 _ZN23QQuickRotationAnimation16directionChangedEv@Qt_5_PRIVATE_API 5.6.0
 _ZN23QQuickRotationAnimation16staticMetaObjectE@Qt_5_PRIVATE_API 5.6.0
 _ZN23QQuickRotationAnimation5setToEd@Qt_5_PRIVATE_API 5.6.0
 _ZN23QQuickRotationAnimation7setFromEd@Qt_5_PRIVATE_API 5.6.0
 _ZN23QQuickRotationAnimationC1EP7QObject@Qt_5_PRIVATE_API 5.6.0
 _ZN23QQuickRotationAnimationC2EP7QObject@Qt_5_PRIVATE_API 5.6.0
 _ZN23QQuickRotationAnimationD0Ev@Qt_5_PRIVATE_API 5.6.0
 _ZN23QQuickRotationAnimationD1Ev@Qt_5_PRIVATE_API 5.6.0
 _ZN23QQuickRotationAnimationD2Ev@Qt_5_PRIVATE_API 5.6.0
 _ZN23QQuickTransitionManager10transitionERK5QListI17QQuickStateActionEP16QQuickTransitionP7QObject@Qt_5_PRIVATE_API 5.6.0
 _ZN23QQuickTransitionManager6cancelEv@Qt_5_PRIVATE_API 5.6.0
 _ZN23QQuickTransitionManager8completeEv@Qt_5_PRIVATE_API 5.6.0
 _ZN23QQuickTransitionManager8finishedEv@Qt_5_PRIVATE_API 5.6.0
 _ZN23QQuickTransitionManager8setStateEP11QQuickState@Qt_5_PRIVATE_API 5.6.0
 _ZN23QQuickTransitionManagerC1Ev@Qt_5_PRIVATE_API 5.6.0
 _ZN23QQuickTransitionManagerC2Ev@Qt_5_PRIVATE_API 5.6.0
 _ZN23QQuickTransitionManagerD0Ev@Qt_5_PRIVATE_API 5.6.0
 _ZN23QQuickTransitionManagerD1Ev@Qt_5_PRIVATE_API 5.6.0
 _ZN23QQuickTransitionManagerD2Ev@Qt_5_PRIVATE_API 5.6.0
 _ZN23QQuickVector3dAnimation11qt_metacallEN11QMetaObject4CallEiPPv@Qt_5_PRIVATE_API 5.6.0
 _ZN23QQuickVector3dAnimation11qt_metacastEPKc@Qt_5_PRIVATE_API 5.6.0
 _ZN23QQuickVector3dAnimation16staticMetaObjectE@Qt_5_PRIVATE_API 5.6.0
 _ZN23QQuickVector3dAnimation5setToE9QVector3D@Qt_5_PRIVATE_API 5.6.0
 _ZN23QQuickVector3dAnimation7setFromE9QVector3D@Qt_5_PRIVATE_API 5.6.0
 _ZN23QQuickVector3dAnimationC1EP7QObject@Qt_5_PRIVATE_API 5.6.0
 _ZN23QQuickVector3dAnimationC2EP7QObject@Qt_5_PRIVATE_API 5.6.0
 _ZN23QQuickVector3dAnimationD0Ev@Qt_5_PRIVATE_API 5.6.0
 _ZN23QQuickVector3dAnimationD1Ev@Qt_5_PRIVATE_API 5.6.0
 _ZN23QQuickVector3dAnimationD2Ev@Qt_5_PRIVATE_API 5.6.0
 _ZN23QSGDefaultRectangleNode10setAlignedEb@Qt_5_PRIVATE_API 5.6.0
 _ZN23QSGDefaultRectangleNode11setPenColorERK6QColor@Qt_5_PRIVATE_API 5.6.0
 _ZN23QSGDefaultRectangleNode11setPenWidthEd@Qt_5_PRIVATE_API 5.6.0
 _ZN23QSGDefaultRectangleNode14updateGeometryEv@Qt_5_PRIVATE_API 5.6.0
 _ZN23QSGDefaultRectangleNode15setAntialiasingEb@Qt_5_PRIVATE_API 5.6.0
 _ZN23QSGDefaultRectangleNode16setGradientStopsERK7QVectorI5QPairId6QColorEE@Qt_5_PRIVATE_API 5.6.0
 _ZN23QSGDefaultRectangleNode6updateEv@Qt_5_PRIVATE_API 5.6.0
 _ZN23QSGDefaultRectangleNode7setRectERK6QRectF@Qt_5_PRIVATE_API 5.6.0
 _ZN23QSGDefaultRectangleNode8setColorERK6QColor@Qt_5_PRIVATE_API 5.6.0
 _ZN23QSGDefaultRectangleNode9setRadiusEd@Qt_5_PRIVATE_API 5.6.0
 _ZN23QSGDefaultRectangleNodeC1Ev@Qt_5_PRIVATE_API 5.6.0
 _ZN23QSGDefaultRectangleNodeC2Ev@Qt_5_PRIVATE_API 5.6.0
 _ZN23QSGDefaultRectangleNodeD0Ev@Qt_5_PRIVATE_API 5.6.0
 _ZN23QSGDefaultRectangleNodeD1Ev@Qt_5_PRIVATE_API 5.6.0
 _ZN23QSGDefaultRectangleNodeD2Ev@Qt_5_PRIVATE_API 5.6.0
 _ZN24QQuickAccessibleAttached10setIgnoredEb@Qt_5_PRIVATE_API 5.6.0
 _ZN24QQuickAccessibleAttached11nameChangedEv@Qt_5_PRIVATE_API 5.6.0
 _ZN24QQuickAccessibleAttached11pressActionEv@Qt_5_PRIVATE_API 5.6.0
 _ZN24QQuickAccessibleAttached11qt_metacallEN11QMetaObject4CallEiPPv@Qt_5_PRIVATE_API 5.6.0
 _ZN24QQuickAccessibleAttached11qt_metacastEPKc@Qt_5_PRIVATE_API 5.6.0
 _ZN24QQuickAccessibleAttached11roleChangedEv@Qt_5_PRIVATE_API 5.6.0
 _ZN24QQuickAccessibleAttached11sigDecreaseE@Qt_5_PRIVATE_API 5.6.0
 _ZN24QQuickAccessibleAttached11sigIncreaseE@Qt_5_PRIVATE_API 5.6.0
 _ZN24QQuickAccessibleAttached11sigNextPageE@Qt_5_PRIVATE_API 5.6.0
 _ZN24QQuickAccessibleAttached11sigScrollUpE@Qt_5_PRIVATE_API 5.6.0
 _ZN24QQuickAccessibleAttached12toggleActionEv@Qt_5_PRIVATE_API 5.6.0
 _ZN24QQuickAccessibleAttached13sigScrollDownE@Qt_5_PRIVATE_API 5.6.0
 _ZN24QQuickAccessibleAttached13sigScrollLeftE@Qt_5_PRIVATE_API 5.6.0
 _ZN24QQuickAccessibleAttached14checkedChangedEb@Qt_5_PRIVATE_API 5.6.0
 _ZN24QQuickAccessibleAttached14decreaseActionEv@Qt_5_PRIVATE_API 5.6.0
 _ZN24QQuickAccessibleAttached14focusedChangedEb@Qt_5_PRIVATE_API 5.6.0
 _ZN24QQuickAccessibleAttached14ignoredChangedEv@Qt_5_PRIVATE_API 5.6.0
 _ZN24QQuickAccessibleAttached14increaseActionEv@Qt_5_PRIVATE_API 5.6.0
 _ZN24QQuickAccessibleAttached14nextPageActionEv@Qt_5_PRIVATE_API 5.6.0
 _ZN24QQuickAccessibleAttached14pressedChangedEb@Qt_5_PRIVATE_API 5.6.0
 _ZN24QQuickAccessibleAttached14scrollUpActionEv@Qt_5_PRIVATE_API 5.6.0
 _ZN24QQuickAccessibleAttached14sigScrollRightE@Qt_5_PRIVATE_API 5.6.0
 _ZN24QQuickAccessibleAttached15editableChangedEb@Qt_5_PRIVATE_API 5.6.0
 _ZN24QQuickAccessibleAttached15readOnlyChangedEb@Qt_5_PRIVATE_API 5.6.0
 _ZN24QQuickAccessibleAttached15selectedChangedEb@Qt_5_PRIVATE_API 5.6.0
 _ZN24QQuickAccessibleAttached15sigPreviousPageE@Qt_5_PRIVATE_API 5.6.0
 _ZN24QQuickAccessibleAttached16checkableChangedEb@Qt_5_PRIVATE_API 5.6.0
 _ZN24QQuickAccessibleAttached16focusableChangedEb@Qt_5_PRIVATE_API 5.6.0
 _ZN24QQuickAccessibleAttached16multiLineChangedEb@Qt_5_PRIVATE_API 5.6.0
 _ZN24QQuickAccessibleAttached16scrollDownActionEv@Qt_5_PRIVATE_API 5.6.0
 _ZN24QQuickAccessibleAttached16scrollLeftActionEv@Qt_5_PRIVATE_API 5.6.0
 _ZN24QQuickAccessibleAttached16staticMetaObjectE@Qt_5_PRIVATE_API 5.6.0
 _ZN24QQuickAccessibleAttached17scrollRightActionEv@Qt_5_PRIVATE_API 5.6.0
 _ZN24QQuickAccessibleAttached17searchEditChangedEb@Qt_5_PRIVATE_API 5.6.0
 _ZN24QQuickAccessibleAttached17selectableChangedEb@Qt_5_PRIVATE_API 5.6.0
 _ZN24QQuickAccessibleAttached18descriptionChangedEv@Qt_5_PRIVATE_API 5.6.0
 _ZN24QQuickAccessibleAttached18previousPageActionEv@Qt_5_PRIVATE_API 5.6.0
 _ZN24QQuickAccessibleAttached19passwordEditChangedEb@Qt_5_PRIVATE_API 5.6.0
 _ZN24QQuickAccessibleAttached20defaultButtonChangedEb@Qt_5_PRIVATE_API 5.6.0
 _ZN24QQuickAccessibleAttached21qmlAttachedPropertiesEP7QObject@Qt_5_PRIVATE_API 5.6.0
 _ZN24QQuickAccessibleAttached21selectableTextChangedEb@Qt_5_PRIVATE_API 5.6.0
 _ZN24QQuickAccessibleAttached22checkStateMixedChangedEb@Qt_5_PRIVATE_API 5.6.0
 _ZN24QQuickAccessibleAttached8doActionERK7QString@Qt_5_PRIVATE_API 5.6.0
 _ZN24QQuickAccessibleAttached8sigPressE@Qt_5_PRIVATE_API 5.6.0
 _ZN24QQuickAccessibleAttached9sigToggleE@Qt_5_PRIVATE_API 5.6.0
 _ZN24QQuickAccessibleAttachedC1EP7QObject@Qt_5_PRIVATE_API 5.6.0
 _ZN24QQuickAccessibleAttachedC2EP7QObject@Qt_5_PRIVATE_API 5.6.0
 _ZN24QQuickAccessibleAttachedD0Ev@Qt_5_PRIVATE_API 5.6.0
 _ZN24QQuickAccessibleAttachedD1Ev@Qt_5_PRIVATE_API 5.6.0
 _ZN24QQuickAccessibleAttachedD2Ev@Qt_5_PRIVATE_API 5.6.0
 _ZN24QQuickAsyncImageProviderC1Ev@Qt_5 5.6.0
 _ZN24QQuickAsyncImageProviderC2Ev@Qt_5 5.6.0
 _ZN24QQuickAsyncImageProviderD0Ev@Qt_5 5.6.0
 _ZN24QQuickAsyncImageProviderD1Ev@Qt_5 5.6.0
 _ZN24QQuickAsyncImageProviderD2Ev@Qt_5 5.6.0
 _ZN24QQuickOpacityAnimatorJob10initializeEP24QQuickAnimatorController@Qt_5_PRIVATE_API 5.6.0
 _ZN24QQuickOpacityAnimatorJob16nodeWasDestroyedEv@Qt_5_PRIVATE_API 5.6.0
 _ZN24QQuickOpacityAnimatorJob17updateCurrentTimeEi@Qt_5_PRIVATE_API 5.6.0
 _ZN24QQuickOpacityAnimatorJob9writeBackEv@Qt_5_PRIVATE_API 5.6.0
 _ZN24QQuickOpacityAnimatorJobC1Ev@Qt_5_PRIVATE_API 5.6.0
 _ZN24QQuickOpacityAnimatorJobC2Ev@Qt_5_PRIVATE_API 5.6.0
 _ZN24QQuickOpacityAnimatorJobD0Ev@Qt_5_PRIVATE_API 5.6.0
 _ZN24QQuickOpacityAnimatorJobD1Ev@Qt_5_PRIVATE_API 5.6.0
 _ZN24QQuickOpacityAnimatorJobD2Ev@Qt_5_PRIVATE_API 5.6.0
 _ZN24QQuickPaintedItemPrivateC1Ev@Qt_5_PRIVATE_API 5.6.0
 _ZN24QQuickPaintedItemPrivateC2Ev@Qt_5_PRIVATE_API 5.6.0
 _ZN24QQuickPaintedItemPrivateD0Ev@Qt_5_PRIVATE_API 5.6.0
 _ZN24QQuickPaintedItemPrivateD1Ev@Qt_5_PRIVATE_API 5.6.0
 _ZN24QQuickPaintedItemPrivateD2Ev@Qt_5_PRIVATE_API 5.6.0
 _ZN24QQuickShaderEffectCommon12updateShaderEP10QQuickItemN29QQuickShaderEffectMaterialKey10ShaderTypeE@Qt_5_PRIVATE_API 5.6.0
 _ZN24QQuickShaderEffectCommon12updateWindowEP12QQuickWindow@Qt_5_PRIVATE_API 5.6.0
 _ZN24QQuickShaderEffectCommon14updateMaterialEP22QQuickShaderEffectNodeP26QQuickShaderEffectMaterialbbb@Qt_5_PRIVATE_API 5.6.0
 _ZN24QQuickShaderEffectCommon14updateParseLogEb@Qt_5_PRIVATE_API 5.6.0
 _ZN24QQuickShaderEffectCommon15propertyChangedEP10QQuickItemiPb@Qt_5_PRIVATE_API 5.6.0
 _ZN24QQuickShaderEffectCommon15sourceDestroyedEP7QObject@Qt_5_PRIVATE_API 5.6.0
 _ZN24QQuickShaderEffectCommon21lookThroughShaderCodeEP10QQuickItemN29QQuickShaderEffectMaterialKey10ShaderTypeERK10QByteArray@Qt_5_PRIVATE_API 5.6.0
 _ZN24QQuickShaderEffectCommon22connectPropertySignalsEP10QQuickItemN29QQuickShaderEffectMaterialKey10ShaderTypeE@Qt_5_PRIVATE_API 5.6.0
 _ZN24QQuickShaderEffectCommon25disconnectPropertySignalsEP10QQuickItemN29QQuickShaderEffectMaterialKey10ShaderTypeE@Qt_5_PRIVATE_API 5.6.0
 _ZN24QQuickShaderEffectCommonD1Ev@Qt_5_PRIVATE_API 5.6.0
 _ZN24QQuickShaderEffectCommonD2Ev@Qt_5_PRIVATE_API 5.6.0
 _ZN24QQuickShaderEffectSource10itemChangeEN10QQuickItem10ItemChangeERKNS0_14ItemChangeDataE@Qt_5_PRIVATE_API 5.6.0
 _ZN24QQuickShaderEffectSource11liveChangedEv@Qt_5_PRIVATE_API 5.6.0
 _ZN24QQuickShaderEffectSource11qt_metacallEN11QMetaObject4CallEiPPv@Qt_5_PRIVATE_API 5.6.0
 _ZN24QQuickShaderEffectSource11qt_metacastEPKc@Qt_5_PRIVATE_API 5.6.0
 _ZN24QQuickShaderEffectSource11setWrapModeENS_8WrapModeE@Qt_5_PRIVATE_API 5.6.0
 _ZN24QQuickShaderEffectSource12setRecursiveEb@Qt_5_PRIVATE_API 5.6.0
 _ZN24QQuickShaderEffectSource13ensureTextureEv@Qt_5_PRIVATE_API 5.6.0
 _ZN24QQuickShaderEffectSource13formatChangedEv@Qt_5_PRIVATE_API 5.6.0
 _ZN24QQuickShaderEffectSource13mipmapChangedEv@Qt_5_PRIVATE_API 5.6.0
 _ZN24QQuickShaderEffectSource13setHideSourceEb@Qt_5_PRIVATE_API 5.6.0
 _ZN24QQuickShaderEffectSource13setSourceItemEP10QQuickItem@Qt_5_PRIVATE_API 5.6.0
 _ZN24QQuickShaderEffectSource13setSourceRectERK6QRectF@Qt_5_PRIVATE_API 5.6.0
 _ZN24QQuickShaderEffectSource14scheduleUpdateEv@Qt_5_PRIVATE_API 5.6.0
 _ZN24QQuickShaderEffectSource14setTextureSizeERK5QSize@Qt_5_PRIVATE_API 5.6.0
 _ZN24QQuickShaderEffectSource15updatePaintNodeEP7QSGNodePN10QQuickItem19UpdatePaintNodeDataE@Qt_5_PRIVATE_API 5.6.0
 _ZN24QQuickShaderEffectSource15wrapModeChangedEv@Qt_5_PRIVATE_API 5.6.0
 _ZN24QQuickShaderEffectSource16recursiveChangedEv@Qt_5_PRIVATE_API 5.6.0
 _ZN24QQuickShaderEffectSource16releaseResourcesEv@Qt_5_PRIVATE_API 5.6.0
 _ZN24QQuickShaderEffectSource16staticMetaObjectE@Qt_5_PRIVATE_API 5.6.0
 _ZN24QQuickShaderEffectSource17hideSourceChangedEv@Qt_5_PRIVATE_API 5.6.0
 _ZN24QQuickShaderEffectSource17sourceItemChangedEv@Qt_5_PRIVATE_API 5.6.0
 _ZN24QQuickShaderEffectSource17sourceRectChangedEv@Qt_5_PRIVATE_API 5.6.0
 _ZN24QQuickShaderEffectSource18textureSizeChangedEv@Qt_5_PRIVATE_API 5.6.0
 _ZN24QQuickShaderEffectSource19itemGeometryChangedEP10QQuickItemRK6QRectFS4_@Qt_5_PRIVATE_API 5.6.0
 _ZN24QQuickShaderEffectSource19setTextureMirroringENS_16TextureMirroringE@Qt_5_PRIVATE_API 5.6.0
 _ZN24QQuickShaderEffectSource19sourceItemDestroyedEP7QObject@Qt_5_PRIVATE_API 5.6.0
 _ZN24QQuickShaderEffectSource20invalidateSceneGraphEv@Qt_5_PRIVATE_API 5.6.0
 _ZN24QQuickShaderEffectSource23textureMirroringChangedEv@Qt_5_PRIVATE_API 5.6.0
 _ZN24QQuickShaderEffectSource24scheduledUpdateCompletedEv@Qt_5_PRIVATE_API 5.6.0
 _ZN24QQuickShaderEffectSource7setLiveEb@Qt_5_PRIVATE_API 5.6.0
 _ZN24QQuickShaderEffectSource9setFormatENS_6FormatE@Qt_5_PRIVATE_API 5.6.0
 _ZN24QQuickShaderEffectSource9setMipmapEb@Qt_5_PRIVATE_API 5.6.0
 _ZN24QQuickShaderEffectSourceC1EP10QQuickItem@Qt_5_PRIVATE_API 5.6.0
 _ZN24QQuickShaderEffectSourceC2EP10QQuickItem@Qt_5_PRIVATE_API 5.6.0
 _ZN24QQuickShaderEffectSourceD0Ev@Qt_5_PRIVATE_API 5.6.0
 _ZN24QQuickShaderEffectSourceD1Ev@Qt_5_PRIVATE_API 5.6.0
 _ZN24QQuickShaderEffectSourceD2Ev@Qt_5_PRIVATE_API 5.6.0
 _ZN24QQuickUniformAnimatorJob13afterNodeSyncEv@Qt_5_PRIVATE_API 5.6.0
 _ZN24QQuickUniformAnimatorJob16nodeWasDestroyedEv@Qt_5_PRIVATE_API 5.6.0
 _ZN24QQuickUniformAnimatorJob17updateCurrentTimeEi@Qt_5_PRIVATE_API 5.6.0
 _ZN24QQuickUniformAnimatorJob9setTargetEP10QQuickItem@Qt_5_PRIVATE_API 5.6.0
 _ZN24QQuickUniformAnimatorJob9writeBackEv@Qt_5_PRIVATE_API 5.6.0
 _ZN24QQuickUniformAnimatorJobC1Ev@Qt_5_PRIVATE_API 5.6.0
 _ZN24QQuickUniformAnimatorJobC2Ev@Qt_5_PRIVATE_API 5.6.0
 _ZN24QQuickUniformAnimatorJobD0Ev@Qt_5_PRIVATE_API 5.6.0
 _ZN24QQuickUniformAnimatorJobD1Ev@Qt_5_PRIVATE_API 5.6.0
 _ZN24QQuickUniformAnimatorJobD2Ev@Qt_5_PRIVATE_API 5.6.0
 _ZN24QSGOpaqueTextureMaterial10setTextureEP10QSGTexture@Qt_5 5.6.0
 _ZN24QSGOpaqueTextureMaterialC1Ev@Qt_5 5.6.0
 _ZN24QSGOpaqueTextureMaterialC2Ev@Qt_5 5.6.0
 _ZN24QSGOpaqueTextureMaterialD0Ev@Qt_5 5.6.0
 _ZN24QSGOpaqueTextureMaterialD1Ev@Qt_5 5.6.0
 _ZN24QSGOpaqueTextureMaterialD2Ev@Qt_5 5.6.0
 _ZN24QSGSmoothTextureMaterial10setTextureEP10QSGTexture@Qt_5_PRIVATE_API 5.6.0
 _ZN24QSGSmoothTextureMaterialC1Ev@Qt_5_PRIVATE_API 5.6.0
 _ZN24QSGSmoothTextureMaterialC2Ev@Qt_5_PRIVATE_API 5.6.0
 _ZN24QSGSmoothTextureMaterialD0Ev@Qt_5_PRIVATE_API 5.6.0
 _ZN24QSGSmoothTextureMaterialD1Ev@Qt_5_PRIVATE_API 5.6.0
 _ZN24QSGSmoothTextureMaterialD2Ev@Qt_5_PRIVATE_API 5.6.0
 _ZN25ComponentCompleteDisablerC1Ev@Qt_5_PRIVATE_API 5.6.0
 _ZN25ComponentCompleteDisablerC2Ev@Qt_5_PRIVATE_API 5.6.0
 _ZN25ComponentCompleteDisablerD1Ev@Qt_5_PRIVATE_API 5.6.0
 _ZN25ComponentCompleteDisablerD2Ev@Qt_5_PRIVATE_API 5.6.0
 _ZN25QQuickRotationAnimatorJob17updateCurrentTimeEi@Qt_5_PRIVATE_API 5.6.0
 _ZN25QQuickRotationAnimatorJob9writeBackEv@Qt_5_PRIVATE_API 5.6.0
 _ZN25QQuickRotationAnimatorJobC1Ev@Qt_5_PRIVATE_API 5.6.0
 _ZN25QQuickRotationAnimatorJobC2Ev@Qt_5_PRIVATE_API 5.6.0
 _ZN25QQuickRotationAnimatorJobD0Ev@Qt_5_PRIVATE_API 5.6.0
 _ZN25QQuickRotationAnimatorJobD1Ev@Qt_5_PRIVATE_API 5.6.0
 _ZN25QQuickRotationAnimatorJobD2Ev@Qt_5_PRIVATE_API 5.6.0
 _ZN26QQuickDesignerSupportItems12tweakObjectsEP7QObject@Qt_5_PRIVATE_API 5.6.0
 _ZN26QQuickDesignerSupportItems15createComponentERK4QUrlP11QQmlContext@Qt_5_PRIVATE_API 5.6.0
 _ZN26QQuickDesignerSupportItems15createPrimitiveERK7QStringiiP11QQmlContext@Qt_5_PRIVATE_API 5.6.0
 _ZN26QQuickDesignerSupportItems16disableBehaivourEP7QObject@Qt_5_PRIVATE_API 5.6.0
 _ZN26QQuickDesignerSupportItems16objectWasDeletedEP7QObject@Qt_5_PRIVATE_API 5.6.0
 _ZN26QQuickDesignerSupportItems16stopUnifiedTimerEv@Qt_5_PRIVATE_API 5.6.0
 _ZN26QQuickDesignerSupportItems17disableTextCursorEP10QQuickItem@Qt_5_PRIVATE_API 5.6.0
 _ZN26QQuickDesignerSupportItems17disableTransitionEP7QObject@Qt_5_PRIVATE_API 5.6.0
 _ZN26QQuickDesignerSupportItems26disableNativeTextRenderingEP10QQuickItem@Qt_5_PRIVATE_API 5.6.0
 _ZN26QQuickDesignerSupportItems41registerFixResourcePathsForObjectCallBackEPFvP7QObjectE@Qt_5_PRIVATE_API 5.6.0
 _ZN26QQuickItemViewTransitioner16addToTargetListsENS_14TransitionTypeEP32QQuickItemViewTransitionableItemi@Qt_5_PRIVATE_API 5.6.0
 _ZN26QQuickItemViewTransitioner16resetTargetListsEv@Qt_5_PRIVATE_API 5.6.0
 _ZN26QQuickItemViewTransitioner16transitionObjectENS_14TransitionTypeEb@Qt_5_PRIVATE_API 5.6.0
 _ZN26QQuickItemViewTransitioner18finishedTransitionEP27QQuickItemViewTransitionJobP32QQuickItemViewTransitionableItem@Qt_5_PRIVATE_API 5.6.0
 _ZN26QQuickItemViewTransitioner24transitionNextRepositionEP32QQuickItemViewTransitionableItemNS_14TransitionTypeEb@Qt_5_PRIVATE_API 5.6.0
 _ZN26QQuickItemViewTransitionerC1Ev@Qt_5_PRIVATE_API 5.6.0
 _ZN26QQuickItemViewTransitionerC2Ev@Qt_5_PRIVATE_API 5.6.0
 _ZN26QQuickItemViewTransitionerD0Ev@Qt_5_PRIVATE_API 5.6.0
 _ZN26QQuickItemViewTransitionerD1Ev@Qt_5_PRIVATE_API 5.6.0
 _ZN26QQuickItemViewTransitionerD2Ev@Qt_5_PRIVATE_API 5.6.0
 _ZN26QQuickShaderEffectMaterial16setProgramSourceERK29QQuickShaderEffectMaterialKey@Qt_5_PRIVATE_API 5.6.0
 _ZN26QQuickShaderEffectMaterial20cleanupMaterialCacheEv@Qt_5_PRIVATE_API 5.6.0
 _ZN26QQuickShaderEffectMaterial25invalidateTextureProviderEP18QSGTextureProvider@Qt_5_PRIVATE_API 5.6.0
 _ZN26QQuickShaderEffectMaterialC1EP22QQuickShaderEffectNode@Qt_5_PRIVATE_API 5.6.0
 _ZN26QQuickShaderEffectMaterialC2EP22QQuickShaderEffectNode@Qt_5_PRIVATE_API 5.6.0
 _ZN26QQuickShaderEffectMaterialD0Ev@Qt_5_PRIVATE_API 5.6.0
 _ZN26QQuickShaderEffectMaterialD1Ev@Qt_5_PRIVATE_API 5.6.0
 _ZN26QQuickShaderEffectMaterialD2Ev@Qt_5_PRIVATE_API 5.6.0
 _ZN26QSGAbstractRendererPrivateC1Ev@Qt_5_PRIVATE_API 5.6.0
 _ZN26QSGAbstractRendererPrivateC2Ev@Qt_5_PRIVATE_API 5.6.0
 _ZN26QSGAbstractRendererPrivateD0Ev@Qt_5_PRIVATE_API 5.6.0
 _ZN26QSGAbstractRendererPrivateD1Ev@Qt_5_PRIVATE_API 5.6.0
 _ZN26QSGAbstractRendererPrivateD2Ev@Qt_5_PRIVATE_API 5.6.0
 _ZN26QSGDistanceFieldGlyphCache12glyphMetricsEjd@Qt_5_PRIVATE_API 5.6.0
 _ZN26QSGDistanceFieldGlyphCache13updateTextureEjjRK5QSize@Qt_5_PRIVATE_API 5.6.0
 _ZN26QSGDistanceFieldGlyphCache14s_emptyTextureE@Qt_5_PRIVATE_API 5.6.0
 _ZN26QSGDistanceFieldGlyphCache16setGlyphsTextureERK7QVectorIjERKNS_7TextureE@Qt_5_PRIVATE_API 5.6.0
 _ZN26QSGDistanceFieldGlyphCache17setGlyphsPositionERK5QListINS_13GlyphPositionEE@Qt_5_PRIVATE_API 5.6.0
 _ZN26QSGDistanceFieldGlyphCache18markGlyphsToRenderERK7QVectorIjE@Qt_5_PRIVATE_API 5.6.0
 _ZN26QSGDistanceFieldGlyphCache20processPendingGlyphsEv@Qt_5_PRIVATE_API 5.6.0
 _ZN26QSGDistanceFieldGlyphCache20registerOwnerElementEP10QQuickItem@Qt_5_PRIVATE_API 5.6.0
 _ZN26QSGDistanceFieldGlyphCache22unregisterOwnerElementEP10QQuickItem@Qt_5_PRIVATE_API 5.6.0
 _ZN26QSGDistanceFieldGlyphCache6updateEv@Qt_5_PRIVATE_API 5.6.0
 _ZN26QSGDistanceFieldGlyphCache7releaseERK7QVectorIjE@Qt_5_PRIVATE_API 5.6.0
 _ZN26QSGDistanceFieldGlyphCache8populateERK7QVectorIjE@Qt_5_PRIVATE_API 5.6.0
 _ZN26QSGDistanceFieldGlyphCache9glyphDataEj@Qt_5_PRIVATE_API 5.6.0
 _ZN26QSGDistanceFieldGlyphCacheC1EP33QSGDistanceFieldGlyphCacheManagerP14QOpenGLContextRK8QRawFont@Qt_5_PRIVATE_API 5.6.0
 _ZN26QSGDistanceFieldGlyphCacheC2EP33QSGDistanceFieldGlyphCacheManagerP14QOpenGLContextRK8QRawFont@Qt_5_PRIVATE_API 5.6.0
 _ZN26QSGDistanceFieldGlyphCacheD0Ev@Qt_5_PRIVATE_API 5.6.0
 _ZN26QSGDistanceFieldGlyphCacheD1Ev@Qt_5_PRIVATE_API 5.6.0
 _ZN26QSGDistanceFieldGlyphCacheD2Ev@Qt_5_PRIVATE_API 5.6.0
 _ZN27QQuickDesignerSupportStates13activateStateEP7QObjectP11QQmlContext@Qt_5_PRIVATE_API 5.6.0
 _ZN27QQuickDesignerSupportStates13isStateActiveEP7QObjectP11QQmlContext@Qt_5_PRIVATE_API 5.6.0
 _ZN27QQuickDesignerSupportStates15deactivateStateEP7QObject@Qt_5_PRIVATE_API 5.6.0
 _ZN27QQuickDesignerSupportStates18resetStatePropertyEP7QObjectS1_RK10QByteArrayRK8QVariant@Qt_5_PRIVATE_API 5.6.0
 _ZN27QQuickDesignerSupportStates18updateStateBindingEP7QObjectS1_RK10QByteArrayRK7QString@Qt_5_PRIVATE_API 5.6.0
 _ZN27QQuickDesignerSupportStates23changeValueInRevertListEP7QObjectS1_RK10QByteArrayRK8QVariant@Qt_5_PRIVATE_API 5.6.0
 _ZN27QQuickKeyNavigationAttached10keyPressedEP9QKeyEventb@Qt_5_PRIVATE_API 5.6.0
 _ZN27QQuickKeyNavigationAttached10setBacktabEP10QQuickItem@Qt_5_PRIVATE_API 5.6.0
 _ZN27QQuickKeyNavigationAttached10tabChangedEv@Qt_5_PRIVATE_API 5.6.0
 _ZN27QQuickKeyNavigationAttached11downChangedEv@Qt_5_PRIVATE_API 5.6.0
 _ZN27QQuickKeyNavigationAttached11keyReleasedEP9QKeyEventb@Qt_5_PRIVATE_API 5.6.0
 _ZN27QQuickKeyNavigationAttached11leftChangedEv@Qt_5_PRIVATE_API 5.6.0
 _ZN27QQuickKeyNavigationAttached11qt_metacallEN11QMetaObject4CallEiPPv@Qt_5_PRIVATE_API 5.6.0
 _ZN27QQuickKeyNavigationAttached11qt_metacastEPKc@Qt_5_PRIVATE_API 5.6.0
 _ZN27QQuickKeyNavigationAttached11setPriorityENS_8PriorityE@Qt_5_PRIVATE_API 5.6.0
 _ZN27QQuickKeyNavigationAttached12rightChangedEv@Qt_5_PRIVATE_API 5.6.0
 _ZN27QQuickKeyNavigationAttached14backtabChangedEv@Qt_5_PRIVATE_API 5.6.0
 _ZN27QQuickKeyNavigationAttached15priorityChangedEv@Qt_5_PRIVATE_API 5.6.0
 _ZN27QQuickKeyNavigationAttached16staticMetaObjectE@Qt_5_PRIVATE_API 5.6.0
 _ZN27QQuickKeyNavigationAttached18setFocusNavigationEP10QQuickItemPKcN2Qt11FocusReasonE@Qt_5_PRIVATE_API 5.6.0
 _ZN27QQuickKeyNavigationAttached21qmlAttachedPropertiesEP7QObject@Qt_5_PRIVATE_API 5.6.0
 _ZN27QQuickKeyNavigationAttached5setUpEP10QQuickItem@Qt_5_PRIVATE_API 5.6.0
 _ZN27QQuickKeyNavigationAttached6setTabEP10QQuickItem@Qt_5_PRIVATE_API 5.6.0
 _ZN27QQuickKeyNavigationAttached7setDownEP10QQuickItem@Qt_5_PRIVATE_API 5.6.0
 _ZN27QQuickKeyNavigationAttached7setLeftEP10QQuickItem@Qt_5_PRIVATE_API 5.6.0
 _ZN27QQuickKeyNavigationAttached8setRightEP10QQuickItem@Qt_5_PRIVATE_API 5.6.0
 _ZN27QQuickKeyNavigationAttached9upChangedEv@Qt_5_PRIVATE_API 5.6.0
 _ZN27QQuickKeyNavigationAttachedC1EP7QObject@Qt_5_PRIVATE_API 5.6.0
 _ZN27QQuickKeyNavigationAttachedC2EP7QObject@Qt_5_PRIVATE_API 5.6.0
 _ZN27QQuickKeyNavigationAttachedD0Ev@Qt_5_PRIVATE_API 5.6.0
 _ZN27QQuickKeyNavigationAttachedD1Ev@Qt_5_PRIVATE_API 5.6.0
 _ZN27QQuickKeyNavigationAttachedD2Ev@Qt_5_PRIVATE_API 5.6.0
 _ZN28QSGDistanceFieldTextMaterial17updateTextureSizeEv@Qt_5_PRIVATE_API 5.6.0
 _ZN28QSGDistanceFieldTextMaterial8setColorERK6QColor@Qt_5_PRIVATE_API 5.6.0
 _ZN28QSGDistanceFieldTextMaterialC1Ev@Qt_5_PRIVATE_API 5.6.0
 _ZN28QSGDistanceFieldTextMaterialC2Ev@Qt_5_PRIVATE_API 5.6.0
 _ZN28QSGDistanceFieldTextMaterialD0Ev@Qt_5_PRIVATE_API 5.6.0
 _ZN28QSGDistanceFieldTextMaterialD1Ev@Qt_5_PRIVATE_API 5.6.0
 _ZN28QSGDistanceFieldTextMaterialD2Ev@Qt_5_PRIVATE_API 5.6.0
 _ZN29QQuickDesignerSupportMetaInfo12isSubclassOfEP7QObjectRK10QByteArray@Qt_5_PRIVATE_API 5.6.0
 _ZN29QQuickDesignerSupportMetaInfo36registerNotifyPropertyChangeCallBackEPFvP7QObjectRK10QByteArrayE@Qt_5_PRIVATE_API 5.6.0
 _ZN29QQuickImplicitSizeItemPrivate20implicitWidthChangedEv@Qt_5_PRIVATE_API 5.6.0
 _ZN29QQuickImplicitSizeItemPrivate21implicitHeightChangedEv@Qt_5_PRIVATE_API 5.6.0
 _ZN29QQuickImplicitSizeItemPrivateD0Ev@Qt_5_PRIVATE_API 5.6.0
 _ZN29QQuickImplicitSizeItemPrivateD1Ev@Qt_5_PRIVATE_API 5.6.0
 _ZN29QQuickImplicitSizeItemPrivateD2Ev@Qt_5_PRIVATE_API 5.6.0
 _ZN30QQuickAbstractAnimationPrivate14createPropertyEP7QObjectRK7QStringS1_PS2_@Qt_5_PRIVATE_API 5.6.0
 _ZN30QQuickAbstractAnimationPrivate17animationFinishedEP21QAbstractAnimationJob@Qt_5_PRIVATE_API 5.6.0
 _ZN30QQuickAbstractAnimationPrivate8commenceEv@Qt_5_PRIVATE_API 5.6.0
 _ZN30QQuickAbstractAnimationPrivateD0Ev@Qt_5_PRIVATE_API 5.6.0
 _ZN30QQuickAbstractAnimationPrivateD1Ev@Qt_5_PRIVATE_API 5.6.0
 _ZN30QQuickAbstractAnimationPrivateD2Ev@Qt_5_PRIVATE_API 5.6.0
 _ZN30QSGOpaqueTextureMaterialShader10initializeEv@Qt_5_PRIVATE_API 5.6.0
 _ZN30QSGOpaqueTextureMaterialShader11updateStateERKN17QSGMaterialShader11RenderStateEP11QSGMaterialS5_@Qt_5_PRIVATE_API 5.6.0
 _ZN30QSGOpaqueTextureMaterialShader4typeE@Qt_5_PRIVATE_API 5.6.0
 _ZN30QSGOpaqueTextureMaterialShaderC1Ev@Qt_5_PRIVATE_API 5.6.0
 _ZN30QSGOpaqueTextureMaterialShaderC2Ev@Qt_5_PRIVATE_API 5.6.0
 _ZN30QSGOpaqueTextureMaterialShaderD0Ev@Qt_5_PRIVATE_API 5.6.0
 _ZN30QSGOpaqueTextureMaterialShaderD1Ev@Qt_5_PRIVATE_API 5.6.0
 _ZN30QSGOpaqueTextureMaterialShaderD2Ev@Qt_5_PRIVATE_API 5.6.0
 _ZN31QQuickDesignerSupportProperties13getResetValueEP7QObjectRK10QByteArray@Qt_5_PRIVATE_API 5.6.0
 _ZN31QQuickDesignerSupportProperties15doResetPropertyEP7QObjectP11QQmlContextRK10QByteArray@Qt_5_PRIVATE_API 5.6.0
 _ZN31QQuickDesignerSupportProperties16allPropertyNamesEP7QObjectRK10QByteArrayP5QListIS1_E@Qt_5_PRIVATE_API 5.6.0
 _ZN31QQuickDesignerSupportProperties16getPropertyCacheEP7QObjectP10QQmlEngine@Qt_5_PRIVATE_API 5.6.0
 _ZN31QQuickDesignerSupportProperties17isPropertyQObjectERK13QMetaProperty@Qt_5_PRIVATE_API 5.6.0
 _ZN31QQuickDesignerSupportProperties18registerCustomDataEP7QObject@Qt_5_PRIVATE_API 5.6.0
 _ZN31QQuickDesignerSupportProperties18setPropertyBindingEP7QObjectP11QQmlContextRK10QByteArrayRK7QString@Qt_5_PRIVATE_API 5.6.0
 _ZN31QQuickDesignerSupportProperties19readQObjectPropertyERK13QMetaPropertyP7QObject@Qt_5_PRIVATE_API 5.6.0
 _ZN31QQuickDesignerSupportProperties20hasValidResetBindingEP7QObjectRK10QByteArray@Qt_5_PRIVATE_API 5.6.0
 _ZN31QQuickDesignerSupportProperties21hasBindingForPropertyEP7QObjectP11QQmlContextRK10QByteArrayPb@Qt_5_PRIVATE_API 5.6.0
 _ZN31QQuickDesignerSupportProperties21isPropertyBlackListedERK10QByteArray@Qt_5_PRIVATE_API 5.6.0
 _ZN31QQuickDesignerSupportProperties24createNewDynamicPropertyEP7QObjectP10QQmlEngineRK7QString@Qt_5_PRIVATE_API 5.6.0
 _ZN31QQuickDesignerSupportProperties29keepBindingFromGettingDeletedEP7QObjectP11QQmlContextRK10QByteArray@Qt_5_PRIVATE_API 5.6.0
 _ZN31QQuickDesignerSupportProperties30registerNodeInstanceMetaObjectEP7QObjectP10QQmlEngine@Qt_5_PRIVATE_API 5.6.0
 _ZN31QQuickDesignerSupportProperties31hasFullImplementedListInterfaceERK17QQmlListReference@Qt_5_PRIVATE_API 5.6.0
 _ZN31QQuickDesignerSupportProperties37propertyNameListForWritablePropertiesEP7QObjectRK10QByteArrayP5QListIS1_E@Qt_5_PRIVATE_API 5.6.0
 _ZN32QQuickItemViewTransitionableItem14stopTransitionEv@Qt_5_PRIVATE_API 5.6.0
 _ZN32QQuickItemViewTransitionableItem15startTransitionEP26QQuickItemViewTransitioneri@Qt_5_PRIVATE_API 5.6.0
 _ZN32QQuickItemViewTransitionableItem17prepareTransitionEP26QQuickItemViewTransitioneriRK6QRectF@Qt_5_PRIVATE_API 5.6.0
 _ZN32QQuickItemViewTransitionableItem17setNextTransitionEN26QQuickItemViewTransitioner14TransitionTypeEb@Qt_5_PRIVATE_API 5.6.0
 _ZN32QQuickItemViewTransitionableItem18finishedTransitionEv@Qt_5_PRIVATE_API 5.6.0
 _ZN32QQuickItemViewTransitionableItem22resetNextTransitionPosEv@Qt_5_PRIVATE_API 5.6.0
 _ZN32QQuickItemViewTransitionableItem31clearCurrentScheduledTransitionEv@Qt_5_PRIVATE_API 5.6.0
 _ZN32QQuickItemViewTransitionableItem6moveToERK7QPointFb@Qt_5_PRIVATE_API 5.6.0
 _ZN32QQuickItemViewTransitionableItemC1EP10QQuickItem@Qt_5_PRIVATE_API 5.6.0
 _ZN32QQuickItemViewTransitionableItemC2EP10QQuickItem@Qt_5_PRIVATE_API 5.6.0
 _ZN32QQuickItemViewTransitionableItemD0Ev@Qt_5_PRIVATE_API 5.6.0
 _ZN32QQuickItemViewTransitionableItemD1Ev@Qt_5_PRIVATE_API 5.6.0
 _ZN32QQuickItemViewTransitionableItemD2Ev@Qt_5_PRIVATE_API 5.6.0
 _ZN33QSGDefaultDistanceFieldGlyphCache11storeGlyphsERK5QListI14QDistanceFieldE@Qt_5_PRIVATE_API 5.6.0
 _ZN33QSGDefaultDistanceFieldGlyphCache13createTextureEPNS_11TextureInfoEii@Qt_5_PRIVATE_API 5.6.0
 _ZN33QSGDefaultDistanceFieldGlyphCache13releaseGlyphsERK4QSetIjE@Qt_5_PRIVATE_API 5.6.0
 _ZN33QSGDefaultDistanceFieldGlyphCache13requestGlyphsERK4QSetIjE@Qt_5_PRIVATE_API 5.6.0
 _ZN33QSGDefaultDistanceFieldGlyphCache13resizeTextureEPNS_11TextureInfoEii@Qt_5_PRIVATE_API 5.6.0
 _ZN33QSGDefaultDistanceFieldGlyphCache15referenceGlyphsERK4QSetIjE@Qt_5_PRIVATE_API 5.6.0
 _ZN33QSGDefaultDistanceFieldGlyphCacheC1EP33QSGDistanceFieldGlyphCacheManagerP14QOpenGLContextRK8QRawFont@Qt_5_PRIVATE_API 5.6.0
 _ZN33QSGDefaultDistanceFieldGlyphCacheC2EP33QSGDistanceFieldGlyphCacheManagerP14QOpenGLContextRK8QRawFont@Qt_5_PRIVATE_API 5.6.0
 _ZN33QSGDefaultDistanceFieldGlyphCacheD0Ev@Qt_5_PRIVATE_API 5.6.0
 _ZN33QSGDefaultDistanceFieldGlyphCacheD1Ev@Qt_5_PRIVATE_API 5.6.0
 _ZN33QSGDefaultDistanceFieldGlyphCacheD2Ev@Qt_5_PRIVATE_API 5.6.0
 _ZN33QSGDistanceFieldGlyphCacheManager11insertCacheERK8QRawFontP26QSGDistanceFieldGlyphCache@Qt_5_PRIVATE_API 5.6.0
 _ZN33QSGDistanceFieldGlyphCacheManager5cacheERK8QRawFont@Qt_5_PRIVATE_API 5.6.0
 _ZN33QSGDistanceFieldGlyphCacheManager7fontKeyERK8QRawFont@Qt_5_PRIVATE_API 5.6.0
 _ZN33QSGDistanceFieldGlyphCacheManagerC1Ev@Qt_5_PRIVATE_API 5.6.0
 _ZN33QSGDistanceFieldGlyphCacheManagerC2Ev@Qt_5_PRIVATE_API 5.6.0
 _ZN33QSGDistanceFieldGlyphCacheManagerD1Ev@Qt_5_PRIVATE_API 5.6.0
 _ZN33QSGDistanceFieldGlyphCacheManagerD2Ev@Qt_5_PRIVATE_API 5.6.0
 _ZN34QSGDistanceFieldStyledTextMaterial13setStyleColorERK6QColor@Qt_5_PRIVATE_API 5.6.0
 _ZN34QSGDistanceFieldStyledTextMaterialC1Ev@Qt_5_PRIVATE_API 5.6.0
 _ZN34QSGDistanceFieldStyledTextMaterialC2Ev@Qt_5_PRIVATE_API 5.6.0
 _ZN34QSGDistanceFieldStyledTextMaterialD0Ev@Qt_5_PRIVATE_API 5.6.0
 _ZN34QSGDistanceFieldStyledTextMaterialD1Ev@Qt_5_PRIVATE_API 5.6.0
 _ZN34QSGDistanceFieldStyledTextMaterialD2Ev@Qt_5_PRIVATE_API 5.6.0
 _ZN35QSGDistanceFieldOutlineTextMaterialC1Ev@Qt_5_PRIVATE_API 5.6.0
 _ZN35QSGDistanceFieldOutlineTextMaterialC2Ev@Qt_5_PRIVATE_API 5.6.0
 _ZN35QSGDistanceFieldOutlineTextMaterialD0Ev@Qt_5_PRIVATE_API 5.6.0
 _ZN35QSGDistanceFieldOutlineTextMaterialD1Ev@Qt_5_PRIVATE_API 5.6.0
 _ZN35QSGDistanceFieldOutlineTextMaterialD2Ev@Qt_5_PRIVATE_API 5.6.0
 _ZN36QQuickDesignerSupportPropertyChanges11changeValueEP7QObjectRK10QByteArrayRK8QVariant@Qt_5_PRIVATE_API 5.6.0
 _ZN36QQuickDesignerSupportPropertyChanges11getPropertyEP7QObjectRK10QByteArray@Qt_5_PRIVATE_API 5.6.0
 _ZN36QQuickDesignerSupportPropertyChanges11stateObjectEP7QObject@Qt_5_PRIVATE_API 5.6.0
 _ZN36QQuickDesignerSupportPropertyChanges12targetObjectEP7QObject@Qt_5_PRIVATE_API 5.6.0
 _ZN36QQuickDesignerSupportPropertyChanges13attachToStateEP7QObject@Qt_5_PRIVATE_API 5.6.0
 _ZN36QQuickDesignerSupportPropertyChanges14removePropertyEP7QObjectRK10QByteArray@Qt_5_PRIVATE_API 5.6.0
 _ZN36QQuickDesignerSupportPropertyChanges15detachFromStateEP7QObject@Qt_5_PRIVATE_API 5.6.0
 _ZN36QQuickDesignerSupportPropertyChanges16changeExpressionEP7QObjectRK10QByteArrayRK7QString@Qt_5_PRIVATE_API 5.6.0
 _ZN36QQuickDesignerSupportPropertyChanges16isNormalPropertyERK10QByteArray@Qt_5_PRIVATE_API 5.6.0
 _ZN39QSGHiQSubPixelDistanceFieldTextMaterialD0Ev@Qt_5_PRIVATE_API 5.6.0
 _ZN39QSGHiQSubPixelDistanceFieldTextMaterialD1Ev@Qt_5_PRIVATE_API 5.6.0
 _ZN39QSGHiQSubPixelDistanceFieldTextMaterialD2Ev@Qt_5_PRIVATE_API 5.6.0
 _ZN39QSGLoQSubPixelDistanceFieldTextMaterialD0Ev@Qt_5_PRIVATE_API 5.6.0
 _ZN39QSGLoQSubPixelDistanceFieldTextMaterialD1Ev@Qt_5_PRIVATE_API 5.6.0
 _ZN39QSGLoQSubPixelDistanceFieldTextMaterialD2Ev@Qt_5_PRIVATE_API 5.6.0
 _ZN40QSGDistanceFieldShiftedStyleTextMaterialC1Ev@Qt_5_PRIVATE_API 5.6.0
 _ZN40QSGDistanceFieldShiftedStyleTextMaterialC2Ev@Qt_5_PRIVATE_API 5.6.0
 _ZN40QSGDistanceFieldShiftedStyleTextMaterialD0Ev@Qt_5_PRIVATE_API 5.6.0
 _ZN40QSGDistanceFieldShiftedStyleTextMaterialD1Ev@Qt_5_PRIVATE_API 5.6.0
 _ZN40QSGDistanceFieldShiftedStyleTextMaterialD2Ev@Qt_5_PRIVATE_API 5.6.0
 _ZN7QSGNode15appendChildNodeEPS_@Qt_5 5.6.0
 _ZN7QSGNode15removeChildNodeEPS_@Qt_5 5.6.0
 _ZN7QSGNode16prependChildNodeEPS_@Qt_5 5.6.0
 _ZN7QSGNode19removeAllChildNodesEv@Qt_5 5.6.0
 _ZN7QSGNode20insertChildNodeAfterEPS_S0_@Qt_5 5.6.0
 _ZN7QSGNode20reparentChildNodesToEPS_@Qt_5 5.6.0
 _ZN7QSGNode21insertChildNodeBeforeEPS_S0_@Qt_5 5.6.0
 _ZN7QSGNode4initEv@Qt_5 5.6.0
 _ZN7QSGNode7destroyEv@Qt_5 5.6.0
 _ZN7QSGNode7setFlagENS_4FlagEb@Qt_5 5.6.0
 _ZN7QSGNode8setFlagsE6QFlagsINS_4FlagEEb@Qt_5 5.6.0
 _ZN7QSGNode9markDirtyE6QFlagsINS_13DirtyStateBitEE@Qt_5 5.6.0
 _ZN7QSGNodeC1ENS_8NodeTypeE@Qt_5 5.6.0
 _ZN7QSGNodeC1ER14QSGNodePrivateNS_8NodeTypeE@Qt_5 5.6.0
 _ZN7QSGNodeC1Ev@Qt_5 5.6.0
 _ZN7QSGNodeC2ENS_8NodeTypeE@Qt_5 5.6.0
 _ZN7QSGNodeC2ER14QSGNodePrivateNS_8NodeTypeE@Qt_5 5.6.0
 _ZN7QSGNodeC2Ev@Qt_5 5.6.0
 _ZN7QSGNodeD0Ev@Qt_5 5.6.0
 _ZN7QSGNodeD1Ev@Qt_5 5.6.0
 _ZN7QSGNodeD2Ev@Qt_5 5.6.0
 _ZN8QSGLayer11qt_metacallEN11QMetaObject4CallEiPPv@Qt_5_PRIVATE_API 5.6.0
 _ZN8QSGLayer11qt_metacastEPKc@Qt_5_PRIVATE_API 5.6.0
 _ZN8QSGLayer15updateRequestedEv@Qt_5_PRIVATE_API 5.6.0
 _ZN8QSGLayer16staticMetaObjectE@Qt_5_PRIVATE_API 5.6.0
 _ZN8QSGLayer24scheduledUpdateCompletedEv@Qt_5_PRIVATE_API 5.6.0
 _ZN9QQuickPen10penChangedEv@Qt_5_PRIVATE_API 5.6.0
 _ZN9QQuickPen11qt_metacallEN11QMetaObject4CallEiPPv@Qt_5_PRIVATE_API 5.6.0
 _ZN9QQuickPen11qt_metacastEPKc@Qt_5_PRIVATE_API 5.6.0
 _ZN9QQuickPen15setPixelAlignedEb@Qt_5_PRIVATE_API 5.6.0
 _ZN9QQuickPen16staticMetaObjectE@Qt_5_PRIVATE_API 5.6.0
 _ZN9QQuickPen8setColorERK6QColor@Qt_5_PRIVATE_API 5.6.0
 _ZN9QQuickPen8setWidthEd@Qt_5_PRIVATE_API 5.6.0
 _ZN9QQuickPenC1EP7QObject@Qt_5_PRIVATE_API 5.6.0
 _ZN9QQuickPenC2EP7QObject@Qt_5_PRIVATE_API 5.6.0
 _ZN9QQuickPenD0Ev@Qt_5_PRIVATE_API 5.6.0
 _ZN9QQuickPenD1Ev@Qt_5_PRIVATE_API 5.6.0
 _ZN9QQuickPenD2Ev@Qt_5_PRIVATE_API 5.6.0
 _ZN9QSGEngine10initializeEP14QOpenGLContext@Qt_5 5.6.0
 _ZN9QSGEngine10invalidateEv@Qt_5 5.6.0
 _ZN9QSGEngine11qt_metacallEN11QMetaObject4CallEiPPv@Qt_5 5.6.0
 _ZN9QSGEngine11qt_metacastEPKc@Qt_5 5.6.0
 _ZN9QSGEngine16staticMetaObjectE@Qt_5 5.6.0
 _ZN9QSGEngineC1EP7QObject@Qt_5 5.6.0
 _ZN9QSGEngineC2EP7QObject@Qt_5 5.6.0
 _ZN9QSGEngineD0Ev@Qt_5 5.6.0
 _ZN9QSGEngineD1Ev@Qt_5 5.6.0
 _ZN9QSGEngineD2Ev@Qt_5 5.6.0
 _ZNK10QQuickItem10childItemsEv@Qt_5 5.6.0
 _ZNK10QQuickItem10mapToSceneERK7QPointF@Qt_5 5.6.0
 _ZNK10QQuickItem10metaObjectEv@Qt_5 5.6.0
 _ZNK10QQuickItem10parentItemEv@Qt_5 5.6.0
 _ZNK10QQuickItem10widthValidEv@Qt_5 5.6.0
 _ZNK10QQuickItem11heightValidEv@Qt_5 5.6.0
 _ZNK10QQuickItem11mapFromItemEP14QQmlV4Function@Qt_5 5.6.0
 _ZNK10QQuickItem11mapFromItemEPKS_RK7QPointF@Qt_5 5.6.0
 _ZNK10QQuickItem12antialiasingEv@Qt_5 5.6.0
 _ZNK10QQuickItem12boundingRectEv@Qt_5 5.6.0
 _ZNK10QQuickItem12isFocusScopeEv@Qt_5 5.6.0
 _ZNK10QQuickItem12isUnderMouseEv@Qt_5 5.6.0
 _ZNK10QQuickItem12mapFromSceneERK7QPointF@Qt_5 5.6.0
 _ZNK10QQuickItem13implicitWidthEv@Qt_5 5.6.0
 _ZNK10QQuickItem13itemTransformEPS_Pb@Qt_5 5.6.0
 _ZNK10QQuickItem13keepMouseGrabEv@Qt_5 5.6.0
 _ZNK10QQuickItem13keepTouchGrabEv@Qt_5 5.6.0
 _ZNK10QQuickItem13mapRectToItemEPKS_RK6QRectF@Qt_5 5.6.0
 _ZNK10QQuickItem14baselineOffsetEv@Qt_5 5.6.0
 _ZNK10QQuickItem14hasActiveFocusEv@Qt_5 5.6.0
 _ZNK10QQuickItem14implicitHeightEv@Qt_5 5.6.0
 _ZNK10QQuickItem14mapRectToSceneERK6QRectF@Qt_5 5.6.0
 _ZNK10QQuickItem15mapRectFromItemEPKS_RK6QRectF@Qt_5 5.6.0
 _ZNK10QQuickItem15scopedFocusItemEv@Qt_5 5.6.0
 _ZNK10QQuickItem15textureProviderEv@Qt_5 5.6.0
 _ZNK10QQuickItem15transformOriginEv@Qt_5 5.6.0
 _ZNK10QQuickItem16activeFocusOnTabEv@Qt_5 5.6.0
 _ZNK10QQuickItem16inputMethodQueryEN2Qt16InputMethodQueryE@Qt_5 5.6.0
 _ZNK10QQuickItem16mapRectFromSceneERK6QRectF@Qt_5 5.6.0
 _ZNK10QQuickItem17acceptHoverEventsEv@Qt_5 5.6.0
 _ZNK10QQuickItem17isTextureProviderEv@Qt_5 5.6.0
 _ZNK10QQuickItem19isComponentCompleteEv@Qt_5 5.6.0
 _ZNK10QQuickItem1xEv@Qt_5 5.6.0
 _ZNK10QQuickItem1yEv@Qt_5 5.6.0
 _ZNK10QQuickItem1zEv@Qt_5 5.6.0
 _ZNK10QQuickItem20acceptedMouseButtonsEv@Qt_5 5.6.0
 _ZNK10QQuickItem20transformOriginPointEv@Qt_5 5.6.0
 _ZNK10QQuickItem23filtersChildMouseEventsEv@Qt_5 5.6.0
 _ZNK10QQuickItem4clipEv@Qt_5 5.6.0
 _ZNK10QQuickItem5flagsEv@Qt_5 5.6.0
 _ZNK10QQuickItem5scaleEv@Qt_5 5.6.0
 _ZNK10QQuickItem5stateEv@Qt_5 5.6.0
 _ZNK10QQuickItem5widthEv@Qt_5 5.6.0
 _ZNK10QQuickItem6cursorEv@Qt_5 5.6.0
 _ZNK10QQuickItem6heightEv@Qt_5 5.6.0
 _ZNK10QQuickItem6smoothEv@Qt_5 5.6.0
 _ZNK10QQuickItem6windowEv@Qt_5 5.6.0
 _ZNK10QQuickItem7childAtEdd@Qt_5 5.6.0
 _ZNK10QQuickItem7opacityEv@Qt_5 5.6.0
 _ZNK10QQuickItem8clipRectEv@Qt_5 5.6.0
 _ZNK10QQuickItem8containsERK7QPointF@Qt_5 5.6.0
 _ZNK10QQuickItem8hasFocusEv@Qt_5 5.6.0
 _ZNK10QQuickItem8positionEv@Qt_5 5.6.0
 _ZNK10QQuickItem8rotationEv@Qt_5 5.6.0
 _ZNK10QQuickItem9isEnabledEv@Qt_5 5.6.0
 _ZNK10QQuickItem9isVisibleEv@Qt_5 5.6.0
 _ZNK10QQuickItem9mapToItemEP14QQmlV4Function@Qt_5 5.6.0
 _ZNK10QQuickItem9mapToItemEPKS_RK7QPointF@Qt_5 5.6.0
 _ZNK10QQuickText10lineHeightEv@Qt_5_PRIVATE_API 5.6.0
 _ZNK10QQuickText10metaObjectEv@Qt_5_PRIVATE_API 5.6.0
 _ZNK10QQuickText10renderTypeEv@Qt_5_PRIVATE_API 5.6.0
 _ZNK10QQuickText10styleColorEv@Qt_5_PRIVATE_API 5.6.0
 _ZNK10QQuickText10textFormatEv@Qt_5_PRIVATE_API 5.6.0
 _ZNK10QQuickText10topPaddingEv@Qt_5_PRIVATE_API 5.6.0
 _ZNK10QQuickText11hoveredLinkEv@Qt_5_PRIVATE_API 5.6.0
 _ZNK10QQuickText11leftPaddingEv@Qt_5_PRIVATE_API 5.6.0
 _ZNK10QQuickText12boundingRectEv@Qt_5_PRIVATE_API 5.6.0
 _ZNK10QQuickText12contentWidthEv@Qt_5_PRIVATE_API 5.6.0
 _ZNK10QQuickText12fontSizeModeEv@Qt_5_PRIVATE_API 5.6.0
 _ZNK10QQuickText12rightPaddingEv@Qt_5_PRIVATE_API 5.6.0
 _ZNK10QQuickText13bottomPaddingEv@Qt_5_PRIVATE_API 5.6.0
 _ZNK10QQuickText13contentHeightEv@Qt_5_PRIVATE_API 5.6.0
 _ZNK10QQuickText14lineHeightModeEv@Qt_5_PRIVATE_API 5.6.0
 _ZNK10QQuickText15effectiveHAlignEv@Qt_5_PRIVATE_API 5.6.0
 _ZNK10QQuickText16maximumLineCountEv@Qt_5_PRIVATE_API 5.6.0
 _ZNK10QQuickText16minimumPixelSizeEv@Qt_5_PRIVATE_API 5.6.0
 _ZNK10QQuickText16minimumPointSizeEv@Qt_5_PRIVATE_API 5.6.0
 _ZNK10QQuickText16resourcesLoadingEv@Qt_5_PRIVATE_API 5.6.0
 _ZNK10QQuickText4fontEv@Qt_5_PRIVATE_API 5.6.0
 _ZNK10QQuickText4textEv@Qt_5_PRIVATE_API 5.6.0
 _ZNK10QQuickText5colorEv@Qt_5_PRIVATE_API 5.6.0
 _ZNK10QQuickText5styleEv@Qt_5_PRIVATE_API 5.6.0
 _ZNK10QQuickText6hAlignEv@Qt_5_PRIVATE_API 5.6.0
 _ZNK10QQuickText6linkAtEdd@Qt_5_PRIVATE_API 5.6.0
 _ZNK10QQuickText6vAlignEv@Qt_5_PRIVATE_API 5.6.0
 _ZNK10QQuickText7baseUrlEv@Qt_5_PRIVATE_API 5.6.0
 _ZNK10QQuickText7paddingEv@Qt_5_PRIVATE_API 5.6.0
 _ZNK10QQuickText8clipRectEv@Qt_5_PRIVATE_API 5.6.0
 _ZNK10QQuickText8wrapModeEv@Qt_5_PRIVATE_API 5.6.0
 _ZNK10QQuickText9elideModeEv@Qt_5_PRIVATE_API 5.6.0
 _ZNK10QQuickText9lineCountEv@Qt_5_PRIVATE_API 5.6.0
 _ZNK10QQuickText9linkColorEv@Qt_5_PRIVATE_API 5.6.0
 _ZNK10QQuickText9truncatedEv@Qt_5_PRIVATE_API 5.6.0
 _ZNK10QQuickView10metaObjectEv@Qt_5 5.6.0
 _ZNK10QQuickView10resizeModeEv@Qt_5 5.6.0
 _ZNK10QQuickView10rootObjectEv@Qt_5 5.6.0
 _ZNK10QQuickView11initialSizeEv@Qt_5 5.6.0
 _ZNK10QQuickView11rootContextEv@Qt_5 5.6.0
 _ZNK10QQuickView6engineEv@Qt_5 5.6.0
 _ZNK10QQuickView6errorsEv@Qt_5 5.6.0
 _ZNK10QQuickView6sourceEv@Qt_5 5.6.0
 _ZNK10QQuickView6statusEv@Qt_5 5.6.0
 _ZNK10QQuickView8sizeHintEv@Qt_5 5.6.0
 _ZNK10QSGContext10metaObjectEv@Qt_5_PRIVATE_API 5.6.0
 _ZNK10QSGContext14minimumFBOSizeEv@Qt_5_PRIVATE_API 5.6.0
 _ZNK10QSGContext20defaultSurfaceFormatEv@Qt_5_PRIVATE_API 5.6.0
 _ZNK10QSGContext22isDistanceFieldEnabledEv@Qt_5_PRIVATE_API 5.6.0
 _ZNK10QSGTexture10metaObjectEv@Qt_5 5.6.0
 _ZNK10QSGTexture14isAtlasTextureEv@Qt_5 5.6.0
 _ZNK10QSGTexture15mipmapFilteringEv@Qt_5 5.6.0
 _ZNK10QSGTexture16removedFromAtlasEv@Qt_5 5.6.0
 _ZNK10QSGTexture16verticalWrapModeEv@Qt_5 5.6.0
 _ZNK10QSGTexture18horizontalWrapModeEv@Qt_5 5.6.0
 _ZNK10QSGTexture24normalizedTextureSubRectEv@Qt_5 5.6.0
 _ZNK10QSGTexture9filteringEv@Qt_5 5.6.0
 _ZNK11QQuickImage10metaObjectEv@Qt_5_PRIVATE_API 5.6.0
 _ZNK11QQuickImage12boundingRectEv@Qt_5_PRIVATE_API 5.6.0
 _ZNK11QQuickImage12paintedWidthEv@Qt_5_PRIVATE_API 5.6.0
 _ZNK11QQuickImage13paintedHeightEv@Qt_5_PRIVATE_API 5.6.0
 _ZNK11QQuickImage15textureProviderEv@Qt_5_PRIVATE_API 5.6.0
 _ZNK11QQuickImage17verticalAlignmentEv@Qt_5_PRIVATE_API 5.6.0
 _ZNK11QQuickImage19horizontalAlignmentEv@Qt_5_PRIVATE_API 5.6.0
 _ZNK11QQuickImage6mipmapEv@Qt_5_PRIVATE_API 5.6.0
 _ZNK11QQuickImage8fillModeEv@Qt_5_PRIVATE_API 5.6.0
 _ZNK11QQuickState10metaObjectEv@Qt_5_PRIVATE_API 5.6.0
 _ZNK11QQuickState10stateGroupEv@Qt_5_PRIVATE_API 5.6.0
 _ZNK11QQuickState11isWhenKnownEv@Qt_5_PRIVATE_API 5.6.0
 _ZNK11QQuickState11operationAtEi@Qt_5_PRIVATE_API 5.6.0
 _ZNK11QQuickState13isStateActiveEv@Qt_5_PRIVATE_API 5.6.0
 _ZNK11QQuickState14operationCountEv@Qt_5_PRIVATE_API 5.6.0
 _ZNK11QQuickState17valueInRevertListEP7QObjectRK7QString@Qt_5_PRIVATE_API 5.6.0
 _ZNK11QQuickState19bindingInRevertListEP7QObjectRK7QString@Qt_5_PRIVATE_API 5.6.0
 _ZNK11QQuickState28containsPropertyInRevertListEP7QObjectRK7QString@Qt_5_PRIVATE_API 5.6.0
 _ZNK11QQuickState4nameEv@Qt_5_PRIVATE_API 5.6.0
 _ZNK11QQuickState4whenEv@Qt_5_PRIVATE_API 5.6.0
 _ZNK11QQuickState7extendsEv@Qt_5_PRIVATE_API 5.6.0
 _ZNK11QQuickState7isNamedEv@Qt_5_PRIVATE_API 5.6.0
 _ZNK11QSGBindable10reactivateEv@Qt_5_PRIVATE_API 5.6.0
 _ZNK11QSGBindable5clearE6QFlagsIN19QSGAbstractRenderer12ClearModeBitEE@Qt_5_PRIVATE_API 5.6.0
 _ZNK11QSGGeometry9indexDataEv@Qt_5 5.6.0
 _ZNK11QSGGeometry9lineWidthEv@Qt_5 5.6.0
 _ZNK11QSGMaterial7compareEPKS_@Qt_5 5.6.0
 _ZNK11QSGRenderer10isMirroredEv@Qt_5_PRIVATE_API 5.6.0
 _ZNK11QSGRenderer11nodeUpdaterEv@Qt_5_PRIVATE_API 5.6.0
 _ZNK12QQuickPixmap11requestSizeEv@Qt_5_PRIVATE_API 5.6.0
 _ZNK12QQuickPixmap12implicitSizeEv@Qt_5_PRIVATE_API 5.6.0
 _ZNK12QQuickPixmap13autoTransformEv@Qt_5_PRIVATE_API 5.6.0
 _ZNK12QQuickPixmap14textureFactoryEv@Qt_5_PRIVATE_API 5.6.0
 _ZNK12QQuickPixmap3urlEv@Qt_5_PRIVATE_API 5.6.0
 _ZNK12QQuickPixmap4rectEv@Qt_5_PRIVATE_API 5.6.0
 _ZNK12QQuickPixmap5errorEv@Qt_5_PRIVATE_API 5.6.0
 _ZNK12QQuickPixmap5imageEv@Qt_5_PRIVATE_API 5.6.0
 _ZNK12QQuickPixmap5widthEv@Qt_5_PRIVATE_API 5.6.0
 _ZNK12QQuickPixmap6heightEv@Qt_5_PRIVATE_API 5.6.0
 _ZNK12QQuickPixmap6isNullEv@Qt_5_PRIVATE_API 5.6.0
 _ZNK12QQuickPixmap6statusEv@Qt_5_PRIVATE_API 5.6.0
 _ZNK12QQuickPixmap7isErrorEv@Qt_5_PRIVATE_API 5.6.0
 _ZNK12QQuickPixmap7isReadyEv@Qt_5_PRIVATE_API 5.6.0
 _ZNK12QQuickPixmap9isLoadingEv@Qt_5_PRIVATE_API 5.6.0
 _ZNK12QQuickWindow10metaObjectEv@Qt_5 5.6.0
 _ZNK12QQuickWindow11contentItemEv@Qt_5 5.6.0
 _ZNK12QQuickWindow11focusObjectEv@Qt_5 5.6.0
 _ZNK12QQuickWindow12renderTargetEv@Qt_5 5.6.0
 _ZNK12QQuickWindow13openglContextEv@Qt_5 5.6.0
 _ZNK12QQuickWindow14accessibleRootEv@Qt_5 5.6.0
 _ZNK12QQuickWindow14renderTargetIdEv@Qt_5 5.6.0
 _ZNK12QQuickWindow15activeFocusItemEv@Qt_5 5.6.0
 _ZNK12QQuickWindow16mouseGrabberItemEv@Qt_5 5.6.0
 _ZNK12QQuickWindow16renderTargetSizeEv@Qt_5 5.6.0
 _ZNK12QQuickWindow19createTextureFromIdEjRK5QSize6QFlagsINS_19CreateTextureOptionEE@Qt_5 5.6.0
 _ZNK12QQuickWindow20clearBeforeRenderingEv@Qt_5 5.6.0
 _ZNK12QQuickWindow20incubationControllerEv@Qt_5 5.6.0
 _ZNK12QQuickWindow22createTextureFromImageERK6QImage6QFlagsINS_19CreateTextureOptionEE@Qt_5 5.6.0
 _ZNK12QQuickWindow22createTextureFromImageERK6QImage@Qt_5 5.6.0
 _ZNK12QQuickWindow22isPersistentSceneGraphEv@Qt_5 5.6.0
 _ZNK12QQuickWindow23isSceneGraphInitializedEv@Qt_5 5.6.0
 _ZNK12QQuickWindow25effectiveDevicePixelRatioEv@Qt_5 5.6.0
 _ZNK12QQuickWindow25isPersistentOpenGLContextEv@Qt_5 5.6.0
 _ZNK12QQuickWindow5colorEv@Qt_5 5.6.0
 _ZNK13QQuickAnchors10leftMarginEv@Qt_5_PRIVATE_API 5.6.0
 _ZNK13QQuickAnchors10metaObjectEv@Qt_5_PRIVATE_API 5.6.0
 _ZNK13QQuickAnchors11rightMarginEv@Qt_5_PRIVATE_API 5.6.0
 _ZNK13QQuickAnchors11usedAnchorsEv@Qt_5_PRIVATE_API 5.6.0
 _ZNK13QQuickAnchors12bottomMarginEv@Qt_5_PRIVATE_API 5.6.0
 _ZNK13QQuickAnchors14baselineOffsetEv@Qt_5_PRIVATE_API 5.6.0
 _ZNK13QQuickAnchors14verticalCenterEv@Qt_5_PRIVATE_API 5.6.0
 _ZNK13QQuickAnchors16horizontalCenterEv@Qt_5_PRIVATE_API 5.6.0
 _ZNK13QQuickAnchors17alignWhenCenteredEv@Qt_5_PRIVATE_API 5.6.0
 _ZNK13QQuickAnchors20verticalCenterOffsetEv@Qt_5_PRIVATE_API 5.6.0
 _ZNK13QQuickAnchors22horizontalCenterOffsetEv@Qt_5_PRIVATE_API 5.6.0
 _ZNK13QQuickAnchors3topEv@Qt_5_PRIVATE_API 5.6.0
 _ZNK13QQuickAnchors4fillEv@Qt_5_PRIVATE_API 5.6.0
 _ZNK13QQuickAnchors4leftEv@Qt_5_PRIVATE_API 5.6.0
 _ZNK13QQuickAnchors5rightEv@Qt_5_PRIVATE_API 5.6.0
 _ZNK13QQuickAnchors6bottomEv@Qt_5_PRIVATE_API 5.6.0
 _ZNK13QQuickAnchors7marginsEv@Qt_5_PRIVATE_API 5.6.0
 _ZNK13QQuickAnchors8baselineEv@Qt_5_PRIVATE_API 5.6.0
 _ZNK13QQuickAnchors8centerInEv@Qt_5_PRIVATE_API 5.6.0
 _ZNK13QQuickAnchors9topMarginEv@Qt_5_PRIVATE_API 5.6.0
 _ZNK13QSGRenderLoop10metaObjectEv@Qt_5_PRIVATE_API 5.6.0
 _ZNK13QSGRenderLoop17windowSurfaceTypeEv@Qt_5_PRIVATE_API 5.6.0
 _ZNK14QQuickAnimator10metaObjectEv@Qt_5_PRIVATE_API 5.6.0
 _ZNK14QQuickAnimator10targetItemEv@Qt_5_PRIVATE_API 5.6.0
 _ZNK14QQuickAnimator2toEv@Qt_5_PRIVATE_API 5.6.0
 _ZNK14QQuickAnimator4fromEv@Qt_5_PRIVATE_API 5.6.0
 _ZNK14QQuickAnimator6easingEv@Qt_5_PRIVATE_API 5.6.0
 _ZNK14QQuickAnimator8durationEv@Qt_5_PRIVATE_API 5.6.0
 _ZNK14QQuickBehavior10metaObjectEv@Qt_5_PRIVATE_API 5.6.0
 _ZNK14QQuickBehavior7enabledEv@Qt_5_PRIVATE_API 5.6.0
 _ZNK14QQuickGradient10metaObjectEv@Qt_5_PRIVATE_API 5.6.0
 _ZNK14QQuickGradient13gradientStopsEv@Qt_5_PRIVATE_API 5.6.0
 _ZNK14QQuickItemView10footerItemEv@Qt_5_PRIVATE_API 5.6.0
 _ZNK14QQuickItemView10headerItemEv@Qt_5_PRIVATE_API 5.6.0
 _ZNK14QQuickItemView10maxXExtentEv@Qt_5_PRIVATE_API 5.6.0
 _ZNK14QQuickItemView10maxYExtentEv@Qt_5_PRIVATE_API 5.6.0
 _ZNK14QQuickItemView10metaObjectEv@Qt_5_PRIVATE_API 5.6.0
 _ZNK14QQuickItemView10minXExtentEv@Qt_5_PRIVATE_API 5.6.0
 _ZNK14QQuickItemView10minYExtentEv@Qt_5_PRIVATE_API 5.6.0
 _ZNK14QQuickItemView11cacheBufferEv@Qt_5_PRIVATE_API 5.6.0
 _ZNK14QQuickItemView11currentItemEv@Qt_5_PRIVATE_API 5.6.0
 _ZNK14QQuickItemView12currentIndexEv@Qt_5_PRIVATE_API 5.6.0
 _ZNK14QQuickItemView13addTransitionEv@Qt_5_PRIVATE_API 5.6.0
 _ZNK14QQuickItemView13highlightItemEv@Qt_5_PRIVATE_API 5.6.0
 _ZNK14QQuickItemView13isWrapEnabledEv@Qt_5_PRIVATE_API 5.6.0
 _ZNK14QQuickItemView14moveTransitionEv@Qt_5_PRIVATE_API 5.6.0
 _ZNK14QQuickItemView15layoutDirectionEv@Qt_5_PRIVATE_API 5.6.0
 _ZNK14QQuickItemView16displayMarginEndEv@Qt_5_PRIVATE_API 5.6.0
 _ZNK14QQuickItemView16removeTransitionEv@Qt_5_PRIVATE_API 5.6.0
 _ZNK14QQuickItemView18highlightRangeModeEv@Qt_5_PRIVATE_API 5.6.0
 _ZNK14QQuickItemView18populateTransitionEv@Qt_5_PRIVATE_API 5.6.0
 _ZNK14QQuickItemView19displacedTransitionEv@Qt_5_PRIVATE_API 5.6.0
 _ZNK14QQuickItemView21highlightMoveDurationEv@Qt_5_PRIVATE_API 5.6.0
 _ZNK14QQuickItemView21preferredHighlightEndEv@Qt_5_PRIVATE_API 5.6.0
 _ZNK14QQuickItemView22addDisplacedTransitionEv@Qt_5_PRIVATE_API 5.6.0
 _ZNK14QQuickItemView22displayMarginBeginningEv@Qt_5_PRIVATE_API 5.6.0
 _ZNK14QQuickItemView23moveDisplacedTransitionEv@Qt_5_PRIVATE_API 5.6.0
 _ZNK14QQuickItemView23preferredHighlightBeginEv@Qt_5_PRIVATE_API 5.6.0
 _ZNK14QQuickItemView23verticalLayoutDirectionEv@Qt_5_PRIVATE_API 5.6.0
 _ZNK14QQuickItemView24effectiveLayoutDirectionEv@Qt_5_PRIVATE_API 5.6.0
 _ZNK14QQuickItemView25removeDisplacedTransitionEv@Qt_5_PRIVATE_API 5.6.0
 _ZNK14QQuickItemView27highlightFollowsCurrentItemEv@Qt_5_PRIVATE_API 5.6.0
 _ZNK14QQuickItemView5countEv@Qt_5_PRIVATE_API 5.6.0
 _ZNK14QQuickItemView5modelEv@Qt_5_PRIVATE_API 5.6.0
 _ZNK14QQuickItemView6footerEv@Qt_5_PRIVATE_API 5.6.0
 _ZNK14QQuickItemView6headerEv@Qt_5_PRIVATE_API 5.6.0
 _ZNK14QQuickItemView6itemAtEdd@Qt_5_PRIVATE_API 5.6.0
 _ZNK14QQuickItemView7indexAtEdd@Qt_5_PRIVATE_API 5.6.0
 _ZNK14QQuickItemView7originXEv@Qt_5_PRIVATE_API 5.6.0
 _ZNK14QQuickItemView7originYEv@Qt_5_PRIVATE_API 5.6.0
 _ZNK14QQuickItemView8delegateEv@Qt_5_PRIVATE_API 5.6.0
 _ZNK14QQuickItemView9highlightEv@Qt_5_PRIVATE_API 5.6.0
 _ZNK14QQuickProfiler10metaObjectEv@Qt_5_PRIVATE_API 5.6.0
 _ZNK14QQuickTextEdit10isReadOnlyEv@Qt_5_PRIVATE_API 5.6.0
 _ZNK14QQuickTextEdit10metaObjectEv@Qt_5_PRIVATE_API 5.6.0
 _ZNK14QQuickTextEdit10positionAtEdd@Qt_5_PRIVATE_API 5.6.0
 _ZNK14QQuickTextEdit10renderTypeEv@Qt_5_PRIVATE_API 5.6.0
 _ZNK14QQuickTextEdit10textFormatEv@Qt_5_PRIVATE_API 5.6.0
 _ZNK14QQuickTextEdit10textMarginEv@Qt_5_PRIVATE_API 5.6.0
 _ZNK14QQuickTextEdit10topPaddingEv@Qt_5_PRIVATE_API 5.6.0
 _ZNK14QQuickTextEdit11hoveredLinkEv@Qt_5_PRIVATE_API 5.6.0
 _ZNK14QQuickTextEdit11leftPaddingEv@Qt_5_PRIVATE_API 5.6.0
 _ZNK14QQuickTextEdit12boundingRectEv@Qt_5_PRIVATE_API 5.6.0
 _ZNK14QQuickTextEdit12contentWidthEv@Qt_5_PRIVATE_API 5.6.0
 _ZNK14QQuickTextEdit12focusOnPressEv@Qt_5_PRIVATE_API 5.6.0
 _ZNK14QQuickTextEdit12rightPaddingEv@Qt_5_PRIVATE_API 5.6.0
 _ZNK14QQuickTextEdit12selectedTextEv@Qt_5_PRIVATE_API 5.6.0
 _ZNK14QQuickTextEdit12selectionEndEv@Qt_5_PRIVATE_API 5.6.0
 _ZNK14QQuickTextEdit13bottomPaddingEv@Qt_5_PRIVATE_API 5.6.0
 _ZNK14QQuickTextEdit13contentHeightEv@Qt_5_PRIVATE_API 5.6.0
 _ZNK14QQuickTextEdit13selectByMouseEv@Qt_5_PRIVATE_API 5.6.0
 _ZNK14QQuickTextEdit14cursorDelegateEv@Qt_5_PRIVATE_API 5.6.0
 _ZNK14QQuickTextEdit14cursorPositionEv@Qt_5_PRIVATE_API 5.6.0
 _ZNK14QQuickTextEdit14selectionColorEv@Qt_5_PRIVATE_API 5.6.0
 _ZNK14QQuickTextEdit14selectionStartEv@Qt_5_PRIVATE_API 5.6.0
 _ZNK14QQuickTextEdit15cursorRectangleEv@Qt_5_PRIVATE_API 5.6.0
 _ZNK14QQuickTextEdit15effectiveHAlignEv@Qt_5_PRIVATE_API 5.6.0
 _ZNK14QQuickTextEdit15isCursorVisibleEv@Qt_5_PRIVATE_API 5.6.0
 _ZNK14QQuickTextEdit16getFormattedTextEii@Qt_5_PRIVATE_API 5.6.0
 _ZNK14QQuickTextEdit16inputMethodHintsEv@Qt_5_PRIVATE_API 5.6.0
 _ZNK14QQuickTextEdit16inputMethodQueryEN2Qt16InputMethodQueryE8QVariant@Qt_5_PRIVATE_API 5.6.0
 _ZNK14QQuickTextEdit16inputMethodQueryEN2Qt16InputMethodQueryE@Qt_5_PRIVATE_API 5.6.0
 _ZNK14QQuickTextEdit16selectByKeyboardEv@Qt_5_PRIVATE_API 5.6.0
 _ZNK14QQuickTextEdit17selectedTextColorEv@Qt_5_PRIVATE_API 5.6.0
 _ZNK14QQuickTextEdit18mouseSelectionModeEv@Qt_5_PRIVATE_API 5.6.0
 _ZNK14QQuickTextEdit19persistentSelectionEv@Qt_5_PRIVATE_API 5.6.0
 _ZNK14QQuickTextEdit19positionToRectangleEi@Qt_5_PRIVATE_API 5.6.0
 _ZNK14QQuickTextEdit22isInputMethodComposingEv@Qt_5_PRIVATE_API 5.6.0
 _ZNK14QQuickTextEdit4fontEv@Qt_5_PRIVATE_API 5.6.0
 _ZNK14QQuickTextEdit4textEv@Qt_5_PRIVATE_API 5.6.0
 _ZNK14QQuickTextEdit5colorEv@Qt_5_PRIVATE_API 5.6.0
 _ZNK14QQuickTextEdit6hAlignEv@Qt_5_PRIVATE_API 5.6.0
 _ZNK14QQuickTextEdit6lengthEv@Qt_5_PRIVATE_API 5.6.0
 _ZNK14QQuickTextEdit6linkAtEdd@Qt_5_PRIVATE_API 5.6.0
 _ZNK14QQuickTextEdit6vAlignEv@Qt_5_PRIVATE_API 5.6.0
 _ZNK14QQuickTextEdit7baseUrlEv@Qt_5_PRIVATE_API 5.6.0
 _ZNK14QQuickTextEdit7canRedoEv@Qt_5_PRIVATE_API 5.6.0
 _ZNK14QQuickTextEdit7canUndoEv@Qt_5_PRIVATE_API 5.6.0
 _ZNK14QQuickTextEdit7getTextEii@Qt_5_PRIVATE_API 5.6.0
 _ZNK14QQuickTextEdit7paddingEv@Qt_5_PRIVATE_API 5.6.0
 _ZNK14QQuickTextEdit8canPasteEv@Qt_5_PRIVATE_API 5.6.0
 _ZNK14QQuickTextEdit8clipRectEv@Qt_5_PRIVATE_API 5.6.0
 _ZNK14QQuickTextEdit8wrapModeEv@Qt_5_PRIVATE_API 5.6.0
 _ZNK14QQuickTextEdit9lineCountEv@Qt_5_PRIVATE_API 5.6.0
 _ZNK14QSGNodeUpdater13isNodeBlockedEP7QSGNodeS1_@Qt_5_PRIVATE_API 5.6.0
 _ZNK14QSGOpacityNode16isSubtreeBlockedEv@Qt_5 5.6.0
 _ZNK15QQuickFlickable10isDraggingEv@Qt_5_PRIVATE_API 5.6.0
 _ZNK15QQuickFlickable10isFlickingEv@Qt_5_PRIVATE_API 5.6.0
 _ZNK15QQuickFlickable10leftMarginEv@Qt_5_PRIVATE_API 5.6.0
 _ZNK15QQuickFlickable10maxXExtentEv@Qt_5_PRIVATE_API 5.6.0
 _ZNK15QQuickFlickable10maxYExtentEv@Qt_5_PRIVATE_API 5.6.0
 _ZNK15QQuickFlickable10metaObjectEv@Qt_5_PRIVATE_API 5.6.0
 _ZNK15QQuickFlickable10minXExtentEv@Qt_5_PRIVATE_API 5.6.0
 _ZNK15QQuickFlickable10minYExtentEv@Qt_5_PRIVATE_API 5.6.0
 _ZNK15QQuickFlickable10pressDelayEv@Qt_5_PRIVATE_API 5.6.0
 _ZNK15QQuickFlickable11rightMarginEv@Qt_5_PRIVATE_API 5.6.0
 _ZNK15QQuickFlickable12bottomMarginEv@Qt_5_PRIVATE_API 5.6.0
 _ZNK15QQuickFlickable12contentWidthEv@Qt_5_PRIVATE_API 5.6.0
 _ZNK15QQuickFlickable12pixelAlignedEv@Qt_5_PRIVATE_API 5.6.0
 _ZNK15QQuickFlickable13contentHeightEv@Qt_5_PRIVATE_API 5.6.0
 _ZNK15QQuickFlickable13isInteractiveEv@Qt_5_PRIVATE_API 5.6.0
 _ZNK15QQuickFlickable14boundsBehaviorEv@Qt_5_PRIVATE_API 5.6.0
 _ZNK15QQuickFlickable14isAtXBeginningEv@Qt_5_PRIVATE_API 5.6.0
 _ZNK15QQuickFlickable14isAtYBeginningEv@Qt_5_PRIVATE_API 5.6.0
 _ZNK15QQuickFlickable16verticalVelocityEv@Qt_5_PRIVATE_API 5.6.0
 _ZNK15QQuickFlickable17flickDecelerationEv@Qt_5_PRIVATE_API 5.6.0
 _ZNK15QQuickFlickable18flickableDirectionEv@Qt_5_PRIVATE_API 5.6.0
 _ZNK15QQuickFlickable18horizontalVelocityEv@Qt_5_PRIVATE_API 5.6.0
 _ZNK15QQuickFlickable18isMovingVerticallyEv@Qt_5_PRIVATE_API 5.6.0
 _ZNK15QQuickFlickable20isDraggingVerticallyEv@Qt_5_PRIVATE_API 5.6.0
 _ZNK15QQuickFlickable20isFlickingVerticallyEv@Qt_5_PRIVATE_API 5.6.0
 _ZNK15QQuickFlickable20isMovingHorizontallyEv@Qt_5_PRIVATE_API 5.6.0
 _ZNK15QQuickFlickable20maximumFlickVelocityEv@Qt_5_PRIVATE_API 5.6.0
 _ZNK15QQuickFlickable22isDraggingHorizontallyEv@Qt_5_PRIVATE_API 5.6.0
 _ZNK15QQuickFlickable22isFlickingHorizontallyEv@Qt_5_PRIVATE_API 5.6.0
 _ZNK15QQuickFlickable6vWidthEv@Qt_5_PRIVATE_API 5.6.0
 _ZNK15QQuickFlickable6xflickEv@Qt_5_PRIVATE_API 5.6.0
 _ZNK15QQuickFlickable6yflickEv@Qt_5_PRIVATE_API 5.6.0
 _ZNK15QQuickFlickable7originXEv@Qt_5_PRIVATE_API 5.6.0
 _ZNK15QQuickFlickable7originYEv@Qt_5_PRIVATE_API 5.6.0
 _ZNK15QQuickFlickable7reboundEv@Qt_5_PRIVATE_API 5.6.0
 _ZNK15QQuickFlickable7vHeightEv@Qt_5_PRIVATE_API 5.6.0
 _ZNK15QQuickFlickable8contentXEv@Qt_5_PRIVATE_API 5.6.0
 _ZNK15QQuickFlickable8contentYEv@Qt_5_PRIVATE_API 5.6.0
 _ZNK15QQuickFlickable8isAtXEndEv@Qt_5_PRIVATE_API 5.6.0
 _ZNK15QQuickFlickable8isAtYEndEv@Qt_5_PRIVATE_API 5.6.0
 _ZNK15QQuickFlickable8isMovingEv@Qt_5_PRIVATE_API 5.6.0
 _ZNK15QQuickFlickable9topMarginEv@Qt_5_PRIVATE_API 5.6.0
 _ZNK15QQuickImageBase10metaObjectEv@Qt_5_PRIVATE_API 5.6.0
 _ZNK15QQuickImageBase10sourceSizeEv@Qt_5_PRIVATE_API 5.6.0
 _ZNK15QQuickImageBase12asynchronousEv@Qt_5_PRIVATE_API 5.6.0
 _ZNK15QQuickImageBase13autoTransformEv@Qt_5_PRIVATE_API 5.6.0
 _ZNK15QQuickImageBase5cacheEv@Qt_5_PRIVATE_API 5.6.0
 _ZNK15QQuickImageBase5imageEv@Qt_5_PRIVATE_API 5.6.0
 _ZNK15QQuickImageBase6mirrorEv@Qt_5_PRIVATE_API 5.6.0
 _ZNK15QQuickImageBase6sourceEv@Qt_5_PRIVATE_API 5.6.0
 _ZNK15QQuickImageBase6statusEv@Qt_5_PRIVATE_API 5.6.0
 _ZNK15QQuickImageBase8progressEv@Qt_5_PRIVATE_API 5.6.0
 _ZNK15QQuickMouseArea10metaObjectEv@Qt_5_PRIVATE_API 5.6.0
 _ZNK15QQuickMouseArea11cursorShapeEv@Qt_5_PRIVATE_API 5.6.0
 _ZNK15QQuickMouseArea12hoverEnabledEv@Qt_5_PRIVATE_API 5.6.0
 _ZNK15QQuickMouseArea13containsPressEv@Qt_5_PRIVATE_API 5.6.0
 _ZNK15QQuickMouseArea14pressedButtonsEv@Qt_5_PRIVATE_API 5.6.0
 _ZNK15QQuickMouseArea15acceptedButtonsEv@Qt_5_PRIVATE_API 5.6.0
 _ZNK15QQuickMouseArea15preventStealingEv@Qt_5_PRIVATE_API 5.6.0
 _ZNK15QQuickMouseArea22isScrollGestureEnabledEv@Qt_5_PRIVATE_API 5.6.0
 _ZNK15QQuickMouseArea23propagateComposedEventsEv@Qt_5_PRIVATE_API 5.6.0
 _ZNK15QQuickMouseArea6mouseXEv@Qt_5_PRIVATE_API 5.6.0
 _ZNK15QQuickMouseArea6mouseYEv@Qt_5_PRIVATE_API 5.6.0
 _ZNK15QQuickMouseArea7hoveredEv@Qt_5_PRIVATE_API 5.6.0
 _ZNK15QQuickMouseArea7pressedEv@Qt_5_PRIVATE_API 5.6.0
 _ZNK15QQuickMouseArea9isEnabledEv@Qt_5_PRIVATE_API 5.6.0
 _ZNK15QQuickRectangle10metaObjectEv@Qt_5_PRIVATE_API 5.6.0
 _ZNK15QQuickRectangle5colorEv@Qt_5_PRIVATE_API 5.6.0
 _ZNK15QQuickRectangle6radiusEv@Qt_5_PRIVATE_API 5.6.0
 _ZNK15QQuickRectangle8gradientEv@Qt_5_PRIVATE_API 5.6.0
 _ZNK15QQuickTextInput10autoScrollEv@Qt_5_PRIVATE_API 5.6.0
 _ZNK15QQuickTextInput10isReadOnlyEv@Qt_5_PRIVATE_API 5.6.0
 _ZNK15QQuickTextInput10metaObjectEv@Qt_5_PRIVATE_API 5.6.0
 _ZNK15QQuickTextInput10positionAtEP14QQmlV4Function@Qt_5_PRIVATE_API 5.6.0
 _ZNK15QQuickTextInput10renderTypeEv@Qt_5_PRIVATE_API 5.6.0
 _ZNK15QQuickTextInput10topPaddingEv@Qt_5_PRIVATE_API 5.6.0
 _ZNK15QQuickTextInput11displayTextEv@Qt_5_PRIVATE_API 5.6.0
 _ZNK15QQuickTextInput11leftPaddingEv@Qt_5_PRIVATE_API 5.6.0
 _ZNK15QQuickTextInput12boundingRectEv@Qt_5_PRIVATE_API 5.6.0
 _ZNK15QQuickTextInput12contentWidthEv@Qt_5_PRIVATE_API 5.6.0
 _ZNK15QQuickTextInput12focusOnPressEv@Qt_5_PRIVATE_API 5.6.0
 _ZNK15QQuickTextInput12rightPaddingEv@Qt_5_PRIVATE_API 5.6.0
 _ZNK15QQuickTextInput12selectedTextEv@Qt_5_PRIVATE_API 5.6.0
 _ZNK15QQuickTextInput12selectionEndEv@Qt_5_PRIVATE_API 5.6.0
 _ZNK15QQuickTextInput13bottomPaddingEv@Qt_5_PRIVATE_API 5.6.0
 _ZNK15QQuickTextInput13contentHeightEv@Qt_5_PRIVATE_API 5.6.0
 _ZNK15QQuickTextInput13selectByMouseEv@Qt_5_PRIVATE_API 5.6.0
 _ZNK15QQuickTextInput14cursorDelegateEv@Qt_5_PRIVATE_API 5.6.0
 _ZNK15QQuickTextInput14cursorPositionEv@Qt_5_PRIVATE_API 5.6.0
 _ZNK15QQuickTextInput14selectionColorEv@Qt_5_PRIVATE_API 5.6.0
 _ZNK15QQuickTextInput14selectionStartEv@Qt_5_PRIVATE_API 5.6.0
 _ZNK15QQuickTextInput15cursorRectangleEv@Qt_5_PRIVATE_API 5.6.0
 _ZNK15QQuickTextInput15effectiveHAlignEv@Qt_5_PRIVATE_API 5.6.0
 _ZNK15QQuickTextInput15isCursorVisibleEv@Qt_5_PRIVATE_API 5.6.0
 _ZNK15QQuickTextInput16inputMethodHintsEv@Qt_5_PRIVATE_API 5.6.0
 _ZNK15QQuickTextInput16inputMethodQueryEN2Qt16InputMethodQueryE8QVariant@Qt_5_PRIVATE_API 5.6.0
 _ZNK15QQuickTextInput16inputMethodQueryEN2Qt16InputMethodQueryE@Qt_5_PRIVATE_API 5.6.0
 _ZNK15QQuickTextInput17passwordCharacterEv@Qt_5_PRIVATE_API 5.6.0
 _ZNK15QQuickTextInput17passwordMaskDelayEv@Qt_5_PRIVATE_API 5.6.0
 _ZNK15QQuickTextInput17selectedTextColorEv@Qt_5_PRIVATE_API 5.6.0
 _ZNK15QQuickTextInput18hasAcceptableInputEv@Qt_5_PRIVATE_API 5.6.0
 _ZNK15QQuickTextInput18mouseSelectionModeEv@Qt_5_PRIVATE_API 5.6.0
 _ZNK15QQuickTextInput19persistentSelectionEv@Qt_5_PRIVATE_API 5.6.0
 _ZNK15QQuickTextInput19positionToRectangleEi@Qt_5_PRIVATE_API 5.6.0
 _ZNK15QQuickTextInput22isInputMethodComposingEv@Qt_5_PRIVATE_API 5.6.0
 _ZNK15QQuickTextInput4fontEv@Qt_5_PRIVATE_API 5.6.0
 _ZNK15QQuickTextInput4textEv@Qt_5_PRIVATE_API 5.6.0
 _ZNK15QQuickTextInput5colorEv@Qt_5_PRIVATE_API 5.6.0
 _ZNK15QQuickTextInput6hAlignEv@Qt_5_PRIVATE_API 5.6.0
 _ZNK15QQuickTextInput6lengthEv@Qt_5_PRIVATE_API 5.6.0
 _ZNK15QQuickTextInput6vAlignEv@Qt_5_PRIVATE_API 5.6.0
 _ZNK15QQuickTextInput7canRedoEv@Qt_5_PRIVATE_API 5.6.0
 _ZNK15QQuickTextInput7canUndoEv@Qt_5_PRIVATE_API 5.6.0
 _ZNK15QQuickTextInput7getTextEii@Qt_5_PRIVATE_API 5.6.0
 _ZNK15QQuickTextInput7paddingEv@Qt_5_PRIVATE_API 5.6.0
 _ZNK15QQuickTextInput8canPasteEv@Qt_5_PRIVATE_API 5.6.0
 _ZNK15QQuickTextInput8clipRectEv@Qt_5_PRIVATE_API 5.6.0
 _ZNK15QQuickTextInput8echoModeEv@Qt_5_PRIVATE_API 5.6.0
 _ZNK15QQuickTextInput8wrapModeEv@Qt_5_PRIVATE_API 5.6.0
 _ZNK15QQuickTextInput9inputMaskEv@Qt_5_PRIVATE_API 5.6.0
 _ZNK15QQuickTextInput9maxLengthEv@Qt_5_PRIVATE_API 5.6.0
 _ZNK15QQuickTextInput9validatorEv@Qt_5_PRIVATE_API 5.6.0
 _ZNK15QQuickTransform10metaObjectEv@Qt_5 5.6.0
 _ZNK15QQuickXAnimator10metaObjectEv@Qt_5_PRIVATE_API 5.6.0
 _ZNK15QQuickXAnimator9createJobEv@Qt_5_PRIVATE_API 5.6.0
 _ZNK15QQuickYAnimator10metaObjectEv@Qt_5_PRIVATE_API 5.6.0
 _ZNK15QQuickYAnimator9createJobEv@Qt_5_PRIVATE_API 5.6.0
 _ZNK15QSGDefaultLayer10hasMipmapsEv@Qt_5_PRIVATE_API 5.6.0
 _ZNK15QSGDefaultLayer10metaObjectEv@Qt_5_PRIVATE_API 5.6.0
 _ZNK15QSGDefaultLayer15hasAlphaChannelEv@Qt_5_PRIVATE_API 5.6.0
 _ZNK15QSGDefaultLayer24normalizedTextureSubRectEv@Qt_5_PRIVATE_API 5.6.0
 _ZNK15QSGDefaultLayer7toImageEv@Qt_5_PRIVATE_API 5.6.0
 _ZNK15QSGDefaultLayer9textureIdEv@Qt_5_PRIVATE_API 5.6.0
 _ZNK15QSGGeometryNode14activeMaterialEv@Qt_5 5.6.0
 _ZNK15QSGPlainTexture10metaObjectEv@Qt_5_PRIVATE_API 5.6.0
 _ZNK15QSGPlainTexture9textureIdEv@Qt_5_PRIVATE_API 5.6.0
 _ZNK16QQuickCloseEvent10metaObjectEv@Qt_5_PRIVATE_API 5.6.0
 _ZNK16QQuickMouseEvent10metaObjectEv@Qt_5_PRIVATE_API 5.6.0
 _ZNK16QQuickStateGroup10metaObjectEv@Qt_5_PRIVATE_API 5.6.0
 _ZNK16QQuickStateGroup5stateEv@Qt_5_PRIVATE_API 5.6.0
 _ZNK16QQuickStateGroup6statesEv@Qt_5_PRIVATE_API 5.6.0
 _ZNK16QQuickStateGroup9findStateERK7QString@Qt_5_PRIVATE_API 5.6.0
 _ZNK16QQuickTransition10metaObjectEv@Qt_5_PRIVATE_API 5.6.0
 _ZNK16QQuickTransition10reversibleEv@Qt_5_PRIVATE_API 5.6.0
 _ZNK16QQuickTransition7enabledEv@Qt_5_PRIVATE_API 5.6.0
 _ZNK16QQuickTransition7runningEv@Qt_5_PRIVATE_API 5.6.0
 _ZNK16QQuickTransition7toStateEv@Qt_5_PRIVATE_API 5.6.0
 _ZNK16QQuickTransition9fromStateEv@Qt_5_PRIVATE_API 5.6.0
 _ZNK16QSGContextPlugin10metaObjectEv@Qt_5_PRIVATE_API 5.6.0
 _ZNK16QSGRenderContext10metaObjectEv@Qt_5_PRIVATE_API 5.6.0
 _ZNK16QSGRenderContext13createTextureERK6QImagej@Qt_5_PRIVATE_API 5.6.0
 _ZNK17QQuickAnimatorJob14debugAnimationE6QDebug@Qt_5_PRIVATE_API 5.6.0
 _ZNK17QQuickAnimatorJob5valueEv@Qt_5_PRIVATE_API 5.6.0
 _ZNK17QQuickItemPrivate13dirtyToStringEv@Qt_5_PRIVATE_API 5.6.0
 _ZNK17QQuickItemPrivate14accessibleRoleEv@Qt_5_PRIVATE_API 5.6.0
 _ZNK17QQuickItemPrivate14verticalCenterEv@Qt_5_PRIVATE_API 5.6.0
 _ZNK17QQuickItemPrivate16getImplicitWidthEv@Qt_5_PRIVATE_API 5.6.0
 _ZNK17QQuickItemPrivate16horizontalCenterEv@Qt_5_PRIVATE_API 5.6.0
 _ZNK17QQuickItemPrivate17getImplicitHeightEv@Qt_5_PRIVATE_API 5.6.0
 _ZNK17QQuickItemPrivate19calcEffectiveEnableEv@Qt_5_PRIVATE_API 5.6.0
 _ZNK17QQuickItemPrivate20calcEffectiveVisibleEv@Qt_5_PRIVATE_API 5.6.0
 _ZNK17QQuickItemPrivate20paintOrderChildItemsEv@Qt_5_PRIVATE_API 5.6.0
 _ZNK17QQuickItemPrivate21itemToParentTransformER10QTransform@Qt_5_PRIVATE_API 5.6.0
 _ZNK17QQuickItemPrivate21itemToWindowTransformEv@Qt_5_PRIVATE_API 5.6.0
 _ZNK17QQuickItemPrivate21windowToItemTransformEv@Qt_5_PRIVATE_API 5.6.0
 _ZNK17QQuickItemPrivate22computeTransformOriginEv@Qt_5_PRIVATE_API 5.6.0
 _ZNK17QQuickItemPrivate26isTransparentForPositionerEv@Qt_5_PRIVATE_API 5.6.0
 _ZNK17QQuickItemPrivate3topEv@Qt_5_PRIVATE_API 5.6.0
 _ZNK17QQuickItemPrivate4leftEv@Qt_5_PRIVATE_API 5.6.0
 _ZNK17QQuickItemPrivate5layerEv@Qt_5_PRIVATE_API 5.6.0
 _ZNK17QQuickItemPrivate5rightEv@Qt_5_PRIVATE_API 5.6.0
 _ZNK17QQuickItemPrivate5stateEv@Qt_5_PRIVATE_API 5.6.0
 _ZNK17QQuickItemPrivate6bottomEv@Qt_5_PRIVATE_API 5.6.0
 _ZNK17QQuickItemPrivate7anchorsEv@Qt_5_PRIVATE_API 5.6.0
 _ZNK17QQuickItemPrivate8baselineEv@Qt_5_PRIVATE_API 5.6.0
 _ZNK17QQuickPaintedItem10metaObjectEv@Qt_5 5.6.0
 _ZNK17QQuickPaintedItem11textureSizeEv@Qt_5 5.6.0
 _ZNK17QQuickPaintedItem12antialiasingEv@Qt_5 5.6.0
 _ZNK17QQuickPaintedItem12contentsSizeEv@Qt_5 5.6.0
 _ZNK17QQuickPaintedItem12renderTargetEv@Qt_5 5.6.0
 _ZNK17QQuickPaintedItem13contentsScaleEv@Qt_5 5.6.0
 _ZNK17QQuickPaintedItem14opaquePaintingEv@Qt_5 5.6.0
 _ZNK17QQuickPaintedItem15textureProviderEv@Qt_5 5.6.0
 _ZNK17QQuickPaintedItem16performanceHintsEv@Qt_5 5.6.0
 _ZNK17QQuickPaintedItem17isTextureProviderEv@Qt_5 5.6.0
 _ZNK17QQuickPaintedItem20contentsBoundingRectEv@Qt_5 5.6.0
 _ZNK17QQuickPaintedItem6mipmapEv@Qt_5 5.6.0
 _ZNK17QQuickPaintedItem9fillColorEv@Qt_5 5.6.0
 _ZNK17QQuickTextPrivate10elidedTextEdRK9QTextLinePS0_@Qt_5_PRIVATE_API 5.6.0
 _ZNK17QQuickTextPrivate14availableWidthEv@Qt_5_PRIVATE_API 5.6.0
 _ZNK17QQuickTextPrivate15availableHeightEv@Qt_5_PRIVATE_API 5.6.0
 _ZNK17QQuickTextPrivate16getImplicitWidthEv@Qt_5_PRIVATE_API 5.6.0
 _ZNK17QQuickTextPrivate16lineHeightOffsetEv@Qt_5_PRIVATE_API 5.6.0
 _ZNK17QQuickTextPrivate17getImplicitHeightEv@Qt_5_PRIVATE_API 5.6.0
 _ZNK17QQuickTextPrivate8anchorAtERK7QPointF@Qt_5_PRIVATE_API 5.6.0
 _ZNK17QSGDynamicTexture10metaObjectEv@Qt_5 5.6.0
 _ZNK17QSGMaterialShader11RenderState10deviceRectEv@Qt_5 5.6.0
 _ZNK17QSGMaterialShader11RenderState11determinantEv@Qt_5 5.6.0
 _ZNK17QSGMaterialShader11RenderState12viewportRectEv@Qt_5 5.6.0
 _ZNK17QSGMaterialShader11RenderState14combinedMatrixEv@Qt_5 5.6.0
 _ZNK17QSGMaterialShader11RenderState15modelViewMatrixEv@Qt_5 5.6.0
 _ZNK17QSGMaterialShader11RenderState16devicePixelRatioEv@Qt_5 5.6.0
 _ZNK17QSGMaterialShader11RenderState16projectionMatrixEv@Qt_5 5.6.0
 _ZNK17QSGMaterialShader11RenderState7contextEv@Qt_5 5.6.0
 _ZNK17QSGMaterialShader11RenderState7opacityEv@Qt_5 5.6.0
 _ZNK17QSGMaterialShader12vertexShaderEv@Qt_5 5.6.0
 _ZNK17QSGMaterialShader14fragmentShaderEv@Qt_5 5.6.0
 _ZNK17QSGSimpleRectNode4rectEv@Qt_5 5.6.0
 _ZNK17QSGSimpleRectNode5colorEv@Qt_5 5.6.0
 _ZNK18QQuickGradientStop10metaObjectEv@Qt_5_PRIVATE_API 5.6.0
 _ZNK18QQuickGradientStop5colorEv@Qt_5_PRIVATE_API 5.6.0
 _ZNK18QQuickGradientStop8positionEv@Qt_5_PRIVATE_API 5.6.0
 _ZNK18QQuickShaderEffect10metaObjectEv@Qt_5_PRIVATE_API 5.6.0
 _ZNK18QQuickShaderEffect4meshEv@Qt_5_PRIVATE_API 5.6.0
 _ZNK18QQuickSpriteEngine10metaObjectEv@Qt_5_PRIVATE_API 5.6.0
 _ZNK18QQuickTextDocument10metaObjectEv@Qt_5 5.6.0
 _ZNK18QQuickTextDocument12textDocumentEv@Qt_5 5.6.0
 _ZNK18QSGTextureMaterial12createShaderEv@Qt_5 5.6.0
 _ZNK18QSGTextureMaterial4typeEv@Qt_5 5.6.0
 _ZNK18QSGTextureProvider10metaObjectEv@Qt_5 5.6.0
 _ZNK19QQuickImageProvider5flagsEv@Qt_5 5.6.0
 _ZNK19QQuickImageProvider9imageTypeEv@Qt_5 5.6.0
 _ZNK19QQuickImageResponse10metaObjectEv@Qt_5 5.6.0
 _ZNK19QQuickImageResponse11errorStringEv@Qt_5 5.6.0
 _ZNK19QQuickRenderControl10metaObjectEv@Qt_5 5.6.0
 _ZNK19QQuickScaleAnimator10metaObjectEv@Qt_5_PRIVATE_API 5.6.0
 _ZNK19QQuickScaleAnimator9createJobEv@Qt_5_PRIVATE_API 5.6.0
 _ZNK19QQuickWindowPrivate12isRenderableEv@Qt_5_PRIVATE_API 5.6.0
 _ZNK19QQuickWindowQmlImpl10metaObjectEv@Qt_5_PRIVATE_API 5.6.0
 _ZNK19QSGAbstractRenderer10clearColorEv@Qt_5 5.6.0
 _ZNK19QSGAbstractRenderer10deviceRectEv@Qt_5 5.6.0
 _ZNK19QSGAbstractRenderer10metaObjectEv@Qt_5 5.6.0
 _ZNK19QSGAbstractRenderer12viewportRectEv@Qt_5 5.6.0
 _ZNK19QSGAbstractRenderer16projectionMatrixEv@Qt_5 5.6.0
 _ZNK19QSGAbstractRenderer8rootNodeEv@Qt_5 5.6.0
 _ZNK19QSGAbstractRenderer9clearModeEv@Qt_5 5.6.0
 _ZNK20QQuickAnimationGroup10metaObjectEv@Qt_5_PRIVATE_API 5.6.0
 _ZNK20QQuickBasePositioner10metaObjectEv@Qt_5_PRIVATE_API 5.6.0
 _ZNK20QQuickBasePositioner10topPaddingEv@Qt_5_PRIVATE_API 5.6.0
 _ZNK20QQuickBasePositioner11leftPaddingEv@Qt_5_PRIVATE_API 5.6.0
 _ZNK20QQuickBasePositioner12rightPaddingEv@Qt_5_PRIVATE_API 5.6.0
 _ZNK20QQuickBasePositioner13bottomPaddingEv@Qt_5_PRIVATE_API 5.6.0
 _ZNK20QQuickBasePositioner14PositionedItem5itemXEv@Qt_5_PRIVATE_API 5.6.0
 _ZNK20QQuickBasePositioner14PositionedItem5itemYEv@Qt_5_PRIVATE_API 5.6.0
 _ZNK20QQuickBasePositioner24updateAttachedPropertiesEP24QQuickPositionerAttachedP10QQuickItem@Qt_5_PRIVATE_API 5.6.0
 _ZNK20QQuickBasePositioner3addEv@Qt_5_PRIVATE_API 5.6.0
 _ZNK20QQuickBasePositioner4moveEv@Qt_5_PRIVATE_API 5.6.0
 _ZNK20QQuickBasePositioner7paddingEv@Qt_5_PRIVATE_API 5.6.0
 _ZNK20QQuickBasePositioner7spacingEv@Qt_5_PRIVATE_API 5.6.0
 _ZNK20QQuickBasePositioner8populateEv@Qt_5_PRIVATE_API 5.6.0
 _ZNK20QQuickColorAnimation10metaObjectEv@Qt_5_PRIVATE_API 5.6.0
 _ZNK20QQuickColorAnimation2toEv@Qt_5_PRIVATE_API 5.6.0
 _ZNK20QQuickColorAnimation4fromEv@Qt_5_PRIVATE_API 5.6.0
 _ZNK20QQuickItemGrabResult10metaObjectEv@Qt_5 5.6.0
 _ZNK20QQuickItemGrabResult3urlEv@Qt_5 5.6.0
 _ZNK20QQuickItemGrabResult5imageEv@Qt_5 5.6.0
 _ZNK20QQuickPauseAnimation10metaObjectEv@Qt_5_PRIVATE_API 5.6.0
 _ZNK20QQuickPauseAnimation8durationEv@Qt_5_PRIVATE_API 5.6.0
 _ZNK20QQuickStateOperation10metaObjectEv@Qt_5_PRIVATE_API 5.6.0
 _ZNK20QQuickStateOperation5stateEv@Qt_5_PRIVATE_API 5.6.0
 _ZNK20QQuickTextureFactory5imageEv@Qt_5 5.6.0
 _ZNK20QSGFlatColorMaterial12createShaderEv@Qt_5 5.6.0
 _ZNK20QSGFlatColorMaterial4typeEv@Qt_5 5.6.0
 _ZNK20QSGFlatColorMaterial7compareEPK11QSGMaterial@Qt_5 5.6.0
 _ZNK20QSGSimpleTextureNode10sourceRectEv@Qt_5 5.6.0
 _ZNK20QSGSimpleTextureNode11ownsTextureEv@Qt_5 5.6.0
 _ZNK20QSGSimpleTextureNode27textureCoordinatesTransformEv@Qt_5 5.6.0
 _ZNK20QSGSimpleTextureNode4rectEv@Qt_5 5.6.0
 _ZNK20QSGSimpleTextureNode7textureEv@Qt_5 5.6.0
 _ZNK20QSGSimpleTextureNode9filteringEv@Qt_5 5.6.0
 _ZNK21QQuickNumberAnimation10metaObjectEv@Qt_5_PRIVATE_API 5.6.0
 _ZNK21QQuickNumberAnimation2toEv@Qt_5_PRIVATE_API 5.6.0
 _ZNK21QQuickNumberAnimation4fromEv@Qt_5_PRIVATE_API 5.6.0
 _ZNK21QQuickOpacityAnimator10metaObjectEv@Qt_5_PRIVATE_API 5.6.0
 _ZNK21QQuickOpacityAnimator9createJobEv@Qt_5_PRIVATE_API 5.6.0
 _ZNK21QQuickPropertyChanges10expressionERK7QString@Qt_5_PRIVATE_API 5.6.0
 _ZNK21QQuickPropertyChanges10isExplicitEv@Qt_5_PRIVATE_API 5.6.0
 _ZNK21QQuickPropertyChanges10metaObjectEv@Qt_5_PRIVATE_API 5.6.0
 _ZNK21QQuickPropertyChanges13containsValueERK7QString@Qt_5_PRIVATE_API 5.6.0
 _ZNK21QQuickPropertyChanges16containsPropertyERK7QString@Qt_5_PRIVATE_API 5.6.0
 _ZNK21QQuickPropertyChanges18containsExpressionERK7QString@Qt_5_PRIVATE_API 5.6.0
 _ZNK21QQuickPropertyChanges18restoreEntryValuesEv@Qt_5_PRIVATE_API 5.6.0
 _ZNK21QQuickPropertyChanges5valueERK7QString@Qt_5_PRIVATE_API 5.6.0
 _ZNK21QQuickPropertyChanges6objectEv@Qt_5_PRIVATE_API 5.6.0
 _ZNK21QQuickPropertyChanges8propertyERK7QString@Qt_5_PRIVATE_API 5.6.0
 _ZNK21QQuickStochasticState10metaObjectEv@Qt_5_PRIVATE_API 5.6.0
 _ZNK21QQuickTextEditPrivate13textDirectionERK7QString@Qt_5_PRIVATE_API 5.6.0
 _ZNK21QQuickTextEditPrivate16getImplicitWidthEv@Qt_5_PRIVATE_API 5.6.0
 _ZNK21QQuickTextEditPrivate23isImplicitResizeEnabledEv@Qt_5_PRIVATE_API 5.6.0
 _ZNK21QQuickTextEditPrivate25effectiveInputMethodHintsEv@Qt_5_PRIVATE_API 5.6.0
 _ZNK21QQuickUniformAnimator10metaObjectEv@Qt_5_PRIVATE_API 5.6.0
 _ZNK21QQuickUniformAnimator12propertyNameEv@Qt_5_PRIVATE_API 5.6.0
 _ZNK21QQuickUniformAnimator7uniformEv@Qt_5_PRIVATE_API 5.6.0
 _ZNK21QQuickUniformAnimator9createJobEv@Qt_5_PRIVATE_API 5.6.0
 _ZNK21QSGDefaultPainterNode7toImageEv@Qt_5_PRIVATE_API 5.6.0
 _ZNK22QQuickAnimatorProxyJob10metaObjectEv@Qt_5_PRIVATE_API 5.6.0
 _ZNK22QQuickAnimatorProxyJob14debugAnimationE6QDebug@Qt_5_PRIVATE_API 5.6.0
 _ZNK22QQuickImplicitSizeItem10metaObjectEv@Qt_5_PRIVATE_API 5.6.0
 _ZNK22QQuickItemViewAttached10metaObjectEv@Qt_5_PRIVATE_API 5.6.0
 _ZNK22QQuickRotationAnimator10metaObjectEv@Qt_5_PRIVATE_API 5.6.0
 _ZNK22QQuickRotationAnimator9createJobEv@Qt_5_PRIVATE_API 5.6.0
 _ZNK22QQuickRotationAnimator9directionEv@Qt_5_PRIVATE_API 5.6.0
 _ZNK22QQuickShaderEffectNode10metaObjectEv@Qt_5_PRIVATE_API 5.6.0
 _ZNK22QQuickStochasticEngine10metaObjectEv@Qt_5_PRIVATE_API 5.6.0
 _ZNK22QQuickTextInputPrivate10findInMaskEibb5QChar@Qt_5_PRIVATE_API 5.6.0
 _ZNK22QQuickTextInputPrivate10maskStringEjRK7QStringb@Qt_5_PRIVATE_API 5.6.0
 _ZNK22QQuickTextInputPrivate10positionAtEddN9QTextLine14CursorPositionE@Qt_5_PRIVATE_API 5.6.0
 _ZNK22QQuickTextInputPrivate11clearStringEjj@Qt_5_PRIVATE_API 5.6.0
 _ZNK22QQuickTextInputPrivate11stripStringERK7QString@Qt_5_PRIVATE_API 5.6.0
 _ZNK22QQuickTextInputPrivate12isValidInputE5QCharS0_@Qt_5_PRIVATE_API 5.6.0
 _ZNK22QQuickTextInputPrivate13textDirectionEv@Qt_5_PRIVATE_API 5.6.0
 _ZNK22QQuickTextInputPrivate15layoutDirectionEv@Qt_5_PRIVATE_API 5.6.0
 _ZNK22QQuickTextInputPrivate16getImplicitWidthEv@Qt_5_PRIVATE_API 5.6.0
 _ZNK22QQuickTextInputPrivate18hasAcceptableInputERK7QString@Qt_5_PRIVATE_API 5.6.0
 _ZNK22QQuickTextInputPrivate23isImplicitResizeEnabledEv@Qt_5_PRIVATE_API 5.6.0
 _ZNK22QQuickTextInputPrivate25effectiveInputMethodHintsEv@Qt_5_PRIVATE_API 5.6.0
 _ZNK22QQuickTextInputPrivate4copyEN10QClipboard4ModeE@Qt_5_PRIVATE_API 5.6.0
 _ZNK22QQuickTextInputPrivate8realTextEv@Qt_5_PRIVATE_API 5.6.0
 _ZNK22QSGShaderSourceBuilder14contextProfileEv@Qt_5_PRIVATE_API 5.6.0
 _ZNK22QSGShaderSourceBuilder17resolveShaderPathERK7QString@Qt_5_PRIVATE_API 5.6.0
 _ZNK22QSGShaderSourceBuilder6sourceEv@Qt_5_PRIVATE_API 5.6.0
 _ZNK22QSGSmoothColorMaterial12createShaderEv@Qt_5_PRIVATE_API 5.6.0
 _ZNK22QSGSmoothColorMaterial4typeEv@Qt_5_PRIVATE_API 5.6.0
 _ZNK22QSGSmoothColorMaterial7compareEPK11QSGMaterial@Qt_5_PRIVATE_API 5.6.0
 _ZNK22QSGVertexColorMaterial12createShaderEv@Qt_5 5.6.0
 _ZNK22QSGVertexColorMaterial4typeEv@Qt_5 5.6.0
 _ZNK22QSGVertexColorMaterial7compareEPK11QSGMaterial@Qt_5 5.6.0
 _ZNK23QQuickAbstractAnimation10metaObjectEv@Qt_5_PRIVATE_API 5.6.0
 _ZNK23QQuickAbstractAnimation14alwaysRunToEndEv@Qt_5_PRIVATE_API 5.6.0
 _ZNK23QQuickAbstractAnimation14threadingModelEv@Qt_5_PRIVATE_API 5.6.0
 _ZNK23QQuickAbstractAnimation19userControlDisabledEv@Qt_5_PRIVATE_API 5.6.0
 _ZNK23QQuickAbstractAnimation5groupEv@Qt_5_PRIVATE_API 5.6.0
 _ZNK23QQuickAbstractAnimation5loopsEv@Qt_5_PRIVATE_API 5.6.0
 _ZNK23QQuickAbstractAnimation8durationEv@Qt_5_PRIVATE_API 5.6.0
 _ZNK23QQuickAbstractAnimation8isPausedEv@Qt_5_PRIVATE_API 5.6.0
 _ZNK23QQuickAbstractAnimation9isRunningEv@Qt_5_PRIVATE_API 5.6.0
 _ZNK23QQuickFramebufferObject10metaObjectEv@Qt_5 5.6.0
 _ZNK23QQuickFramebufferObject15textureProviderEv@Qt_5 5.6.0
 _ZNK23QQuickFramebufferObject16mirrorVerticallyEv@Qt_5 5.6.0
 _ZNK23QQuickFramebufferObject17isTextureProviderEv@Qt_5 5.6.0
 _ZNK23QQuickFramebufferObject22textureFollowsItemSizeEv@Qt_5 5.6.0
 _ZNK23QQuickFramebufferObject8Renderer17framebufferObjectEv@Qt_5_PRIVATE_API 5.6.0
 _ZNK23QQuickParallelAnimation10metaObjectEv@Qt_5_PRIVATE_API 5.6.0
 _ZNK23QQuickParallelAnimation14threadingModelEv@Qt_5_PRIVATE_API 5.6.0
 _ZNK23QQuickPropertyAnimation10metaObjectEv@Qt_5_PRIVATE_API 5.6.0
 _ZNK23QQuickPropertyAnimation10propertiesEv@Qt_5_PRIVATE_API 5.6.0
 _ZNK23QQuickPropertyAnimation2toEv@Qt_5_PRIVATE_API 5.6.0
 _ZNK23QQuickPropertyAnimation4fromEv@Qt_5_PRIVATE_API 5.6.0
 _ZNK23QQuickPropertyAnimation6easingEv@Qt_5_PRIVATE_API 5.6.0
 _ZNK23QQuickPropertyAnimation6targetEv@Qt_5_PRIVATE_API 5.6.0
 _ZNK23QQuickPropertyAnimation8durationEv@Qt_5_PRIVATE_API 5.6.0
 _ZNK23QQuickPropertyAnimation8propertyEv@Qt_5_PRIVATE_API 5.6.0
 _ZNK23QQuickRotationAnimation10metaObjectEv@Qt_5_PRIVATE_API 5.6.0
 _ZNK23QQuickRotationAnimation2toEv@Qt_5_PRIVATE_API 5.6.0
 _ZNK23QQuickRotationAnimation4fromEv@Qt_5_PRIVATE_API 5.6.0
 _ZNK23QQuickRotationAnimation9directionEv@Qt_5_PRIVATE_API 5.6.0
 _ZNK23QQuickTransitionManager9isRunningEv@Qt_5_PRIVATE_API 5.6.0
 _ZNK23QQuickVector3dAnimation10metaObjectEv@Qt_5_PRIVATE_API 5.6.0
 _ZNK23QQuickVector3dAnimation2toEv@Qt_5_PRIVATE_API 5.6.0
 _ZNK23QQuickVector3dAnimation4fromEv@Qt_5_PRIVATE_API 5.6.0
 _ZNK24QQuickAccessibleAttached10metaObjectEv@Qt_5_PRIVATE_API 5.6.0
 _ZNK24QQuickAccessibleAttached16availableActionsEP11QStringList@Qt_5_PRIVATE_API 5.6.0
 _ZNK24QQuickAccessibleAttached7ignoredEv@Qt_5_PRIVATE_API 5.6.0
 _ZNK24QQuickShaderEffectSource10hideSourceEv@Qt_5_PRIVATE_API 5.6.0
 _ZNK24QQuickShaderEffectSource10metaObjectEv@Qt_5_PRIVATE_API 5.6.0
 _ZNK24QQuickShaderEffectSource10sourceItemEv@Qt_5_PRIVATE_API 5.6.0
 _ZNK24QQuickShaderEffectSource10sourceRectEv@Qt_5_PRIVATE_API 5.6.0
 _ZNK24QQuickShaderEffectSource11textureSizeEv@Qt_5_PRIVATE_API 5.6.0
 _ZNK24QQuickShaderEffectSource15textureProviderEv@Qt_5_PRIVATE_API 5.6.0
 _ZNK24QQuickShaderEffectSource16textureMirroringEv@Qt_5_PRIVATE_API 5.6.0
 _ZNK24QQuickShaderEffectSource4liveEv@Qt_5_PRIVATE_API 5.6.0
 _ZNK24QQuickShaderEffectSource6formatEv@Qt_5_PRIVATE_API 5.6.0
 _ZNK24QQuickShaderEffectSource6mipmapEv@Qt_5_PRIVATE_API 5.6.0
 _ZNK24QQuickShaderEffectSource8wrapModeEv@Qt_5_PRIVATE_API 5.6.0
 _ZNK24QQuickShaderEffectSource9recursiveEv@Qt_5_PRIVATE_API 5.6.0
 _ZNK24QSGMaterialShaderPrivate16loadShaderSourceE6QFlagsIN13QOpenGLShader13ShaderTypeBitEE@Qt_5_PRIVATE_API 5.6.0
 _ZNK24QSGOpaqueTextureMaterial12createShaderEv@Qt_5 5.6.0
 _ZNK24QSGOpaqueTextureMaterial4typeEv@Qt_5 5.6.0
 _ZNK24QSGOpaqueTextureMaterial7compareEPK11QSGMaterial@Qt_5 5.6.0
 _ZNK24QSGSmoothTextureMaterial12createShaderEv@Qt_5_PRIVATE_API 5.6.0
 _ZNK24QSGSmoothTextureMaterial4typeEv@Qt_5_PRIVATE_API 5.6.0
 _ZNK26QQuickItemViewTransitioner11targetItemsENS_14TransitionTypeE@Qt_5_PRIVATE_API 5.6.0
 _ZNK26QQuickItemViewTransitioner13canTransitionENS_14TransitionTypeEb@Qt_5_PRIVATE_API 5.6.0
 _ZNK26QQuickItemViewTransitioner13targetIndexesENS_14TransitionTypeE@Qt_5_PRIVATE_API 5.6.0
 _ZNK26QQuickShaderEffectMaterial11UniformDataeqERKS0_@Qt_5_PRIVATE_API 5.6.0
 _ZNK26QQuickShaderEffectMaterial12createShaderEv@Qt_5_PRIVATE_API 5.6.0
 _ZNK26QQuickShaderEffectMaterial14updateTexturesEv@Qt_5_PRIVATE_API 5.6.0
 _ZNK26QQuickShaderEffectMaterial4typeEv@Qt_5_PRIVATE_API 5.6.0
 _ZNK26QQuickShaderEffectMaterial7compareEPK11QSGMaterial@Qt_5_PRIVATE_API 5.6.0
 _ZNK27QQuickKeyNavigationAttached10metaObjectEv@Qt_5_PRIVATE_API 5.6.0
 _ZNK27QQuickKeyNavigationAttached2upEv@Qt_5_PRIVATE_API 5.6.0
 _ZNK27QQuickKeyNavigationAttached3tabEv@Qt_5_PRIVATE_API 5.6.0
 _ZNK27QQuickKeyNavigationAttached4downEv@Qt_5_PRIVATE_API 5.6.0
 _ZNK27QQuickKeyNavigationAttached4leftEv@Qt_5_PRIVATE_API 5.6.0
 _ZNK27QQuickKeyNavigationAttached5rightEv@Qt_5_PRIVATE_API 5.6.0
 _ZNK27QQuickKeyNavigationAttached7backtabEv@Qt_5_PRIVATE_API 5.6.0
 _ZNK27QQuickKeyNavigationAttached8priorityEv@Qt_5_PRIVATE_API 5.6.0
 _ZNK28QSGDistanceFieldTextMaterial12createShaderEv@Qt_5_PRIVATE_API 5.6.0
 _ZNK28QSGDistanceFieldTextMaterial4typeEv@Qt_5_PRIVATE_API 5.6.0
 _ZNK28QSGDistanceFieldTextMaterial7compareEPK11QSGMaterial@Qt_5_PRIVATE_API 5.6.0
 _ZNK30QSGOpaqueTextureMaterialShader14attributeNamesEv@Qt_5_PRIVATE_API 5.6.0
 _ZNK32QQuickItemViewTransitionableItem16isPendingRemovalEv@Qt_5_PRIVATE_API 5.6.0
 _ZNK32QQuickItemViewTransitionableItem17transitionRunningEv@Qt_5_PRIVATE_API 5.6.0
 _ZNK32QQuickItemViewTransitionableItem28transitionScheduledOrRunningEv@Qt_5_PRIVATE_API 5.6.0
 _ZNK32QQuickItemViewTransitionableItem28transitionWillChangePositionEv@Qt_5_PRIVATE_API 5.6.0
 _ZNK32QQuickItemViewTransitionableItem5itemXEv@Qt_5_PRIVATE_API 5.6.0
 _ZNK32QQuickItemViewTransitionableItem5itemYEv@Qt_5_PRIVATE_API 5.6.0
 _ZNK33QSGDefaultDistanceFieldGlyphCache14maxTextureSizeEv@Qt_5_PRIVATE_API 5.6.0
 _ZNK33QSGDefaultDistanceFieldGlyphCache22createFullSizeTexturesEv@Qt_5_PRIVATE_API 5.6.0
 _ZNK33QSGDefaultDistanceFieldGlyphCache26useTextureResizeWorkaroundEv@Qt_5_PRIVATE_API 5.6.0
 _ZNK33QSGDefaultDistanceFieldGlyphCache26useTextureUploadWorkaroundEv@Qt_5_PRIVATE_API 5.6.0
 _ZNK34QSGDistanceFieldStyledTextMaterial7compareEPK11QSGMaterial@Qt_5_PRIVATE_API 5.6.0
 _ZNK35QSGDistanceFieldOutlineTextMaterial12createShaderEv@Qt_5_PRIVATE_API 5.6.0
 _ZNK35QSGDistanceFieldOutlineTextMaterial4typeEv@Qt_5_PRIVATE_API 5.6.0
 _ZNK39QSGHiQSubPixelDistanceFieldTextMaterial12createShaderEv@Qt_5_PRIVATE_API 5.6.0
 _ZNK39QSGHiQSubPixelDistanceFieldTextMaterial4typeEv@Qt_5_PRIVATE_API 5.6.0
 _ZNK39QSGLoQSubPixelDistanceFieldTextMaterial12createShaderEv@Qt_5_PRIVATE_API 5.6.0
 _ZNK39QSGLoQSubPixelDistanceFieldTextMaterial4typeEv@Qt_5_PRIVATE_API 5.6.0
 _ZNK40QSGDistanceFieldShiftedStyleTextMaterial12createShaderEv@Qt_5_PRIVATE_API 5.6.0
 _ZNK40QSGDistanceFieldShiftedStyleTextMaterial4typeEv@Qt_5_PRIVATE_API 5.6.0
 _ZNK40QSGDistanceFieldShiftedStyleTextMaterial7compareEPK11QSGMaterial@Qt_5_PRIVATE_API 5.6.0
 _ZNK7QSGNode10childCountEv@Qt_5 5.6.0
 _ZNK7QSGNode12childAtIndexEi@Qt_5 5.6.0
 _ZNK7QSGNode16isSubtreeBlockedEv@Qt_5 5.6.0
 _ZNK8QSGLayer10metaObjectEv@Qt_5_PRIVATE_API 5.6.0
 _ZNK9QQuickPen10metaObjectEv@Qt_5_PRIVATE_API 5.6.0
 _ZNK9QQuickPen12pixelAlignedEv@Qt_5_PRIVATE_API 5.6.0
 _ZNK9QQuickPen5colorEv@Qt_5_PRIVATE_API 5.6.0
 _ZNK9QQuickPen5widthEv@Qt_5_PRIVATE_API 5.6.0
 _ZNK9QQuickPen7isValidEv@Qt_5_PRIVATE_API 5.6.0
 _ZNK9QSGEngine10metaObjectEv@Qt_5 5.6.0
 _ZNK9QSGEngine14createRendererEv@Qt_5 5.6.0
 _ZNK9QSGEngine19createTextureFromIdEjRK5QSize6QFlagsINS_19CreateTextureOptionEE@Qt_5 5.6.0
 _ZNK9QSGEngine22createTextureFromImageERK6QImage6QFlagsINS_19CreateTextureOptionEE@Qt_5 5.6.0
 _ZTI10QQuickItem@Qt_5 5.6.0
 _ZTI10QQuickText@Qt_5_PRIVATE_API 5.6.0
 _ZTI10QQuickView@Qt_5 5.6.0
 _ZTI10QSGContext@Qt_5_PRIVATE_API 5.6.0
 _ZTI10QSGTexture@Qt_5 5.6.0
 _ZTI11QQuickImage@Qt_5_PRIVATE_API 5.6.0
 _ZTI11QQuickState@Qt_5_PRIVATE_API 5.6.0
 _ZTI11QSGBindable@Qt_5_PRIVATE_API 5.6.0
 _ZTI11QSGClipNode@Qt_5 5.6.0
 _ZTI11QSGGeometry@Qt_5 5.6.0
 _ZTI11QSGMaterial@Qt_5 5.6.0
 _ZTI11QSGRenderer@Qt_5_PRIVATE_API 5.6.0
 _ZTI11QSGRootNode@Qt_5 5.6.0
 _ZTI12QQmlRefCount@Qt_5 5.6.0
 _ZTI12QQuickWindow@Qt_5 5.6.0
 _ZTI12QSGGlyphNode@Qt_5_PRIVATE_API 5.6.0
 _ZTI12QSGImageNode@Qt_5_PRIVATE_API 5.6.0
 _ZTI13QQuickAnchors@Qt_5_PRIVATE_API 5.6.0
 _ZTI13QSGNodeDumper@Qt_5_PRIVATE_API 5.6.0
 _ZTI13QSGRenderLoop@Qt_5_PRIVATE_API 5.6.0
 _ZTI13QSGRenderNode@Qt_5_PRIVATE_API 5.6.0
 _ZTI14QQuickAnimator@Qt_5_PRIVATE_API 5.6.0
 _ZTI14QQuickBehavior@Qt_5_PRIVATE_API 5.6.0
 _ZTI14QQuickGradient@Qt_5_PRIVATE_API 5.6.0
 _ZTI14QQuickItemView@Qt_5_PRIVATE_API 5.6.0
 _ZTI14QQuickProfiler@Qt_5_PRIVATE_API 5.6.0
 _ZTI14QQuickTextEdit@Qt_5_PRIVATE_API 5.6.0
 _ZTI14QSGNodeUpdater@Qt_5_PRIVATE_API 5.6.0
 _ZTI14QSGNodeVisitor@Qt_5 5.6.0
 _ZTI14QSGOpacityNode@Qt_5 5.6.0
 _ZTI14QSGPainterNode@Qt_5_PRIVATE_API 5.6.0
 _ZTI15QQuickFlickable@Qt_5_PRIVATE_API 5.6.0
 _ZTI15QQuickImageBase@Qt_5_PRIVATE_API 5.6.0
 _ZTI15QQuickMouseArea@Qt_5_PRIVATE_API 5.6.0
 _ZTI15QQuickRectangle@Qt_5_PRIVATE_API 5.6.0
 _ZTI15QQuickTextInput@Qt_5_PRIVATE_API 5.6.0
 _ZTI15QQuickTransform@Qt_5 5.6.0
 _ZTI15QQuickXAnimator@Qt_5_PRIVATE_API 5.6.0
 _ZTI15QQuickYAnimator@Qt_5_PRIVATE_API 5.6.0
 _ZTI15QSGDefaultLayer@Qt_5_PRIVATE_API 5.6.0
 _ZTI15QSGGeometryNode@Qt_5 5.6.0
 _ZTI15QSGPlainTexture@Qt_5_PRIVATE_API 5.6.0
 _ZTI16QOpenGLFunctions@Qt_5 5.6.0
 _ZTI16QQmlCustomParser@Qt_5 5.6.0
 _ZTI16QQuickCloseEvent@Qt_5_PRIVATE_API 5.6.0
 _ZTI16QQuickMouseEvent@Qt_5_PRIVATE_API 5.6.0
 _ZTI16QQuickStateGroup@Qt_5_PRIVATE_API 5.6.0
 _ZTI16QQuickTransition@Qt_5_PRIVATE_API 5.6.0
 _ZTI16QSGContextPlugin@Qt_5_PRIVATE_API 5.6.0
 _ZTI16QSGRectangleNode@Qt_5_PRIVATE_API 5.6.0
 _ZTI16QSGRenderContext@Qt_5_PRIVATE_API 5.6.0
 _ZTI16QSGTransformNode@Qt_5 5.6.0
 _ZTI16QSGVisitableNode@Qt_5_PRIVATE_API 5.6.0
 _ZTI17QQuickAnimatorJob@Qt_5_PRIVATE_API 5.6.0
 _ZTI17QQuickItemPrivate@Qt_5_PRIVATE_API 5.6.0
 _ZTI17QQuickPaintedItem@Qt_5 5.6.0
 _ZTI17QQuickTextPrivate@Qt_5_PRIVATE_API 5.6.0
 _ZTI17QSGDynamicTexture@Qt_5 5.6.0
 _ZTI17QSGMaterialShader@Qt_5 5.6.0
 _ZTI17QSGPainterTexture@Qt_5_PRIVATE_API 5.6.0
 _ZTI17QSGSimpleRectNode@Qt_5 5.6.0
 _ZTI18QQuickGradientStop@Qt_5_PRIVATE_API 5.6.0
 _ZTI18QQuickShaderEffect@Qt_5_PRIVATE_API 5.6.0
 _ZTI18QQuickSpriteEngine@Qt_5_PRIVATE_API 5.6.0
 _ZTI18QQuickTextDocument@Qt_5 5.6.0
 _ZTI18QQuickXAnimatorJob@Qt_5_PRIVATE_API 5.6.0
 _ZTI18QQuickYAnimatorJob@Qt_5_PRIVATE_API 5.6.0
 _ZTI18QSGTextureMaterial@Qt_5 5.6.0
 _ZTI18QSGTextureProvider@Qt_5 5.6.0
 _ZTI19QNativeGestureEvent@Qt_5 5.6.0
 _ZTI19QQuickImageProvider@Qt_5 5.6.0
 _ZTI19QQuickImageResponse@Qt_5 5.6.0
 _ZTI19QQuickRenderControl@Qt_5 5.6.0
 _ZTI19QQuickScaleAnimator@Qt_5_PRIVATE_API 5.6.0
 _ZTI19QQuickWindowPrivate@Qt_5_PRIVATE_API 5.6.0
 _ZTI19QQuickWindowQmlImpl@Qt_5_PRIVATE_API 5.6.0
 _ZTI19QSGAbstractRenderer@Qt_5 5.6.0
 _ZTI19QSGDefaultImageNode@Qt_5_PRIVATE_API 5.6.0
 _ZTI20QQuickAnimationGroup@Qt_5_PRIVATE_API 5.6.0
 _ZTI20QQuickBasePositioner@Qt_5_PRIVATE_API 5.6.0
 _ZTI20QQuickColorAnimation@Qt_5_PRIVATE_API 5.6.0
 _ZTI20QQuickItemGrabResult@Qt_5 5.6.0
 _ZTI20QQuickPauseAnimation@Qt_5_PRIVATE_API 5.6.0
 _ZTI20QQuickStateOperation@Qt_5_PRIVATE_API 5.6.0
 _ZTI20QQuickTextureFactory@Qt_5 5.6.0
 _ZTI20QSGBasicGeometryNode@Qt_5 5.6.0
 _ZTI20QSGFlatColorMaterial@Qt_5 5.6.0
 _ZTI20QSGSimpleTextureNode@Qt_5 5.6.0
 _ZTI21QQuickDefaultClipNode@Qt_5_PRIVATE_API 5.6.0
 _ZTI21QQuickNumberAnimation@Qt_5_PRIVATE_API 5.6.0
 _ZTI21QQuickOpacityAnimator@Qt_5_PRIVATE_API 5.6.0
 _ZTI21QQuickPropertyChanges@Qt_5_PRIVATE_API 5.6.0
 _ZTI21QQuickStochasticState@Qt_5_PRIVATE_API 5.6.0
 _ZTI21QQuickTextEditPrivate@Qt_5_PRIVATE_API 5.6.0
 _ZTI21QQuickUniformAnimator@Qt_5_PRIVATE_API 5.6.0
 _ZTI21QSGDefaultPainterNode@Qt_5_PRIVATE_API 5.6.0
 _ZTI22QQuickAnimatorProxyJob@Qt_5_PRIVATE_API 5.6.0
 _ZTI22QQuickImplicitSizeItem@Qt_5_PRIVATE_API 5.6.0
 _ZTI22QQuickItemViewAttached@Qt_5_PRIVATE_API 5.6.0
 _ZTI22QQuickRotationAnimator@Qt_5_PRIVATE_API 5.6.0
 _ZTI22QQuickScaleAnimatorJob@Qt_5_PRIVATE_API 5.6.0
 _ZTI22QQuickShaderEffectNode@Qt_5_PRIVATE_API 5.6.0
 _ZTI22QQuickStochasticEngine@Qt_5_PRIVATE_API 5.6.0
 _ZTI22QQuickTextInputPrivate@Qt_5_PRIVATE_API 5.6.0
 _ZTI22QSGShaderSourceBuilder@Qt_5_PRIVATE_API 5.6.0
 _ZTI22QSGSmoothColorMaterial@Qt_5_PRIVATE_API 5.6.0
 _ZTI22QSGVertexColorMaterial@Qt_5 5.6.0
 _ZTI23QQuickAbstractAnimation@Qt_5_PRIVATE_API 5.6.0
 _ZTI23QQuickFramebufferObject@Qt_5 5.6.0
 _ZTI23QQuickParallelAnimation@Qt_5_PRIVATE_API 5.6.0
 _ZTI23QQuickPropertyAnimation@Qt_5_PRIVATE_API 5.6.0
 _ZTI23QQuickRotationAnimation@Qt_5_PRIVATE_API 5.6.0
 _ZTI23QQuickTransitionManager@Qt_5_PRIVATE_API 5.6.0
 _ZTI23QQuickVector3dAnimation@Qt_5_PRIVATE_API 5.6.0
 _ZTI23QSGDefaultRectangleNode@Qt_5_PRIVATE_API 5.6.0
 _ZTI24QQuickAccessibleAttached@Qt_5_PRIVATE_API 5.6.0
 _ZTI24QQuickAsyncImageProvider@Qt_5 5.6.0
 _ZTI24QQuickOpacityAnimatorJob@Qt_5_PRIVATE_API 5.6.0
 _ZTI24QQuickPaintedItemPrivate@Qt_5_PRIVATE_API 5.6.0
 _ZTI24QQuickShaderEffectSource@Qt_5_PRIVATE_API 5.6.0
 _ZTI24QQuickUniformAnimatorJob@Qt_5_PRIVATE_API 5.6.0
 _ZTI24QSGOpaqueTextureMaterial@Qt_5 5.6.0
 _ZTI24QSGSmoothTextureMaterial@Qt_5_PRIVATE_API 5.6.0
 _ZTI25QQuickRotationAnimatorJob@Qt_5_PRIVATE_API 5.6.0
 _ZTI26QQuickItemViewTransitioner@Qt_5_PRIVATE_API 5.6.0
 _ZTI26QQuickShaderEffectMaterial@Qt_5_PRIVATE_API 5.6.0
 _ZTI26QSGAbstractRendererPrivate@Qt_5_PRIVATE_API 5.6.0
 _ZTI26QSGContextFactoryInterface@Qt_5_PRIVATE_API 5.6.0
 _ZTI26QSGDistanceFieldGlyphCache@Qt_5_PRIVATE_API 5.6.0
 _ZTI27QQuickKeyNavigationAttached@Qt_5_PRIVATE_API 5.6.0
 _ZTI28QSGDistanceFieldTextMaterial@Qt_5_PRIVATE_API 5.6.0
 _ZTI29QQuickImplicitSizeItemPrivate@Qt_5_PRIVATE_API 5.6.0
 _ZTI29QSGDistanceFieldGlyphConsumer@Qt_5_PRIVATE_API 5.6.0
 _ZTI30QQuickAbstractAnimationPrivate@Qt_5_PRIVATE_API 5.6.0
 _ZTI30QSGOpaqueTextureMaterialShader@Qt_5_PRIVATE_API 5.6.0
 _ZTI32QQuickItemViewTransitionableItem@Qt_5_PRIVATE_API 5.6.0
 _ZTI33QSGDefaultDistanceFieldGlyphCache@Qt_5_PRIVATE_API 5.6.0
 _ZTI34QSGDistanceFieldStyledTextMaterial@Qt_5_PRIVATE_API 5.6.0
 _ZTI35QSGDistanceFieldOutlineTextMaterial@Qt_5_PRIVATE_API 5.6.0
 _ZTI38QQuickItemViewTransitionChangeListener@Qt_5_PRIVATE_API 5.6.0
 _ZTI39QSGHiQSubPixelDistanceFieldTextMaterial@Qt_5_PRIVATE_API 5.6.0
 _ZTI39QSGLoQSubPixelDistanceFieldTextMaterial@Qt_5_PRIVATE_API 5.6.0
 _ZTI40QSGDistanceFieldShiftedStyleTextMaterial@Qt_5_PRIVATE_API 5.6.0
 _ZTI7QSGNode@Qt_5 5.6.0
 _ZTI8QSGLayer@Qt_5_PRIVATE_API 5.6.0
 _ZTI9QQuickPen@Qt_5_PRIVATE_API 5.6.0
 _ZTI9QSGEngine@Qt_5 5.6.0
 _ZTIN16QSGBatchRenderer8RendererE@Qt_5_PRIVATE_API 5.6.0
 _ZTIN23QQuickFramebufferObject8RendererE@Qt_5_PRIVATE_API 5.6.0
 _ZTIN9QV8Engine9DeletableE@Qt_5 5.6.0
 _ZTS10QQuickItem@Qt_5 5.6.0
 _ZTS10QQuickText@Qt_5_PRIVATE_API 5.6.0
 _ZTS10QQuickView@Qt_5 5.6.0
 _ZTS10QSGContext@Qt_5_PRIVATE_API 5.6.0
 _ZTS10QSGTexture@Qt_5 5.6.0
 _ZTS11QQuickImage@Qt_5_PRIVATE_API 5.6.0
 _ZTS11QQuickState@Qt_5_PRIVATE_API 5.6.0
 _ZTS11QSGBindable@Qt_5_PRIVATE_API 5.6.0
 _ZTS11QSGClipNode@Qt_5 5.6.0
 _ZTS11QSGGeometry@Qt_5 5.6.0
 _ZTS11QSGMaterial@Qt_5 5.6.0
 _ZTS11QSGRenderer@Qt_5_PRIVATE_API 5.6.0
 _ZTS11QSGRootNode@Qt_5 5.6.0
 _ZTS12QQmlRefCount@Qt_5 5.6.0
 _ZTS12QQuickWindow@Qt_5 5.6.0
 _ZTS12QSGGlyphNode@Qt_5_PRIVATE_API 5.6.0
 _ZTS12QSGImageNode@Qt_5_PRIVATE_API 5.6.0
 _ZTS13QQuickAnchors@Qt_5_PRIVATE_API 5.6.0
 _ZTS13QSGNodeDumper@Qt_5_PRIVATE_API 5.6.0
 _ZTS13QSGRenderLoop@Qt_5_PRIVATE_API 5.6.0
 _ZTS13QSGRenderNode@Qt_5_PRIVATE_API 5.6.0
 _ZTS14QQuickAnimator@Qt_5_PRIVATE_API 5.6.0
 _ZTS14QQuickBehavior@Qt_5_PRIVATE_API 5.6.0
 _ZTS14QQuickGradient@Qt_5_PRIVATE_API 5.6.0
 _ZTS14QQuickItemView@Qt_5_PRIVATE_API 5.6.0
 _ZTS14QQuickProfiler@Qt_5_PRIVATE_API 5.6.0
 _ZTS14QQuickTextEdit@Qt_5_PRIVATE_API 5.6.0
 _ZTS14QSGNodeUpdater@Qt_5_PRIVATE_API 5.6.0
 _ZTS14QSGNodeVisitor@Qt_5 5.6.0
 _ZTS14QSGOpacityNode@Qt_5 5.6.0
 _ZTS14QSGPainterNode@Qt_5_PRIVATE_API 5.6.0
 _ZTS15QQuickFlickable@Qt_5_PRIVATE_API 5.6.0
 _ZTS15QQuickImageBase@Qt_5_PRIVATE_API 5.6.0
 _ZTS15QQuickMouseArea@Qt_5_PRIVATE_API 5.6.0
 _ZTS15QQuickRectangle@Qt_5_PRIVATE_API 5.6.0
 _ZTS15QQuickTextInput@Qt_5_PRIVATE_API 5.6.0
 _ZTS15QQuickTransform@Qt_5 5.6.0
 _ZTS15QQuickXAnimator@Qt_5_PRIVATE_API 5.6.0
 _ZTS15QQuickYAnimator@Qt_5_PRIVATE_API 5.6.0
 _ZTS15QSGDefaultLayer@Qt_5_PRIVATE_API 5.6.0
 _ZTS15QSGGeometryNode@Qt_5 5.6.0
 _ZTS15QSGPlainTexture@Qt_5_PRIVATE_API 5.6.0
 _ZTS16QOpenGLFunctions@Qt_5 5.6.0
 _ZTS16QQmlCustomParser@Qt_5 5.6.0
 _ZTS16QQuickCloseEvent@Qt_5_PRIVATE_API 5.6.0
 _ZTS16QQuickMouseEvent@Qt_5_PRIVATE_API 5.6.0
 _ZTS16QQuickStateGroup@Qt_5_PRIVATE_API 5.6.0
 _ZTS16QQuickTransition@Qt_5_PRIVATE_API 5.6.0
 _ZTS16QSGContextPlugin@Qt_5_PRIVATE_API 5.6.0
 _ZTS16QSGRectangleNode@Qt_5_PRIVATE_API 5.6.0
 _ZTS16QSGRenderContext@Qt_5_PRIVATE_API 5.6.0
 _ZTS16QSGTransformNode@Qt_5 5.6.0
 _ZTS16QSGVisitableNode@Qt_5_PRIVATE_API 5.6.0
 _ZTS17QQuickAnimatorJob@Qt_5_PRIVATE_API 5.6.0
 _ZTS17QQuickItemPrivate@Qt_5_PRIVATE_API 5.6.0
 _ZTS17QQuickPaintedItem@Qt_5 5.6.0
 _ZTS17QQuickTextPrivate@Qt_5_PRIVATE_API 5.6.0
 _ZTS17QSGDynamicTexture@Qt_5 5.6.0
 _ZTS17QSGMaterialShader@Qt_5 5.6.0
 _ZTS17QSGPainterTexture@Qt_5_PRIVATE_API 5.6.0
 _ZTS17QSGSimpleRectNode@Qt_5 5.6.0
 _ZTS18QQuickGradientStop@Qt_5_PRIVATE_API 5.6.0
 _ZTS18QQuickShaderEffect@Qt_5_PRIVATE_API 5.6.0
 _ZTS18QQuickSpriteEngine@Qt_5_PRIVATE_API 5.6.0
 _ZTS18QQuickTextDocument@Qt_5 5.6.0
 _ZTS18QQuickXAnimatorJob@Qt_5_PRIVATE_API 5.6.0
 _ZTS18QQuickYAnimatorJob@Qt_5_PRIVATE_API 5.6.0
 _ZTS18QSGTextureMaterial@Qt_5 5.6.0
 _ZTS18QSGTextureProvider@Qt_5 5.6.0
 _ZTS19QNativeGestureEvent@Qt_5 5.6.0
 _ZTS19QQuickImageProvider@Qt_5 5.6.0
 _ZTS19QQuickImageResponse@Qt_5 5.6.0
 _ZTS19QQuickRenderControl@Qt_5 5.6.0
 _ZTS19QQuickScaleAnimator@Qt_5_PRIVATE_API 5.6.0
 _ZTS19QQuickWindowPrivate@Qt_5_PRIVATE_API 5.6.0
 _ZTS19QQuickWindowQmlImpl@Qt_5_PRIVATE_API 5.6.0
 _ZTS19QSGAbstractRenderer@Qt_5 5.6.0
 _ZTS19QSGDefaultImageNode@Qt_5_PRIVATE_API 5.6.0
 _ZTS20QQuickAnimationGroup@Qt_5_PRIVATE_API 5.6.0
 _ZTS20QQuickBasePositioner@Qt_5_PRIVATE_API 5.6.0
 _ZTS20QQuickColorAnimation@Qt_5_PRIVATE_API 5.6.0
 _ZTS20QQuickItemGrabResult@Qt_5 5.6.0
 _ZTS20QQuickPauseAnimation@Qt_5_PRIVATE_API 5.6.0
 _ZTS20QQuickStateOperation@Qt_5_PRIVATE_API 5.6.0
 _ZTS20QQuickTextureFactory@Qt_5 5.6.0
 _ZTS20QSGBasicGeometryNode@Qt_5 5.6.0
 _ZTS20QSGFlatColorMaterial@Qt_5 5.6.0
 _ZTS20QSGSimpleTextureNode@Qt_5 5.6.0
 _ZTS21QQuickDefaultClipNode@Qt_5_PRIVATE_API 5.6.0
 _ZTS21QQuickNumberAnimation@Qt_5_PRIVATE_API 5.6.0
 _ZTS21QQuickOpacityAnimator@Qt_5_PRIVATE_API 5.6.0
 _ZTS21QQuickPropertyChanges@Qt_5_PRIVATE_API 5.6.0
 _ZTS21QQuickStochasticState@Qt_5_PRIVATE_API 5.6.0
 _ZTS21QQuickTextEditPrivate@Qt_5_PRIVATE_API 5.6.0
 _ZTS21QQuickUniformAnimator@Qt_5_PRIVATE_API 5.6.0
 _ZTS21QSGDefaultPainterNode@Qt_5_PRIVATE_API 5.6.0
 _ZTS22QQuickAnimatorProxyJob@Qt_5_PRIVATE_API 5.6.0
 _ZTS22QQuickImplicitSizeItem@Qt_5_PRIVATE_API 5.6.0
 _ZTS22QQuickItemViewAttached@Qt_5_PRIVATE_API 5.6.0
 _ZTS22QQuickRotationAnimator@Qt_5_PRIVATE_API 5.6.0
 _ZTS22QQuickScaleAnimatorJob@Qt_5_PRIVATE_API 5.6.0
 _ZTS22QQuickShaderEffectNode@Qt_5_PRIVATE_API 5.6.0
 _ZTS22QQuickStochasticEngine@Qt_5_PRIVATE_API 5.6.0
 _ZTS22QQuickTextInputPrivate@Qt_5_PRIVATE_API 5.6.0
 _ZTS22QSGShaderSourceBuilder@Qt_5_PRIVATE_API 5.6.0
 _ZTS22QSGSmoothColorMaterial@Qt_5_PRIVATE_API 5.6.0
 _ZTS22QSGVertexColorMaterial@Qt_5 5.6.0
 _ZTS23QQuickAbstractAnimation@Qt_5_PRIVATE_API 5.6.0
 _ZTS23QQuickFramebufferObject@Qt_5 5.6.0
 _ZTS23QQuickParallelAnimation@Qt_5_PRIVATE_API 5.6.0
 _ZTS23QQuickPropertyAnimation@Qt_5_PRIVATE_API 5.6.0
 _ZTS23QQuickRotationAnimation@Qt_5_PRIVATE_API 5.6.0
 _ZTS23QQuickTransitionManager@Qt_5_PRIVATE_API 5.6.0
 _ZTS23QQuickVector3dAnimation@Qt_5_PRIVATE_API 5.6.0
 _ZTS23QSGDefaultRectangleNode@Qt_5_PRIVATE_API 5.6.0
 _ZTS24QQuickAccessibleAttached@Qt_5_PRIVATE_API 5.6.0
 _ZTS24QQuickAsyncImageProvider@Qt_5 5.6.0
 _ZTS24QQuickOpacityAnimatorJob@Qt_5_PRIVATE_API 5.6.0
 _ZTS24QQuickPaintedItemPrivate@Qt_5_PRIVATE_API 5.6.0
 _ZTS24QQuickShaderEffectSource@Qt_5_PRIVATE_API 5.6.0
 _ZTS24QQuickUniformAnimatorJob@Qt_5_PRIVATE_API 5.6.0
 _ZTS24QSGOpaqueTextureMaterial@Qt_5 5.6.0
 _ZTS24QSGSmoothTextureMaterial@Qt_5_PRIVATE_API 5.6.0
 _ZTS25QQuickRotationAnimatorJob@Qt_5_PRIVATE_API 5.6.0
 _ZTS26QQuickItemViewTransitioner@Qt_5_PRIVATE_API 5.6.0
 _ZTS26QQuickShaderEffectMaterial@Qt_5_PRIVATE_API 5.6.0
 _ZTS26QSGAbstractRendererPrivate@Qt_5_PRIVATE_API 5.6.0
 _ZTS26QSGContextFactoryInterface@Qt_5_PRIVATE_API 5.6.0
 _ZTS26QSGDistanceFieldGlyphCache@Qt_5_PRIVATE_API 5.6.0
 _ZTS27QQuickKeyNavigationAttached@Qt_5_PRIVATE_API 5.6.0
 _ZTS28QSGDistanceFieldTextMaterial@Qt_5_PRIVATE_API 5.6.0
 _ZTS29QQuickImplicitSizeItemPrivate@Qt_5_PRIVATE_API 5.6.0
 _ZTS29QSGDistanceFieldGlyphConsumer@Qt_5_PRIVATE_API 5.6.0
 _ZTS30QQuickAbstractAnimationPrivate@Qt_5_PRIVATE_API 5.6.0
 _ZTS30QSGOpaqueTextureMaterialShader@Qt_5_PRIVATE_API 5.6.0
 _ZTS32QQuickItemViewTransitionableItem@Qt_5_PRIVATE_API 5.6.0
 _ZTS33QSGDefaultDistanceFieldGlyphCache@Qt_5_PRIVATE_API 5.6.0
 _ZTS34QSGDistanceFieldStyledTextMaterial@Qt_5_PRIVATE_API 5.6.0
 _ZTS35QSGDistanceFieldOutlineTextMaterial@Qt_5_PRIVATE_API 5.6.0
 _ZTS38QQuickItemViewTransitionChangeListener@Qt_5_PRIVATE_API 5.6.0
 _ZTS39QSGHiQSubPixelDistanceFieldTextMaterial@Qt_5_PRIVATE_API 5.6.0
 _ZTS39QSGLoQSubPixelDistanceFieldTextMaterial@Qt_5_PRIVATE_API 5.6.0
 _ZTS40QSGDistanceFieldShiftedStyleTextMaterial@Qt_5_PRIVATE_API 5.6.0
 _ZTS7QSGNode@Qt_5 5.6.0
 _ZTS8QSGLayer@Qt_5_PRIVATE_API 5.6.0
 _ZTS9QQuickPen@Qt_5_PRIVATE_API 5.6.0
 _ZTS9QSGEngine@Qt_5 5.6.0
 _ZTSN16QSGBatchRenderer8RendererE@Qt_5_PRIVATE_API 5.6.0
 _ZTSN23QQuickFramebufferObject8RendererE@Qt_5_PRIVATE_API 5.6.0
 _ZTSN9QV8Engine9DeletableE@Qt_5 5.6.0
 _ZTV10QQuickItem@Qt_5 5.6.0
 _ZTV10QQuickText@Qt_5_PRIVATE_API 5.6.0
 _ZTV10QQuickView@Qt_5 5.6.0
 _ZTV10QSGContext@Qt_5_PRIVATE_API 5.6.0
 _ZTV10QSGTexture@Qt_5 5.6.0
 _ZTV11QQuickImage@Qt_5_PRIVATE_API 5.6.0
 _ZTV11QQuickState@Qt_5_PRIVATE_API 5.6.0
 _ZTV11QSGBindable@Qt_5_PRIVATE_API 5.6.0
 _ZTV11QSGClipNode@Qt_5 5.6.0
 _ZTV11QSGGeometry@Qt_5 5.6.0
 _ZTV11QSGMaterial@Qt_5 5.6.0
 _ZTV11QSGRenderer@Qt_5_PRIVATE_API 5.6.0
 _ZTV11QSGRootNode@Qt_5 5.6.0
 _ZTV12QQmlRefCount@Qt_5 5.6.0
 _ZTV12QQuickWindow@Qt_5 5.6.0
 _ZTV12QSGGlyphNode@Qt_5_PRIVATE_API 5.6.0
 _ZTV12QSGImageNode@Qt_5_PRIVATE_API 5.6.0
 _ZTV13QQuickAnchors@Qt_5_PRIVATE_API 5.6.0
 _ZTV13QSGNodeDumper@Qt_5_PRIVATE_API 5.6.0
 _ZTV13QSGRenderLoop@Qt_5_PRIVATE_API 5.6.0
 _ZTV13QSGRenderNode@Qt_5_PRIVATE_API 5.6.0
 _ZTV14QQuickAnimator@Qt_5_PRIVATE_API 5.6.0
 _ZTV14QQuickBehavior@Qt_5_PRIVATE_API 5.6.0
 _ZTV14QQuickGradient@Qt_5_PRIVATE_API 5.6.0
 _ZTV14QQuickItemView@Qt_5_PRIVATE_API 5.6.0
 _ZTV14QQuickProfiler@Qt_5_PRIVATE_API 5.6.0
 _ZTV14QQuickTextEdit@Qt_5_PRIVATE_API 5.6.0
 _ZTV14QSGNodeUpdater@Qt_5_PRIVATE_API 5.6.0
 _ZTV14QSGNodeVisitor@Qt_5 5.6.0
 _ZTV14QSGOpacityNode@Qt_5 5.6.0
 _ZTV14QSGPainterNode@Qt_5_PRIVATE_API 5.6.0
 _ZTV15QQuickFlickable@Qt_5_PRIVATE_API 5.6.0
 _ZTV15QQuickImageBase@Qt_5_PRIVATE_API 5.6.0
 _ZTV15QQuickMouseArea@Qt_5_PRIVATE_API 5.6.0
 _ZTV15QQuickRectangle@Qt_5_PRIVATE_API 5.6.0
 _ZTV15QQuickTextInput@Qt_5_PRIVATE_API 5.6.0
 _ZTV15QQuickTransform@Qt_5 5.6.0
 _ZTV15QQuickXAnimator@Qt_5_PRIVATE_API 5.6.0
 _ZTV15QQuickYAnimator@Qt_5_PRIVATE_API 5.6.0
 _ZTV15QSGDefaultLayer@Qt_5_PRIVATE_API 5.6.0
 _ZTV15QSGGeometryNode@Qt_5 5.6.0
 _ZTV15QSGPlainTexture@Qt_5_PRIVATE_API 5.6.0
 _ZTV16QQmlCustomParser@Qt_5 5.6.0
 _ZTV16QQuickCloseEvent@Qt_5_PRIVATE_API 5.6.0
 _ZTV16QQuickMouseEvent@Qt_5_PRIVATE_API 5.6.0
 _ZTV16QQuickStateGroup@Qt_5_PRIVATE_API 5.6.0
 _ZTV16QQuickTransition@Qt_5_PRIVATE_API 5.6.0
 _ZTV16QSGContextPlugin@Qt_5_PRIVATE_API 5.6.0
 _ZTV16QSGRectangleNode@Qt_5_PRIVATE_API 5.6.0
 _ZTV16QSGRenderContext@Qt_5_PRIVATE_API 5.6.0
 _ZTV16QSGTransformNode@Qt_5 5.6.0
 _ZTV16QSGVisitableNode@Qt_5_PRIVATE_API 5.6.0
 _ZTV17QQuickAnimatorJob@Qt_5_PRIVATE_API 5.6.0
 _ZTV17QQuickItemPrivate@Qt_5_PRIVATE_API 5.6.0
 _ZTV17QQuickPaintedItem@Qt_5 5.6.0
 _ZTV17QQuickTextPrivate@Qt_5_PRIVATE_API 5.6.0
 _ZTV17QSGDynamicTexture@Qt_5 5.6.0
 _ZTV17QSGMaterialShader@Qt_5 5.6.0
 _ZTV17QSGPainterTexture@Qt_5_PRIVATE_API 5.6.0
 _ZTV17QSGSimpleRectNode@Qt_5 5.6.0
 _ZTV18QQuickGradientStop@Qt_5_PRIVATE_API 5.6.0
 _ZTV18QQuickShaderEffect@Qt_5_PRIVATE_API 5.6.0
 _ZTV18QQuickSpriteEngine@Qt_5_PRIVATE_API 5.6.0
 _ZTV18QQuickTextDocument@Qt_5 5.6.0
 _ZTV18QQuickXAnimatorJob@Qt_5_PRIVATE_API 5.6.0
 _ZTV18QQuickYAnimatorJob@Qt_5_PRIVATE_API 5.6.0
 _ZTV18QSGTextureMaterial@Qt_5 5.6.0
 _ZTV18QSGTextureProvider@Qt_5 5.6.0
 _ZTV19QNativeGestureEvent@Qt_5 5.6.0
 _ZTV19QQuickImageProvider@Qt_5 5.6.0
 _ZTV19QQuickImageResponse@Qt_5 5.6.0
 _ZTV19QQuickRenderControl@Qt_5 5.6.0
 _ZTV19QQuickScaleAnimator@Qt_5_PRIVATE_API 5.6.0
 _ZTV19QQuickWindowPrivate@Qt_5_PRIVATE_API 5.6.0
 _ZTV19QQuickWindowQmlImpl@Qt_5_PRIVATE_API 5.6.0
 _ZTV19QSGAbstractRenderer@Qt_5 5.6.0
 _ZTV19QSGDefaultImageNode@Qt_5_PRIVATE_API 5.6.0
 _ZTV20QQuickAnimationGroup@Qt_5_PRIVATE_API 5.6.0
 _ZTV20QQuickBasePositioner@Qt_5_PRIVATE_API 5.6.0
 _ZTV20QQuickColorAnimation@Qt_5_PRIVATE_API 5.6.0
 _ZTV20QQuickItemGrabResult@Qt_5 5.6.0
 _ZTV20QQuickPauseAnimation@Qt_5_PRIVATE_API 5.6.0
 _ZTV20QQuickStateOperation@Qt_5_PRIVATE_API 5.6.0
 _ZTV20QQuickTextureFactory@Qt_5 5.6.0
 _ZTV20QSGBasicGeometryNode@Qt_5 5.6.0
 _ZTV20QSGFlatColorMaterial@Qt_5 5.6.0
 _ZTV20QSGSimpleTextureNode@Qt_5 5.6.0
 _ZTV21QQuickDefaultClipNode@Qt_5_PRIVATE_API 5.6.0
 _ZTV21QQuickNumberAnimation@Qt_5_PRIVATE_API 5.6.0
 _ZTV21QQuickOpacityAnimator@Qt_5_PRIVATE_API 5.6.0
 _ZTV21QQuickPropertyChanges@Qt_5_PRIVATE_API 5.6.0
 _ZTV21QQuickStochasticState@Qt_5_PRIVATE_API 5.6.0
 _ZTV21QQuickTextEditPrivate@Qt_5_PRIVATE_API 5.6.0
 _ZTV21QQuickUniformAnimator@Qt_5_PRIVATE_API 5.6.0
 _ZTV21QSGDefaultPainterNode@Qt_5_PRIVATE_API 5.6.0
 _ZTV22QQuickAnimatorProxyJob@Qt_5_PRIVATE_API 5.6.0
 _ZTV22QQuickImplicitSizeItem@Qt_5_PRIVATE_API 5.6.0
 _ZTV22QQuickItemViewAttached@Qt_5_PRIVATE_API 5.6.0
 _ZTV22QQuickRotationAnimator@Qt_5_PRIVATE_API 5.6.0
 _ZTV22QQuickScaleAnimatorJob@Qt_5_PRIVATE_API 5.6.0
 _ZTV22QQuickShaderEffectNode@Qt_5_PRIVATE_API 5.6.0
 _ZTV22QQuickStochasticEngine@Qt_5_PRIVATE_API 5.6.0
 _ZTV22QQuickTextInputPrivate@Qt_5_PRIVATE_API 5.6.0
 _ZTV22QSGShaderSourceBuilder@Qt_5_PRIVATE_API 5.6.0
 _ZTV22QSGSmoothColorMaterial@Qt_5_PRIVATE_API 5.6.0
 _ZTV22QSGVertexColorMaterial@Qt_5 5.6.0
 _ZTV23QQuickAbstractAnimation@Qt_5_PRIVATE_API 5.6.0
 _ZTV23QQuickFramebufferObject@Qt_5 5.6.0
 _ZTV23QQuickParallelAnimation@Qt_5_PRIVATE_API 5.6.0
 _ZTV23QQuickPropertyAnimation@Qt_5_PRIVATE_API 5.6.0
 _ZTV23QQuickRotationAnimation@Qt_5_PRIVATE_API 5.6.0
 _ZTV23QQuickTransitionManager@Qt_5_PRIVATE_API 5.6.0
 _ZTV23QQuickVector3dAnimation@Qt_5_PRIVATE_API 5.6.0
 _ZTV23QSGDefaultRectangleNode@Qt_5_PRIVATE_API 5.6.0
 _ZTV24QQuickAccessibleAttached@Qt_5_PRIVATE_API 5.6.0
 _ZTV24QQuickAsyncImageProvider@Qt_5 5.6.0
 _ZTV24QQuickOpacityAnimatorJob@Qt_5_PRIVATE_API 5.6.0
 _ZTV24QQuickPaintedItemPrivate@Qt_5_PRIVATE_API 5.6.0
 _ZTV24QQuickShaderEffectSource@Qt_5_PRIVATE_API 5.6.0
 _ZTV24QQuickUniformAnimatorJob@Qt_5_PRIVATE_API 5.6.0
 _ZTV24QSGOpaqueTextureMaterial@Qt_5 5.6.0
 _ZTV24QSGSmoothTextureMaterial@Qt_5_PRIVATE_API 5.6.0
 _ZTV25QQuickRotationAnimatorJob@Qt_5_PRIVATE_API 5.6.0
 _ZTV26QQuickItemViewTransitioner@Qt_5_PRIVATE_API 5.6.0
 _ZTV26QQuickShaderEffectMaterial@Qt_5_PRIVATE_API 5.6.0
 _ZTV26QSGAbstractRendererPrivate@Qt_5_PRIVATE_API 5.6.0
 _ZTV26QSGContextFactoryInterface@Qt_5_PRIVATE_API 5.6.0
 _ZTV26QSGDistanceFieldGlyphCache@Qt_5_PRIVATE_API 5.6.0
 _ZTV27QQuickKeyNavigationAttached@Qt_5_PRIVATE_API 5.6.0
 _ZTV28QSGDistanceFieldTextMaterial@Qt_5_PRIVATE_API 5.6.0
 _ZTV29QQuickImplicitSizeItemPrivate@Qt_5_PRIVATE_API 5.6.0
 _ZTV29QSGDistanceFieldGlyphConsumer@Qt_5_PRIVATE_API 5.6.0
 _ZTV30QQuickAbstractAnimationPrivate@Qt_5_PRIVATE_API 5.6.0
 _ZTV30QSGOpaqueTextureMaterialShader@Qt_5_PRIVATE_API 5.6.0
 _ZTV32QQuickItemViewTransitionableItem@Qt_5_PRIVATE_API 5.6.0
 _ZTV33QSGDefaultDistanceFieldGlyphCache@Qt_5_PRIVATE_API 5.6.0
 _ZTV34QSGDistanceFieldStyledTextMaterial@Qt_5_PRIVATE_API 5.6.0
 _ZTV35QSGDistanceFieldOutlineTextMaterial@Qt_5_PRIVATE_API 5.6.0
 _ZTV38QQuickItemViewTransitionChangeListener@Qt_5_PRIVATE_API 5.6.0
 _ZTV39QSGHiQSubPixelDistanceFieldTextMaterial@Qt_5_PRIVATE_API 5.6.0
 _ZTV39QSGLoQSubPixelDistanceFieldTextMaterial@Qt_5_PRIVATE_API 5.6.0
 _ZTV40QSGDistanceFieldShiftedStyleTextMaterial@Qt_5_PRIVATE_API 5.6.0
 _ZTV7QSGNode@Qt_5 5.6.0
 _ZTV8QSGLayer@Qt_5_PRIVATE_API 5.6.0
 _ZTV9QQuickPen@Qt_5_PRIVATE_API 5.6.0
 _ZTV9QSGEngine@Qt_5 5.6.0
 _ZTVN16QSGBatchRenderer8RendererE@Qt_5_PRIVATE_API 5.6.0
 _ZTVN23QQuickFramebufferObject8RendererE@Qt_5_PRIVATE_API 5.6.0
 _ZTVN9QV8Engine9DeletableE@Qt_5 5.6.0
 _ZThn112_N30QQuickAbstractAnimationPrivate17animationFinishedEP21QAbstractAnimationJob@Qt_5_PRIVATE_API 5.6.0
 _ZThn112_N30QQuickAbstractAnimationPrivateD0Ev@Qt_5_PRIVATE_API 5.6.0
 _ZThn112_N30QQuickAbstractAnimationPrivateD1Ev@Qt_5_PRIVATE_API 5.6.0
 _ZThn16_N10QQuickItem10classBeginEv@Qt_5 5.6.0
 _ZThn16_N10QQuickItem17componentCompleteEv@Qt_5 5.6.0
 _ZThn16_N10QQuickItemD0Ev@Qt_5 5.6.0
 _ZThn16_N10QQuickItemD1Ev@Qt_5 5.6.0
 _ZThn16_N10QQuickText17componentCompleteEv@Qt_5_PRIVATE_API 5.6.0
 _ZThn16_N10QQuickTextD0Ev@Qt_5_PRIVATE_API 5.6.0
 _ZThn16_N10QQuickTextD1Ev@Qt_5_PRIVATE_API 5.6.0
 _ZThn16_N10QQuickViewD0Ev@Qt_5 5.6.0
 _ZThn16_N10QQuickViewD1Ev@Qt_5 5.6.0
 _ZThn16_N11QQuickImageD0Ev@Qt_5_PRIVATE_API 5.6.0
 _ZThn16_N11QQuickImageD1Ev@Qt_5_PRIVATE_API 5.6.0
 _ZThn16_N12QQuickWindowD0Ev@Qt_5 5.6.0
 _ZThn16_N12QQuickWindowD1Ev@Qt_5 5.6.0
 _ZThn16_N14QQuickBehavior5writeERK8QVariant@Qt_5_PRIVATE_API 5.6.0
 _ZThn16_N14QQuickBehavior9setTargetERK12QQmlProperty@Qt_5_PRIVATE_API 5.6.0
 _ZThn16_N14QQuickBehaviorD0Ev@Qt_5_PRIVATE_API 5.6.0
 _ZThn16_N14QQuickBehaviorD1Ev@Qt_5_PRIVATE_API 5.6.0
 _ZThn16_N14QQuickItemView17componentCompleteEv@Qt_5_PRIVATE_API 5.6.0
 _ZThn16_N14QQuickItemViewD0Ev@Qt_5_PRIVATE_API 5.6.0
 _ZThn16_N14QQuickItemViewD1Ev@Qt_5_PRIVATE_API 5.6.0
 _ZThn16_N14QQuickTextEdit17componentCompleteEv@Qt_5_PRIVATE_API 5.6.0
 _ZThn16_N14QQuickTextEditD0Ev@Qt_5_PRIVATE_API 5.6.0
 _ZThn16_N14QQuickTextEditD1Ev@Qt_5_PRIVATE_API 5.6.0
 _ZThn16_N15QQuickFlickable17componentCompleteEv@Qt_5_PRIVATE_API 5.6.0
 _ZThn16_N15QQuickFlickableD0Ev@Qt_5_PRIVATE_API 5.6.0
 _ZThn16_N15QQuickFlickableD1Ev@Qt_5_PRIVATE_API 5.6.0
 _ZThn16_N15QQuickImageBase17componentCompleteEv@Qt_5_PRIVATE_API 5.6.0
 _ZThn16_N15QQuickImageBaseD0Ev@Qt_5_PRIVATE_API 5.6.0
 _ZThn16_N15QQuickImageBaseD1Ev@Qt_5_PRIVATE_API 5.6.0
 _ZThn16_N15QQuickMouseAreaD0Ev@Qt_5_PRIVATE_API 5.6.0
 _ZThn16_N15QQuickMouseAreaD1Ev@Qt_5_PRIVATE_API 5.6.0
 _ZThn16_N15QQuickRectangleD0Ev@Qt_5_PRIVATE_API 5.6.0
 _ZThn16_N15QQuickRectangleD1Ev@Qt_5_PRIVATE_API 5.6.0
 _ZThn16_N15QQuickTextInput17componentCompleteEv@Qt_5_PRIVATE_API 5.6.0
 _ZThn16_N15QQuickTextInputD0Ev@Qt_5_PRIVATE_API 5.6.0
 _ZThn16_N15QQuickTextInputD1Ev@Qt_5_PRIVATE_API 5.6.0
 _ZThn16_N15QQuickXAnimatorD0Ev@Qt_5_PRIVATE_API 5.6.0
 _ZThn16_N15QQuickXAnimatorD1Ev@Qt_5_PRIVATE_API 5.6.0
 _ZThn16_N15QQuickYAnimatorD0Ev@Qt_5_PRIVATE_API 5.6.0
 _ZThn16_N15QQuickYAnimatorD1Ev@Qt_5_PRIVATE_API 5.6.0
 _ZThn16_N16QQuickStateGroup10classBeginEv@Qt_5_PRIVATE_API 5.6.0
 _ZThn16_N16QQuickStateGroup17componentCompleteEv@Qt_5_PRIVATE_API 5.6.0
 _ZThn16_N16QQuickStateGroupD0Ev@Qt_5_PRIVATE_API 5.6.0
 _ZThn16_N16QQuickStateGroupD1Ev@Qt_5_PRIVATE_API 5.6.0
 _ZThn16_N16QSGContextPluginD0Ev@Qt_5_PRIVATE_API 5.6.0
 _ZThn16_N16QSGContextPluginD1Ev@Qt_5_PRIVATE_API 5.6.0
 _ZThn16_N17QQuickPaintedItemD0Ev@Qt_5 5.6.0
 _ZThn16_N17QQuickPaintedItemD1Ev@Qt_5 5.6.0
 _ZThn16_N18QQuickShaderEffect17componentCompleteEv@Qt_5_PRIVATE_API 5.6.0
 _ZThn16_N18QQuickShaderEffectD0Ev@Qt_5_PRIVATE_API 5.6.0
 _ZThn16_N18QQuickShaderEffectD1Ev@Qt_5_PRIVATE_API 5.6.0
 _ZThn16_N19QQuickScaleAnimatorD0Ev@Qt_5_PRIVATE_API 5.6.0
 _ZThn16_N19QQuickScaleAnimatorD1Ev@Qt_5_PRIVATE_API 5.6.0
 _ZThn16_N19QQuickWindowQmlImplD0Ev@Qt_5_PRIVATE_API 5.6.0
 _ZThn16_N19QQuickWindowQmlImplD1Ev@Qt_5_PRIVATE_API 5.6.0
 _ZThn16_N20QQuickAnimationGroupD0Ev@Qt_5_PRIVATE_API 5.6.0
 _ZThn16_N20QQuickAnimationGroupD1Ev@Qt_5_PRIVATE_API 5.6.0
 _ZThn16_N20QQuickBasePositioner17componentCompleteEv@Qt_5_PRIVATE_API 5.6.0
 _ZThn16_N20QQuickBasePositionerD0Ev@Qt_5_PRIVATE_API 5.6.0
 _ZThn16_N20QQuickBasePositionerD1Ev@Qt_5_PRIVATE_API 5.6.0
 _ZThn16_N20QQuickColorAnimationD0Ev@Qt_5_PRIVATE_API 5.6.0
 _ZThn16_N20QQuickColorAnimationD1Ev@Qt_5_PRIVATE_API 5.6.0
 _ZThn16_N20QQuickPauseAnimationD0Ev@Qt_5_PRIVATE_API 5.6.0
 _ZThn16_N20QQuickPauseAnimationD1Ev@Qt_5_PRIVATE_API 5.6.0
 _ZThn16_N21QQuickNumberAnimationD0Ev@Qt_5_PRIVATE_API 5.6.0
 _ZThn16_N21QQuickNumberAnimationD1Ev@Qt_5_PRIVATE_API 5.6.0
 _ZThn16_N21QQuickOpacityAnimatorD0Ev@Qt_5_PRIVATE_API 5.6.0
 _ZThn16_N21QQuickOpacityAnimatorD1Ev@Qt_5_PRIVATE_API 5.6.0
 _ZThn16_N21QQuickUniformAnimatorD0Ev@Qt_5_PRIVATE_API 5.6.0
 _ZThn16_N21QQuickUniformAnimatorD1Ev@Qt_5_PRIVATE_API 5.6.0
 _ZThn16_N22QQuickAnimatorProxyJob11updateStateEN21QAbstractAnimationJob5StateES1_@Qt_5_PRIVATE_API 5.6.0
 _ZThn16_N22QQuickAnimatorProxyJob17updateCurrentTimeEi@Qt_5_PRIVATE_API 5.6.0
 _ZThn16_N22QQuickAnimatorProxyJobD0Ev@Qt_5_PRIVATE_API 5.6.0
 _ZThn16_N22QQuickAnimatorProxyJobD1Ev@Qt_5_PRIVATE_API 5.6.0
 _ZThn16_N22QQuickImplicitSizeItemD0Ev@Qt_5_PRIVATE_API 5.6.0
 _ZThn16_N22QQuickImplicitSizeItemD1Ev@Qt_5_PRIVATE_API 5.6.0
 _ZThn16_N22QQuickRotationAnimatorD0Ev@Qt_5_PRIVATE_API 5.6.0
 _ZThn16_N22QQuickRotationAnimatorD1Ev@Qt_5_PRIVATE_API 5.6.0
 _ZThn16_N22QQuickShaderEffectNode10preprocessEv@Qt_5_PRIVATE_API 5.6.0
 _ZThn16_N22QQuickShaderEffectNodeD0Ev@Qt_5_PRIVATE_API 5.6.0
 _ZThn16_N22QQuickShaderEffectNodeD1Ev@Qt_5_PRIVATE_API 5.6.0
 _ZThn16_N23QQuickAbstractAnimation9setTargetERK12QQmlProperty@Qt_5_PRIVATE_API 5.6.0
 _ZThn16_N23QQuickAbstractAnimationD0Ev@Qt_5_PRIVATE_API 5.6.0
 _ZThn16_N23QQuickAbstractAnimationD1Ev@Qt_5_PRIVATE_API 5.6.0
 _ZThn16_N23QQuickParallelAnimationD0Ev@Qt_5_PRIVATE_API 5.6.0
 _ZThn16_N23QQuickParallelAnimationD1Ev@Qt_5_PRIVATE_API 5.6.0
 _ZThn16_N23QQuickPropertyAnimationD0Ev@Qt_5_PRIVATE_API 5.6.0
 _ZThn16_N23QQuickPropertyAnimationD1Ev@Qt_5_PRIVATE_API 5.6.0
 _ZThn16_N23QQuickRotationAnimationD0Ev@Qt_5_PRIVATE_API 5.6.0
 _ZThn16_N23QQuickRotationAnimationD1Ev@Qt_5_PRIVATE_API 5.6.0
 _ZThn16_N23QQuickVector3dAnimationD0Ev@Qt_5_PRIVATE_API 5.6.0
 _ZThn16_N23QQuickVector3dAnimationD1Ev@Qt_5_PRIVATE_API 5.6.0
 _ZThn16_N24QQuickShaderEffectSourceD0Ev@Qt_5_PRIVATE_API 5.6.0
 _ZThn16_N24QQuickShaderEffectSourceD1Ev@Qt_5_PRIVATE_API 5.6.0
 _ZThn16_N27QQuickKeyNavigationAttached10keyPressedEP9QKeyEventb@Qt_5_PRIVATE_API 5.6.0
 _ZThn16_N27QQuickKeyNavigationAttached11keyReleasedEP9QKeyEventb@Qt_5_PRIVATE_API 5.6.0
 _ZThn16_N27QQuickKeyNavigationAttachedD0Ev@Qt_5_PRIVATE_API 5.6.0
 _ZThn16_N27QQuickKeyNavigationAttachedD1Ev@Qt_5_PRIVATE_API 5.6.0
 _ZThn16_NK22QQuickAnimatorProxyJob14debugAnimationE6QDebug@Qt_5_PRIVATE_API 5.6.0
 _ZThn24_N15QQuickXAnimatorD0Ev@Qt_5_PRIVATE_API 5.6.0
 _ZThn24_N15QQuickXAnimatorD1Ev@Qt_5_PRIVATE_API 5.6.0
 _ZThn24_N15QQuickYAnimatorD0Ev@Qt_5_PRIVATE_API 5.6.0
 _ZThn24_N15QQuickYAnimatorD1Ev@Qt_5_PRIVATE_API 5.6.0
 _ZThn24_N19QQuickScaleAnimatorD0Ev@Qt_5_PRIVATE_API 5.6.0
 _ZThn24_N19QQuickScaleAnimatorD1Ev@Qt_5_PRIVATE_API 5.6.0
 _ZThn24_N20QQuickAnimationGroupD0Ev@Qt_5_PRIVATE_API 5.6.0
 _ZThn24_N20QQuickAnimationGroupD1Ev@Qt_5_PRIVATE_API 5.6.0
 _ZThn24_N20QQuickColorAnimationD0Ev@Qt_5_PRIVATE_API 5.6.0
 _ZThn24_N20QQuickColorAnimationD1Ev@Qt_5_PRIVATE_API 5.6.0
 _ZThn24_N20QQuickPauseAnimationD0Ev@Qt_5_PRIVATE_API 5.6.0
 _ZThn24_N20QQuickPauseAnimationD1Ev@Qt_5_PRIVATE_API 5.6.0
 _ZThn24_N21QQuickNumberAnimationD0Ev@Qt_5_PRIVATE_API 5.6.0
 _ZThn24_N21QQuickNumberAnimationD1Ev@Qt_5_PRIVATE_API 5.6.0
 _ZThn24_N21QQuickOpacityAnimatorD0Ev@Qt_5_PRIVATE_API 5.6.0
 _ZThn24_N21QQuickOpacityAnimatorD1Ev@Qt_5_PRIVATE_API 5.6.0
 _ZThn24_N21QQuickUniformAnimatorD0Ev@Qt_5_PRIVATE_API 5.6.0
 _ZThn24_N21QQuickUniformAnimatorD1Ev@Qt_5_PRIVATE_API 5.6.0
 _ZThn24_N22QQuickRotationAnimatorD0Ev@Qt_5_PRIVATE_API 5.6.0
 _ZThn24_N22QQuickRotationAnimatorD1Ev@Qt_5_PRIVATE_API 5.6.0
 _ZThn24_N23QQuickAbstractAnimation10classBeginEv@Qt_5_PRIVATE_API 5.6.0
 _ZThn24_N23QQuickAbstractAnimation17componentCompleteEv@Qt_5_PRIVATE_API 5.6.0
 _ZThn24_N23QQuickAbstractAnimationD0Ev@Qt_5_PRIVATE_API 5.6.0
 _ZThn24_N23QQuickAbstractAnimationD1Ev@Qt_5_PRIVATE_API 5.6.0
 _ZThn24_N23QQuickParallelAnimationD0Ev@Qt_5_PRIVATE_API 5.6.0
 _ZThn24_N23QQuickParallelAnimationD1Ev@Qt_5_PRIVATE_API 5.6.0
 _ZThn24_N23QQuickPropertyAnimationD0Ev@Qt_5_PRIVATE_API 5.6.0
 _ZThn24_N23QQuickPropertyAnimationD1Ev@Qt_5_PRIVATE_API 5.6.0
 _ZThn24_N23QQuickRotationAnimationD0Ev@Qt_5_PRIVATE_API 5.6.0
 _ZThn24_N23QQuickRotationAnimationD1Ev@Qt_5_PRIVATE_API 5.6.0
 _ZThn24_N23QQuickVector3dAnimationD0Ev@Qt_5_PRIVATE_API 5.6.0
 _ZThn24_N23QQuickVector3dAnimationD1Ev@Qt_5_PRIVATE_API 5.6.0
 _ZThn32_N24QQuickShaderEffectSource19itemGeometryChangedEP10QQuickItemRK6QRectFS4_@Qt_5_PRIVATE_API 5.6.0
 _ZThn32_N24QQuickShaderEffectSourceD0Ev@Qt_5_PRIVATE_API 5.6.0
 _ZThn32_N24QQuickShaderEffectSourceD1Ev@Qt_5_PRIVATE_API 5.6.0
 _ZThn40_N19QQuickWindowQmlImpl10classBeginEv@Qt_5_PRIVATE_API 5.6.0
 _ZThn40_N19QQuickWindowQmlImpl17componentCompleteEv@Qt_5_PRIVATE_API 5.6.0
 _ZThn40_N19QQuickWindowQmlImplD0Ev@Qt_5_PRIVATE_API 5.6.0
 _ZThn40_N19QQuickWindowQmlImplD1Ev@Qt_5_PRIVATE_API 5.6.0
 _ZZZNK15QQuickXAnimator12propertyNameEvENKUlvE_clEvE15qstring_literal@Qt_5_PRIVATE_API 5.6.0
 _ZZZNK15QQuickYAnimator12propertyNameEvENKUlvE_clEvE15qstring_literal@Qt_5_PRIVATE_API 5.6.0
 _ZZZNK19QQuickScaleAnimator12propertyNameEvENKUlvE_clEvE15qstring_literal@Qt_5_PRIVATE_API 5.6.0
 _ZZZNK21QQuickOpacityAnimator12propertyNameEvENKUlvE_clEvE15qstring_literal@Qt_5_PRIVATE_API 5.6.0
 _ZZZNK22QQuickRotationAnimator12propertyNameEvENKUlvE_clEvE15qstring_literal@Qt_5_PRIVATE_API 5.6.0
 _Zls6QDebugP10QQuickItem@Qt_5 5.6.0
 _Zls6QDebugPK11QSGRootNode@Qt_5 5.6.0
 _Zls6QDebugPK14QSGOpacityNode@Qt_5 5.6.0
 _Zls6QDebugPK15QSGGeometryNode@Qt_5 5.6.0
 _Zls6QDebugPK16QSGTransformNode@Qt_5 5.6.0
 _Zls6QDebugPK7QSGNode@Qt_5 5.6.0
