libQt5Script.so.5 libqt5script5 #MINVER#
 Qt_5.0@Qt_5.0 5.6.0
 Qt_5.1@Qt_5.1 5.6.0
 Qt_5.2@Qt_5.2 5.6.0
 Qt_5.3@Qt_5.3 5.6.0
 Qt_5.4@Qt_5.4 5.6.0
 Qt_5.5@Qt_5.5 5.6.0
 Qt_5.6@Qt_5.6 5.6.0
 Qt_5@Qt_5 5.6.0
 Qt_5_PRIVATE_API@Qt_5_PRIVATE_API 5.6.0
 _Z14qScriptConnectP7QObjectPKcRK12QScriptValueS5_@Qt_5 5.6.0
 _Z17qScriptDisconnectP7QObjectPKcRK12QScriptValueS5_@Qt_5 5.6.0
 _Z5qHashRK13QScriptString@Qt_5 5.6.0
 _ZN11QScriptableC1Ev@Qt_5 5.6.0
 _ZN11QScriptableC2Ev@Qt_5 5.6.0
 _ZN11QScriptableD1Ev@Qt_5 5.6.0
 _ZN11QScriptableD2Ev@Qt_5 5.6.0
 _ZN12QScriptClass11newIteratorERK12QScriptValue@Qt_5 5.6.0
 _ZN12QScriptClass11setPropertyER12QScriptValueRK13QScriptStringjRKS0_@Qt_5 5.6.0
 _ZN12QScriptClass13propertyFlagsERK12QScriptValueRK13QScriptStringj@Qt_5 5.6.0
 _ZN12QScriptClass13queryPropertyERK12QScriptValueRK13QScriptString6QFlagsINS_9QueryFlagEEPj@Qt_5 5.6.0
 _ZN12QScriptClass8propertyERK12QScriptValueRK13QScriptStringj@Qt_5 5.6.0
 _ZN12QScriptClass9extensionENS_9ExtensionERK8QVariant@Qt_5 5.6.0
 _ZN12QScriptClassC1EP13QScriptEngine@Qt_5 5.6.0
 _ZN12QScriptClassC1EP13QScriptEngineR19QScriptClassPrivate@Qt_5 5.6.0
 _ZN12QScriptClassC2EP13QScriptEngine@Qt_5 5.6.0
 _ZN12QScriptClassC2EP13QScriptEngineR19QScriptClassPrivate@Qt_5 5.6.0
 _ZN12QScriptClassD0Ev@Qt_5 5.6.0
 _ZN12QScriptClassD1Ev@Qt_5 5.6.0
 _ZN12QScriptClassD2Ev@Qt_5 5.6.0
 _ZN12QScriptValue11setPropertyERK13QScriptStringRKS_RK6QFlagsINS_12PropertyFlagEE@Qt_5 5.6.0
 _ZN12QScriptValue11setPropertyERK7QStringRKS_RK6QFlagsINS_12PropertyFlagEE@Qt_5 5.6.0
 _ZN12QScriptValue11setPropertyEjRKS_RK6QFlagsINS_12PropertyFlagEE@Qt_5 5.6.0
 _ZN12QScriptValue12setPrototypeERKS_@Qt_5 5.6.0
 _ZN12QScriptValue14setScriptClassEP12QScriptClass@Qt_5 5.6.0
 _ZN12QScriptValue4callERKS_RK5QListIS_E@Qt_5 5.6.0
 _ZN12QScriptValue4callERKS_S1_@Qt_5 5.6.0
 _ZN12QScriptValue7setDataERKS_@Qt_5 5.6.0
 _ZN12QScriptValue8setScopeERKS_@Qt_5 5.6.0
 _ZN12QScriptValue9constructERK5QListIS_E@Qt_5 5.6.0
 _ZN12QScriptValue9constructERKS_@Qt_5 5.6.0
 _ZN12QScriptValueC1ENS_12SpecialValueE@Qt_5 5.6.0
 _ZN12QScriptValueC1EP13QScriptEngineNS_12SpecialValueE@Qt_5 5.6.0
 _ZN12QScriptValueC1EP13QScriptEnginePKc@Qt_5 5.6.0
 _ZN12QScriptValueC1EP13QScriptEngineRK7QString@Qt_5 5.6.0
 _ZN12QScriptValueC1EP13QScriptEngineb@Qt_5 5.6.0
 _ZN12QScriptValueC1EP13QScriptEngined@Qt_5 5.6.0
 _ZN12QScriptValueC1EP13QScriptEnginei@Qt_5 5.6.0
 _ZN12QScriptValueC1EP13QScriptEnginej@Qt_5 5.6.0
 _ZN12QScriptValueC1EP19QScriptValuePrivate@Qt_5 5.6.0
 _ZN12QScriptValueC1EPKc@Qt_5 5.6.0
 _ZN12QScriptValueC1ERK13QLatin1String@Qt_5 5.6.0
 _ZN12QScriptValueC1ERK7QString@Qt_5 5.6.0
 _ZN12QScriptValueC1ERKS_@Qt_5 5.6.0
 _ZN12QScriptValueC1Eb@Qt_5 5.6.0
 _ZN12QScriptValueC1Ed@Qt_5 5.6.0
 _ZN12QScriptValueC1Ei@Qt_5 5.6.0
 _ZN12QScriptValueC1Ej@Qt_5 5.6.0
 _ZN12QScriptValueC1Ev@Qt_5 5.6.0
 _ZN12QScriptValueC2ENS_12SpecialValueE@Qt_5 5.6.0
 _ZN12QScriptValueC2EP13QScriptEngineNS_12SpecialValueE@Qt_5 5.6.0
 _ZN12QScriptValueC2EP13QScriptEnginePKc@Qt_5 5.6.0
 _ZN12QScriptValueC2EP13QScriptEngineRK7QString@Qt_5 5.6.0
 _ZN12QScriptValueC2EP13QScriptEngineb@Qt_5 5.6.0
 _ZN12QScriptValueC2EP13QScriptEngined@Qt_5 5.6.0
 _ZN12QScriptValueC2EP13QScriptEnginei@Qt_5 5.6.0
 _ZN12QScriptValueC2EP13QScriptEnginej@Qt_5 5.6.0
 _ZN12QScriptValueC2EP19QScriptValuePrivate@Qt_5 5.6.0
 _ZN12QScriptValueC2EPKc@Qt_5 5.6.0
 _ZN12QScriptValueC2ERK13QLatin1String@Qt_5 5.6.0
 _ZN12QScriptValueC2ERK7QString@Qt_5 5.6.0
 _ZN12QScriptValueC2ERKS_@Qt_5 5.6.0
 _ZN12QScriptValueC2Eb@Qt_5 5.6.0
 _ZN12QScriptValueC2Ed@Qt_5 5.6.0
 _ZN12QScriptValueC2Ei@Qt_5 5.6.0
 _ZN12QScriptValueC2Ej@Qt_5 5.6.0
 _ZN12QScriptValueC2Ev@Qt_5 5.6.0
 _ZN12QScriptValueD1Ev@Qt_5 5.6.0
 _ZN12QScriptValueD2Ev@Qt_5 5.6.0
 _ZN12QScriptValueaSERKS_@Qt_5 5.6.0
 _ZN13QScriptEngine10newQObjectEP7QObjectNS_14ValueOwnershipERK6QFlagsINS_17QObjectWrapOptionEE@Qt_5 5.6.0
 _ZN13QScriptEngine10newQObjectERK12QScriptValueP7QObjectNS_14ValueOwnershipERK6QFlagsINS_17QObjectWrapOptionEE@Qt_5 5.6.0
 _ZN13QScriptEngine10newVariantERK12QScriptValueRK8QVariant@Qt_5 5.6.0
 _ZN13QScriptEngine10newVariantERK8QVariant@Qt_5 5.6.0
 _ZN13QScriptEngine10popContextEv@Qt_5 5.6.0
 _ZN13QScriptEngine11checkSyntaxERK7QString@Qt_5 5.6.0
 _ZN13QScriptEngine11newFunctionEPF12QScriptValueP14QScriptContextPS_ERKS0_i@Qt_5 5.6.0
 _ZN13QScriptEngine11newFunctionEPF12QScriptValueP14QScriptContextPS_Ei@Qt_5 5.6.0
 _ZN13QScriptEngine11newFunctionEPF12QScriptValueP14QScriptContextPS_PvES4_@Qt_5 5.6.0
 _ZN13QScriptEngine11pushContextEv@Qt_5 5.6.0
 _ZN13QScriptEngine11qt_metacallEN11QMetaObject4CallEiPPv@Qt_5 5.6.0
 _ZN13QScriptEngine11qt_metacastEPKc@Qt_5 5.6.0
 _ZN13QScriptEngine14collectGarbageEv@Qt_5 5.6.0
 _ZN13QScriptEngine14newQMetaObjectEPK11QMetaObjectRK12QScriptValue@Qt_5 5.6.0
 _ZN13QScriptEngine14toStringHandleERK7QString@Qt_5 5.6.0
 _ZN13QScriptEngine14undefinedValueEv@Qt_5 5.6.0
 _ZN13QScriptEngine15abortEvaluationERK12QScriptValue@Qt_5 5.6.0
 _ZN13QScriptEngine15clearExceptionsEv@Qt_5 5.6.0
 _ZN13QScriptEngine15importExtensionERK7QString@Qt_5 5.6.0
 _ZN13QScriptEngine15setGlobalObjectERK12QScriptValue@Qt_5 5.6.0
 _ZN13QScriptEngine16staticMetaObjectE@Qt_5 5.6.0
 _ZN13QScriptEngine18registerCustomTypeEiPF12QScriptValuePS_PKvEPFvRKS0_PvES7_@Qt_5 5.6.0
 _ZN13QScriptEngine19newActivationObjectEv@Qt_5 5.6.0
 _ZN13QScriptEngine19setDefaultPrototypeEiRK12QScriptValue@Qt_5 5.6.0
 _ZN13QScriptEngine22signalHandlerExceptionERK12QScriptValue@Qt_5 5.6.0
 _ZN13QScriptEngine24setProcessEventsIntervalEi@Qt_5 5.6.0
 _ZN13QScriptEngine26installTranslatorFunctionsERK12QScriptValue@Qt_5 5.6.0
 _ZN13QScriptEngine26reportAdditionalMemoryCostEi@Qt_5 5.6.0
 _ZN13QScriptEngine6createEiPKv@Qt_5 5.6.0
 _ZN13QScriptEngine7convertERK12QScriptValueiPv@Qt_5 5.6.0
 _ZN13QScriptEngine7newDateERK9QDateTime@Qt_5 5.6.0
 _ZN13QScriptEngine7newDateEd@Qt_5 5.6.0
 _ZN13QScriptEngine8evaluateERK14QScriptProgram@Qt_5 5.6.0
 _ZN13QScriptEngine8evaluateERK7QStringS2_i@Qt_5 5.6.0
 _ZN13QScriptEngine8newArrayEj@Qt_5 5.6.0
 _ZN13QScriptEngine8setAgentEP18QScriptEngineAgent@Qt_5 5.6.0
 _ZN13QScriptEngine8toObjectERK12QScriptValue@Qt_5 5.6.0
 _ZN13QScriptEngine9convertV2ERK12QScriptValueiPv@Qt_5 5.6.0
 _ZN13QScriptEngine9newObjectEP12QScriptClassRK12QScriptValue@Qt_5 5.6.0
 _ZN13QScriptEngine9newObjectEv@Qt_5 5.6.0
 _ZN13QScriptEngine9newRegExpERK7QRegExp@Qt_5 5.6.0
 _ZN13QScriptEngine9newRegExpERK7QStringS2_@Qt_5 5.6.0
 _ZN13QScriptEngine9nullValueEv@Qt_5 5.6.0
 _ZN13QScriptEngineC1EP7QObject@Qt_5 5.6.0
 _ZN13QScriptEngineC1ER20QScriptEnginePrivateP7QObject@Qt_5 5.6.0
 _ZN13QScriptEngineC1Ev@Qt_5 5.6.0
 _ZN13QScriptEngineC2EP7QObject@Qt_5 5.6.0
 _ZN13QScriptEngineC2ER20QScriptEnginePrivateP7QObject@Qt_5 5.6.0
 _ZN13QScriptEngineC2Ev@Qt_5 5.6.0
 _ZN13QScriptEngineD0Ev@Qt_5 5.6.0
 _ZN13QScriptEngineD1Ev@Qt_5 5.6.0
 _ZN13QScriptEngineD2Ev@Qt_5 5.6.0
 _ZN13QScriptStringC1ERKS_@Qt_5 5.6.0
 _ZN13QScriptStringC1Ev@Qt_5 5.6.0
 _ZN13QScriptStringC2ERKS_@Qt_5 5.6.0
 _ZN13QScriptStringC2Ev@Qt_5 5.6.0
 _ZN13QScriptStringD1Ev@Qt_5 5.6.0
 _ZN13QScriptStringD2Ev@Qt_5 5.6.0
 _ZN13QScriptStringaSERKS_@Qt_5 5.6.0
 _ZN14QScriptContext10throwErrorENS_5ErrorERK7QString@Qt_5 5.6.0
 _ZN14QScriptContext10throwErrorERK7QString@Qt_5 5.6.0
 _ZN14QScriptContext10throwValueERK12QScriptValue@Qt_5 5.6.0
 _ZN14QScriptContext13setThisObjectERK12QScriptValue@Qt_5 5.6.0
 _ZN14QScriptContext14setReturnValueERK12QScriptValue@Qt_5 5.6.0
 _ZN14QScriptContext19setActivationObjectERK12QScriptValue@Qt_5 5.6.0
 _ZN14QScriptContext8popScopeEv@Qt_5 5.6.0
 _ZN14QScriptContext9pushScopeERK12QScriptValue@Qt_5 5.6.0
 _ZN14QScriptContextC1Ev@Qt_5 5.6.0
 _ZN14QScriptContextC2Ev@Qt_5 5.6.0
 _ZN14QScriptContextD1Ev@Qt_5 5.6.0
 _ZN14QScriptContextD2Ev@Qt_5 5.6.0
 _ZN14QScriptProgramC1ERK7QStringS0_i@Qt_5 5.6.0
 _ZN14QScriptProgramC1ERKS_@Qt_5 5.6.0
 _ZN14QScriptProgramC1Ev@Qt_5 5.6.0
 _ZN14QScriptProgramC2ERK7QStringS0_i@Qt_5 5.6.0
 _ZN14QScriptProgramC2ERKS_@Qt_5 5.6.0
 _ZN14QScriptProgramC2Ev@Qt_5 5.6.0
 _ZN14QScriptProgramD1Ev@Qt_5 5.6.0
 _ZN14QScriptProgramD2Ev@Qt_5 5.6.0
 _ZN14QScriptProgramaSERKS_@Qt_5 5.6.0
 _ZN18QScriptContextInfoC1EPK14QScriptContext@Qt_5 5.6.0
 _ZN18QScriptContextInfoC1ERKS_@Qt_5 5.6.0
 _ZN18QScriptContextInfoC1Ev@Qt_5 5.6.0
 _ZN18QScriptContextInfoC2EPK14QScriptContext@Qt_5 5.6.0
 _ZN18QScriptContextInfoC2ERKS_@Qt_5 5.6.0
 _ZN18QScriptContextInfoC2Ev@Qt_5 5.6.0
 _ZN18QScriptContextInfoD1Ev@Qt_5 5.6.0
 _ZN18QScriptContextInfoD2Ev@Qt_5 5.6.0
 _ZN18QScriptContextInfoaSERKS_@Qt_5 5.6.0
 _ZN18QScriptEngineAgent10contextPopEv@Qt_5 5.6.0
 _ZN18QScriptEngineAgent10scriptLoadExRK7QStringS2_i@Qt_5 5.6.0
 _ZN18QScriptEngineAgent11contextPushEv@Qt_5 5.6.0
 _ZN18QScriptEngineAgent12functionExitExRK12QScriptValue@Qt_5 5.6.0
 _ZN18QScriptEngineAgent12scriptUnloadEx@Qt_5 5.6.0
 _ZN18QScriptEngineAgent13functionEntryEx@Qt_5 5.6.0
 _ZN18QScriptEngineAgent14exceptionCatchExRK12QScriptValue@Qt_5 5.6.0
 _ZN18QScriptEngineAgent14exceptionThrowExRK12QScriptValueb@Qt_5 5.6.0
 _ZN18QScriptEngineAgent14positionChangeExii@Qt_5 5.6.0
 _ZN18QScriptEngineAgent9extensionENS_9ExtensionERK8QVariant@Qt_5 5.6.0
 _ZN18QScriptEngineAgentC1EP13QScriptEngine@Qt_5 5.6.0
 _ZN18QScriptEngineAgentC1ER25QScriptEngineAgentPrivateP13QScriptEngine@Qt_5_PRIVATE_API 5.6.0
 _ZN18QScriptEngineAgentC2EP13QScriptEngine@Qt_5 5.6.0
 _ZN18QScriptEngineAgentC2ER25QScriptEngineAgentPrivateP13QScriptEngine@Qt_5_PRIVATE_API 5.6.0
 _ZN18QScriptEngineAgentD0Ev@Qt_5 5.6.0
 _ZN18QScriptEngineAgentD1Ev@Qt_5 5.6.0
 _ZN18QScriptEngineAgentD2Ev@Qt_5 5.6.0
 _ZN20QScriptValueIterator4nextEv@Qt_5 5.6.0
 _ZN20QScriptValueIterator6removeEv@Qt_5 5.6.0
 _ZN20QScriptValueIterator6toBackEv@Qt_5 5.6.0
 _ZN20QScriptValueIterator7toFrontEv@Qt_5 5.6.0
 _ZN20QScriptValueIterator8previousEv@Qt_5 5.6.0
 _ZN20QScriptValueIterator8setValueERK12QScriptValue@Qt_5 5.6.0
 _ZN20QScriptValueIteratorC1ERK12QScriptValue@Qt_5 5.6.0
 _ZN20QScriptValueIteratorC2ERK12QScriptValue@Qt_5 5.6.0
 _ZN20QScriptValueIteratorD1Ev@Qt_5 5.6.0
 _ZN20QScriptValueIteratorD2Ev@Qt_5 5.6.0
 _ZN20QScriptValueIteratoraSER12QScriptValue@Qt_5 5.6.0
 _ZN22QScriptExtensionPlugin11qt_metacallEN11QMetaObject4CallEiPPv@Qt_5 5.6.0
 _ZN22QScriptExtensionPlugin11qt_metacastEPKc@Qt_5 5.6.0
 _ZN22QScriptExtensionPlugin16staticMetaObjectE@Qt_5 5.6.0
 _ZN22QScriptExtensionPluginC1EP7QObject@Qt_5 5.6.0
 _ZN22QScriptExtensionPluginC2EP7QObject@Qt_5 5.6.0
 _ZN22QScriptExtensionPluginD0Ev@Qt_5 5.6.0
 _ZN22QScriptExtensionPluginD1Ev@Qt_5 5.6.0
 _ZN22QScriptExtensionPluginD2Ev@Qt_5 5.6.0
 _ZN23QScriptDeclarativeClass11scriptClassERK12QScriptValue@Qt_5_PRIVATE_API 5.6.0
 _ZN23QScriptDeclarativeClass11setPropertyEPNS_6ObjectERKPvRK12QScriptValue@Qt_5_PRIVATE_API 5.6.0
 _ZN23QScriptDeclarativeClass12toArrayIndexERKPvPb@Qt_5_PRIVATE_API 5.6.0
 _ZN23QScriptDeclarativeClass13functionValueERK12QScriptValueRKPv@Qt_5_PRIVATE_API 5.6.0
 _ZN23QScriptDeclarativeClass13propertyFlagsEPNS_6ObjectERKPv@Qt_5_PRIVATE_API 5.6.0
 _ZN23QScriptDeclarativeClass13propertyNamesEPNS_6ObjectE@Qt_5_PRIVATE_API 5.6.0
 _ZN23QScriptDeclarativeClass13propertyValueERK12QScriptValueRKPv@Qt_5_PRIVATE_API 5.6.0
 _ZN23QScriptDeclarativeClass13queryPropertyEPNS_6ObjectERKPv6QFlagsIN12QScriptClass9QueryFlagEE@Qt_5_PRIVATE_API 5.6.0
 _ZN23QScriptDeclarativeClass14newObjectValueEP13QScriptEnginePS_PNS_6ObjectE@Qt_5_PRIVATE_API 5.6.0
 _ZN23QScriptDeclarativeClass15scopeChainValueEP14QScriptContexti@Qt_5_PRIVATE_API 5.6.0
 _ZN23QScriptDeclarativeClass15setSupportsCallEb@Qt_5_PRIVATE_API 5.6.0
 _ZN23QScriptDeclarativeClass15startsWithUpperERKPv@Qt_5_PRIVATE_API 5.6.0
 _ZN23QScriptDeclarativeClass16pushCleanContextEP13QScriptEngine@Qt_5_PRIVATE_API 5.6.0
 _ZN23QScriptDeclarativeClass20PersistentIdentifierC1ERKS0_@Qt_5_PRIVATE_API 5.6.0
 _ZN23QScriptDeclarativeClass20PersistentIdentifierC1Ev@Qt_5_PRIVATE_API 5.6.0
 _ZN23QScriptDeclarativeClass20PersistentIdentifierC2ERKS0_@Qt_5_PRIVATE_API 5.6.0
 _ZN23QScriptDeclarativeClass20PersistentIdentifierC2Ev@Qt_5_PRIVATE_API 5.6.0
 _ZN23QScriptDeclarativeClass20PersistentIdentifierD1Ev@Qt_5_PRIVATE_API 5.6.0
 _ZN23QScriptDeclarativeClass20PersistentIdentifierD2Ev@Qt_5_PRIVATE_API 5.6.0
 _ZN23QScriptDeclarativeClass20PersistentIdentifieraSERKS0_@Qt_5_PRIVATE_API 5.6.0
 _ZN23QScriptDeclarativeClass20newStaticScopeObjectEP13QScriptEngine@Qt_5_PRIVATE_API 5.6.0
 _ZN23QScriptDeclarativeClass20newStaticScopeObjectEP13QScriptEngineiPK7QStringPK12QScriptValuePK6QFlagsINS5_12PropertyFlagEE@Qt_5_PRIVATE_API 5.6.0
 _ZN23QScriptDeclarativeClass26createPersistentIdentifierERK7QString@Qt_5_PRIVATE_API 5.6.0
 _ZN23QScriptDeclarativeClass26createPersistentIdentifierERKPv@Qt_5_PRIVATE_API 5.6.0
 _ZN23QScriptDeclarativeClass4callEPNS_6ObjectEP14QScriptContext@Qt_5_PRIVATE_API 5.6.0
 _ZN23QScriptDeclarativeClass5ValueC1EP13QScriptEngineRK12QScriptValue@Qt_5_PRIVATE_API 5.6.0
 _ZN23QScriptDeclarativeClass5ValueC1EP13QScriptEngineRK7QString@Qt_5_PRIVATE_API 5.6.0
 _ZN23QScriptDeclarativeClass5ValueC1EP13QScriptEngineb@Qt_5_PRIVATE_API 5.6.0
 _ZN23QScriptDeclarativeClass5ValueC1EP13QScriptEngined@Qt_5_PRIVATE_API 5.6.0
 _ZN23QScriptDeclarativeClass5ValueC1EP13QScriptEnginef@Qt_5_PRIVATE_API 5.6.0
 _ZN23QScriptDeclarativeClass5ValueC1EP13QScriptEnginei@Qt_5_PRIVATE_API 5.6.0
 _ZN23QScriptDeclarativeClass5ValueC1EP13QScriptEnginej@Qt_5_PRIVATE_API 5.6.0
 _ZN23QScriptDeclarativeClass5ValueC1EP14QScriptContextRK12QScriptValue@Qt_5_PRIVATE_API 5.6.0
 _ZN23QScriptDeclarativeClass5ValueC1EP14QScriptContextRK7QString@Qt_5_PRIVATE_API 5.6.0
 _ZN23QScriptDeclarativeClass5ValueC1EP14QScriptContextb@Qt_5_PRIVATE_API 5.6.0
 _ZN23QScriptDeclarativeClass5ValueC1EP14QScriptContextd@Qt_5_PRIVATE_API 5.6.0
 _ZN23QScriptDeclarativeClass5ValueC1EP14QScriptContextf@Qt_5_PRIVATE_API 5.6.0
 _ZN23QScriptDeclarativeClass5ValueC1EP14QScriptContexti@Qt_5_PRIVATE_API 5.6.0
 _ZN23QScriptDeclarativeClass5ValueC1EP14QScriptContextj@Qt_5_PRIVATE_API 5.6.0
 _ZN23QScriptDeclarativeClass5ValueC1ERKS0_@Qt_5_PRIVATE_API 5.6.0
 _ZN23QScriptDeclarativeClass5ValueC1Ev@Qt_5_PRIVATE_API 5.6.0
 _ZN23QScriptDeclarativeClass5ValueC2EP13QScriptEngineRK12QScriptValue@Qt_5_PRIVATE_API 5.6.0
 _ZN23QScriptDeclarativeClass5ValueC2EP13QScriptEngineRK7QString@Qt_5_PRIVATE_API 5.6.0
 _ZN23QScriptDeclarativeClass5ValueC2EP13QScriptEngineb@Qt_5_PRIVATE_API 5.6.0
 _ZN23QScriptDeclarativeClass5ValueC2EP13QScriptEngined@Qt_5_PRIVATE_API 5.6.0
 _ZN23QScriptDeclarativeClass5ValueC2EP13QScriptEnginef@Qt_5_PRIVATE_API 5.6.0
 _ZN23QScriptDeclarativeClass5ValueC2EP13QScriptEnginei@Qt_5_PRIVATE_API 5.6.0
 _ZN23QScriptDeclarativeClass5ValueC2EP13QScriptEnginej@Qt_5_PRIVATE_API 5.6.0
 _ZN23QScriptDeclarativeClass5ValueC2EP14QScriptContextRK12QScriptValue@Qt_5_PRIVATE_API 5.6.0
 _ZN23QScriptDeclarativeClass5ValueC2EP14QScriptContextRK7QString@Qt_5_PRIVATE_API 5.6.0
 _ZN23QScriptDeclarativeClass5ValueC2EP14QScriptContextb@Qt_5_PRIVATE_API 5.6.0
 _ZN23QScriptDeclarativeClass5ValueC2EP14QScriptContextd@Qt_5_PRIVATE_API 5.6.0
 _ZN23QScriptDeclarativeClass5ValueC2EP14QScriptContextf@Qt_5_PRIVATE_API 5.6.0
 _ZN23QScriptDeclarativeClass5ValueC2EP14QScriptContexti@Qt_5_PRIVATE_API 5.6.0
 _ZN23QScriptDeclarativeClass5ValueC2EP14QScriptContextj@Qt_5_PRIVATE_API 5.6.0
 _ZN23QScriptDeclarativeClass5ValueC2ERKS0_@Qt_5_PRIVATE_API 5.6.0
 _ZN23QScriptDeclarativeClass5ValueC2Ev@Qt_5_PRIVATE_API 5.6.0
 _ZN23QScriptDeclarativeClass5ValueD1Ev@Qt_5_PRIVATE_API 5.6.0
 _ZN23QScriptDeclarativeClass5ValueD2Ev@Qt_5_PRIVATE_API 5.6.0
 _ZN23QScriptDeclarativeClass6objectERK12QScriptValue@Qt_5_PRIVATE_API 5.6.0
 _ZN23QScriptDeclarativeClass7compareEPNS_6ObjectES1_@Qt_5_PRIVATE_API 5.6.0
 _ZN23QScriptDeclarativeClass8functionERK12QScriptValueRKPv@Qt_5_PRIVATE_API 5.6.0
 _ZN23QScriptDeclarativeClass8propertyEPNS_6ObjectERKPv@Qt_5_PRIVATE_API 5.6.0
 _ZN23QScriptDeclarativeClass8propertyERK12QScriptValueRKPv@Qt_5_PRIVATE_API 5.6.0
 _ZN23QScriptDeclarativeClass8toStringERKPv@Qt_5_PRIVATE_API 5.6.0
 _ZN23QScriptDeclarativeClass9newObjectEP13QScriptEnginePS_PNS_6ObjectE@Qt_5_PRIVATE_API 5.6.0
 _ZN23QScriptDeclarativeClass9toQObjectEPNS_6ObjectEPb@Qt_5_PRIVATE_API 5.6.0
 _ZN23QScriptDeclarativeClass9toVariantEPNS_6ObjectEPb@Qt_5_PRIVATE_API 5.6.0
 _ZN23QScriptDeclarativeClassC1EP13QScriptEngine@Qt_5_PRIVATE_API 5.6.0
 _ZN23QScriptDeclarativeClassC2EP13QScriptEngine@Qt_5_PRIVATE_API 5.6.0
 _ZN23QScriptDeclarativeClassD0Ev@Qt_5_PRIVATE_API 5.6.0
 _ZN23QScriptDeclarativeClassD1Ev@Qt_5_PRIVATE_API 5.6.0
 _ZN23QScriptDeclarativeClassD2Ev@Qt_5_PRIVATE_API 5.6.0
 _ZN24QScriptSyntaxCheckResultC1EP31QScriptSyntaxCheckResultPrivate@Qt_5 5.6.0
 _ZN24QScriptSyntaxCheckResultC1ERKS_@Qt_5 5.6.0
 _ZN24QScriptSyntaxCheckResultC1Ev@Qt_5 5.6.0
 _ZN24QScriptSyntaxCheckResultC2EP31QScriptSyntaxCheckResultPrivate@Qt_5 5.6.0
 _ZN24QScriptSyntaxCheckResultC2ERKS_@Qt_5 5.6.0
 _ZN24QScriptSyntaxCheckResultC2Ev@Qt_5 5.6.0
 _ZN24QScriptSyntaxCheckResultD1Ev@Qt_5 5.6.0
 _ZN24QScriptSyntaxCheckResultD2Ev@Qt_5 5.6.0
 _ZN24QScriptSyntaxCheckResultaSERKS_@Qt_5 5.6.0
 _ZN25QScriptEngineAgentPrivate11atStatementERKN5QTJSC17DebuggerCallFrameEli@Qt_5_PRIVATE_API 5.6.0
 _ZN25QScriptEngineAgentPrivate11returnEventERKN5QTJSC17DebuggerCallFrameEli@Qt_5_PRIVATE_API 5.6.0
 _ZN25QScriptEngineAgentPrivate12evaluateStopERKN5QTJSC7JSValueEl@Qt_5_PRIVATE_API 5.6.0
 _ZN25QScriptEngineAgentPrivate12functionExitERKN5QTJSC7JSValueEl@Qt_5_PRIVATE_API 5.6.0
 _ZN25QScriptEngineAgentPrivate14exceptionCatchERKN5QTJSC17DebuggerCallFrameEl@Qt_5_PRIVATE_API 5.6.0
 _ZN25QScriptEngineAgentPrivate14exceptionThrowERKN5QTJSC17DebuggerCallFrameElb@Qt_5_PRIVATE_API 5.6.0
 _ZN25QScriptEngineAgentPrivate18didReachBreakpointERKN5QTJSC17DebuggerCallFrameEli@Qt_5_PRIVATE_API 5.6.0
 _ZN25QScriptEngineAgentPrivate6attachEv@Qt_5_PRIVATE_API 5.6.0
 _ZN25QScriptEngineAgentPrivate6detachEv@Qt_5_PRIVATE_API 5.6.0
 _ZN28QScriptClassPropertyIteratorC1ERK12QScriptValue@Qt_5 5.6.0
 _ZN28QScriptClassPropertyIteratorC1ERK12QScriptValueR35QScriptClassPropertyIteratorPrivate@Qt_5 5.6.0
 _ZN28QScriptClassPropertyIteratorC2ERK12QScriptValue@Qt_5 5.6.0
 _ZN28QScriptClassPropertyIteratorC2ERK12QScriptValueR35QScriptClassPropertyIteratorPrivate@Qt_5 5.6.0
 _ZN28QScriptClassPropertyIteratorD0Ev@Qt_5 5.6.0
 _ZN28QScriptClassPropertyIteratorD1Ev@Qt_5 5.6.0
 _ZN28QScriptClassPropertyIteratorD2Ev@Qt_5 5.6.0
 _ZNK11QScriptable10thisObjectEv@Qt_5 5.6.0
 _ZNK11QScriptable13argumentCountEv@Qt_5 5.6.0
 _ZNK11QScriptable6engineEv@Qt_5 5.6.0
 _ZNK11QScriptable7contextEv@Qt_5 5.6.0
 _ZNK11QScriptable8argumentEi@Qt_5 5.6.0
 _ZNK12QScriptClass17supportsExtensionENS_9ExtensionE@Qt_5 5.6.0
 _ZNK12QScriptClass4nameEv@Qt_5 5.6.0
 _ZNK12QScriptClass6engineEv@Qt_5 5.6.0
 _ZNK12QScriptClass9prototypeEv@Qt_5 5.6.0
 _ZNK12QScriptValue10instanceOfERKS_@Qt_5 5.6.0
 _ZNK12QScriptValue10isFunctionEv@Qt_5 5.6.0
 _ZNK12QScriptValue10toDateTimeEv@Qt_5 5.6.0
 _ZNK12QScriptValue11isUndefinedEv@Qt_5 5.6.0
 _ZNK12QScriptValue11scriptClassEv@Qt_5 5.6.0
 _ZNK12QScriptValue13isQMetaObjectEv@Qt_5 5.6.0
 _ZNK12QScriptValue13propertyFlagsERK13QScriptStringRK6QFlagsINS_11ResolveFlagEE@Qt_5 5.6.0
 _ZNK12QScriptValue13propertyFlagsERK7QStringRK6QFlagsINS_11ResolveFlagEE@Qt_5 5.6.0
 _ZNK12QScriptValue13toQMetaObjectEv@Qt_5 5.6.0
 _ZNK12QScriptValue14strictlyEqualsERKS_@Qt_5 5.6.0
 _ZNK12QScriptValue4dataEv@Qt_5 5.6.0
 _ZNK12QScriptValue5scopeEv@Qt_5 5.6.0
 _ZNK12QScriptValue6engineEv@Qt_5 5.6.0
 _ZNK12QScriptValue6equalsERKS_@Qt_5 5.6.0
 _ZNK12QScriptValue6isBoolEv@Qt_5 5.6.0
 _ZNK12QScriptValue6isDateEv@Qt_5 5.6.0
 _ZNK12QScriptValue6isNullEv@Qt_5 5.6.0
 _ZNK12QScriptValue6toBoolEv@Qt_5 5.6.0
 _ZNK12QScriptValue7isArrayEv@Qt_5 5.6.0
 _ZNK12QScriptValue7isErrorEv@Qt_5 5.6.0
 _ZNK12QScriptValue7isValidEv@Qt_5 5.6.0
 _ZNK12QScriptValue7toInt32Ev@Qt_5 5.6.0
 _ZNK12QScriptValue8isNumberEv@Qt_5 5.6.0
 _ZNK12QScriptValue8isObjectEv@Qt_5 5.6.0
 _ZNK12QScriptValue8isRegExpEv@Qt_5 5.6.0
 _ZNK12QScriptValue8isStringEv@Qt_5 5.6.0
 _ZNK12QScriptValue8lessThanERKS_@Qt_5 5.6.0
 _ZNK12QScriptValue8objectIdEv@Qt_5 5.6.0
 _ZNK12QScriptValue8propertyERK13QScriptStringRK6QFlagsINS_11ResolveFlagEE@Qt_5 5.6.0
 _ZNK12QScriptValue8propertyERK7QStringRK6QFlagsINS_11ResolveFlagEE@Qt_5 5.6.0
 _ZNK12QScriptValue8propertyEjRK6QFlagsINS_11ResolveFlagEE@Qt_5 5.6.0
 _ZNK12QScriptValue8toNumberEv@Qt_5 5.6.0
 _ZNK12QScriptValue8toObjectEv@Qt_5 5.6.0
 _ZNK12QScriptValue8toRegExpEv@Qt_5 5.6.0
 _ZNK12QScriptValue8toStringEv@Qt_5 5.6.0
 _ZNK12QScriptValue8toUInt16Ev@Qt_5 5.6.0
 _ZNK12QScriptValue8toUInt32Ev@Qt_5 5.6.0
 _ZNK12QScriptValue9isBooleanEv@Qt_5 5.6.0
 _ZNK12QScriptValue9isQObjectEv@Qt_5 5.6.0
 _ZNK12QScriptValue9isVariantEv@Qt_5 5.6.0
 _ZNK12QScriptValue9prototypeEv@Qt_5 5.6.0
 _ZNK12QScriptValue9toBooleanEv@Qt_5 5.6.0
 _ZNK12QScriptValue9toIntegerEv@Qt_5 5.6.0
 _ZNK12QScriptValue9toQObjectEv@Qt_5 5.6.0
 _ZNK12QScriptValue9toVariantEv@Qt_5 5.6.0
 _ZNK13QScriptEngine10metaObjectEv@Qt_5 5.6.0
 _ZNK13QScriptEngine10objectByIdEx@Qt_5 5.6.0
 _ZNK13QScriptEngine11canEvaluateERK7QString@Qt_5 5.6.0
 _ZNK13QScriptEngine12globalObjectEv@Qt_5 5.6.0
 _ZNK13QScriptEngine12isEvaluatingEv@Qt_5 5.6.0
 _ZNK13QScriptEngine14currentContextEv@Qt_5 5.6.0
 _ZNK13QScriptEngine16defaultPrototypeEi@Qt_5 5.6.0
 _ZNK13QScriptEngine17uncaughtExceptionEv@Qt_5 5.6.0
 _ZNK13QScriptEngine18importedExtensionsEv@Qt_5 5.6.0
 _ZNK13QScriptEngine19availableExtensionsEv@Qt_5 5.6.0
 _ZNK13QScriptEngine20hasUncaughtExceptionEv@Qt_5 5.6.0
 _ZNK13QScriptEngine21processEventsIntervalEv@Qt_5 5.6.0
 _ZNK13QScriptEngine26uncaughtExceptionBacktraceEv@Qt_5 5.6.0
 _ZNK13QScriptEngine27uncaughtExceptionLineNumberEv@Qt_5 5.6.0
 _ZNK13QScriptEngine5agentEv@Qt_5 5.6.0
 _ZNK13QScriptString12toArrayIndexEPb@Qt_5 5.6.0
 _ZNK13QScriptString7isValidEv@Qt_5 5.6.0
 _ZNK13QScriptString8toStringEv@Qt_5 5.6.0
 _ZNK13QScriptStringcv7QStringEv@Qt_5 5.6.0
 _ZNK13QScriptStringeqERKS_@Qt_5 5.6.0
 _ZNK13QScriptStringneERKS_@Qt_5 5.6.0
 _ZNK14QScriptContext10scopeChainEv@Qt_5 5.6.0
 _ZNK14QScriptContext10thisObjectEv@Qt_5 5.6.0
 _ZNK14QScriptContext11returnValueEv@Qt_5 5.6.0
 _ZNK14QScriptContext13argumentCountEv@Qt_5 5.6.0
 _ZNK14QScriptContext13parentContextEv@Qt_5 5.6.0
 _ZNK14QScriptContext15argumentsObjectEv@Qt_5 5.6.0
 _ZNK14QScriptContext16activationObjectEv@Qt_5 5.6.0
 _ZNK14QScriptContext21isCalledAsConstructorEv@Qt_5 5.6.0
 _ZNK14QScriptContext5stateEv@Qt_5 5.6.0
 _ZNK14QScriptContext6calleeEv@Qt_5 5.6.0
 _ZNK14QScriptContext6engineEv@Qt_5 5.6.0
 _ZNK14QScriptContext8argumentEi@Qt_5 5.6.0
 _ZNK14QScriptContext8toStringEv@Qt_5 5.6.0
 _ZNK14QScriptContext9backtraceEv@Qt_5 5.6.0
 _ZNK14QScriptProgram10sourceCodeEv@Qt_5 5.6.0
 _ZNK14QScriptProgram15firstLineNumberEv@Qt_5 5.6.0
 _ZNK14QScriptProgram6isNullEv@Qt_5 5.6.0
 _ZNK14QScriptProgram8fileNameEv@Qt_5 5.6.0
 _ZNK14QScriptProgrameqERKS_@Qt_5 5.6.0
 _ZNK14QScriptProgramneERKS_@Qt_5 5.6.0
 _ZNK18QScriptContextInfo10lineNumberEv@Qt_5 5.6.0
 _ZNK18QScriptContextInfo12columnNumberEv@Qt_5 5.6.0
 _ZNK18QScriptContextInfo12functionNameEv@Qt_5 5.6.0
 _ZNK18QScriptContextInfo12functionTypeEv@Qt_5 5.6.0
 _ZNK18QScriptContextInfo17functionMetaIndexEv@Qt_5 5.6.0
 _ZNK18QScriptContextInfo21functionEndLineNumberEv@Qt_5 5.6.0
 _ZNK18QScriptContextInfo22functionParameterNamesEv@Qt_5 5.6.0
 _ZNK18QScriptContextInfo23functionStartLineNumberEv@Qt_5 5.6.0
 _ZNK18QScriptContextInfo6isNullEv@Qt_5 5.6.0
 _ZNK18QScriptContextInfo8fileNameEv@Qt_5 5.6.0
 _ZNK18QScriptContextInfo8scriptIdEv@Qt_5 5.6.0
 _ZNK18QScriptContextInfoeqERKS_@Qt_5 5.6.0
 _ZNK18QScriptContextInfoneERKS_@Qt_5 5.6.0
 _ZNK18QScriptEngineAgent17supportsExtensionENS_9ExtensionE@Qt_5 5.6.0
 _ZNK18QScriptEngineAgent6engineEv@Qt_5 5.6.0
 _ZNK20QScriptValueIterator10scriptNameEv@Qt_5 5.6.0
 _ZNK20QScriptValueIterator11hasPreviousEv@Qt_5 5.6.0
 _ZNK20QScriptValueIterator4nameEv@Qt_5 5.6.0
 _ZNK20QScriptValueIterator5flagsEv@Qt_5 5.6.0
 _ZNK20QScriptValueIterator5valueEv@Qt_5 5.6.0
 _ZNK20QScriptValueIterator7hasNextEv@Qt_5 5.6.0
 _ZNK22QScriptExtensionPlugin10metaObjectEv@Qt_5 5.6.0
 _ZNK22QScriptExtensionPlugin12setupPackageERK7QStringP13QScriptEngine@Qt_5 5.6.0
 _ZNK23QScriptDeclarativeClass12supportsCallEv@Qt_5_PRIVATE_API 5.6.0
 _ZNK23QScriptDeclarativeClass20PersistentIdentifier8toStringEv@Qt_5_PRIVATE_API 5.6.0
 _ZNK23QScriptDeclarativeClass5Value13toScriptValueEP13QScriptEngine@Qt_5_PRIVATE_API 5.6.0
 _ZNK23QScriptDeclarativeClass6engineEv@Qt_5_PRIVATE_API 5.6.0
 _ZNK23QScriptDeclarativeClass7contextEv@Qt_5_PRIVATE_API 5.6.0
 _ZNK23QScriptDeclarativeClass9isQObjectEv@Qt_5_PRIVATE_API 5.6.0
 _ZNK24QScriptSyntaxCheckResult12errorMessageEv@Qt_5 5.6.0
 _ZNK24QScriptSyntaxCheckResult15errorLineNumberEv@Qt_5 5.6.0
 _ZNK24QScriptSyntaxCheckResult17errorColumnNumberEv@Qt_5 5.6.0
 _ZNK24QScriptSyntaxCheckResult5stateEv@Qt_5 5.6.0
 _ZNK28QScriptClassPropertyIterator2idEv@Qt_5 5.6.0
 _ZNK28QScriptClassPropertyIterator5flagsEv@Qt_5 5.6.0
 _ZNK28QScriptClassPropertyIterator6objectEv@Qt_5 5.6.0
 _ZTI12QScriptClass@Qt_5 5.6.0
 _ZTI13QScriptEngine@Qt_5 5.6.0
 _ZTI18QScriptEngineAgent@Qt_5 5.6.0
 _ZTI22QScriptExtensionPlugin@Qt_5 5.6.0
 _ZTI23QScriptDeclarativeClass@Qt_5_PRIVATE_API 5.6.0
 _ZTI25QScriptEngineAgentPrivate@Qt_5_PRIVATE_API 5.6.0
 _ZTI25QScriptExtensionInterface@Qt_5 5.6.0
 _ZTI28QScriptClassPropertyIterator@Qt_5 5.6.0
 _ZTIN23QScriptDeclarativeClass6ObjectE@Qt_5_PRIVATE_API 5.6.0
 _ZTS12QScriptClass@Qt_5 5.6.0
 _ZTS13QScriptEngine@Qt_5 5.6.0
 _ZTS18QScriptEngineAgent@Qt_5 5.6.0
 _ZTS22QScriptExtensionPlugin@Qt_5 5.6.0
 _ZTS23QScriptDeclarativeClass@Qt_5_PRIVATE_API 5.6.0
 _ZTS25QScriptEngineAgentPrivate@Qt_5_PRIVATE_API 5.6.0
 _ZTS25QScriptExtensionInterface@Qt_5 5.6.0
 _ZTS28QScriptClassPropertyIterator@Qt_5 5.6.0
 _ZTSN23QScriptDeclarativeClass6ObjectE@Qt_5_PRIVATE_API 5.6.0
 _ZTV12QScriptClass@Qt_5 5.6.0
 _ZTV13QScriptEngine@Qt_5 5.6.0
 _ZTV18QScriptEngineAgent@Qt_5 5.6.0
 _ZTV22QScriptExtensionPlugin@Qt_5 5.6.0
 _ZTV23QScriptDeclarativeClass@Qt_5_PRIVATE_API 5.6.0
 _ZTV25QScriptEngineAgentPrivate@Qt_5_PRIVATE_API 5.6.0
 _ZTV25QScriptExtensionInterface@Qt_5 5.6.0
 _ZTV28QScriptClassPropertyIterator@Qt_5 5.6.0
 _ZTVN23QScriptDeclarativeClass6ObjectE@Qt_5_PRIVATE_API 5.6.0
 _ZThn16_N22QScriptExtensionPluginD0Ev@Qt_5 5.6.0
 _ZThn16_N22QScriptExtensionPluginD1Ev@Qt_5 5.6.0
 _ZlsR11QDataStreamRK18QScriptContextInfo@Qt_5 5.6.0
 _ZrsR11QDataStreamR18QScriptContextInfo@Qt_5 5.6.0
