libQt5ScriptTools.so.5 libqt5scripttools5 #MINVER#
 Qt_5.0@Qt_5.0 5.6.0
 Qt_5.1@Qt_5.1 5.6.0
 Qt_5.2@Qt_5.2 5.6.0
 Qt_5.3@Qt_5.3 5.6.0
 Qt_5.4@Qt_5.4 5.6.0
 Qt_5.5@Qt_5.5 5.6.0
 Qt_5.6@Qt_5.6 5.6.0
 Qt_5@Qt_5 5.6.0
 Qt_5_PRIVATE_API@Qt_5_PRIVATE_API 5.6.0
 _ZN21QScriptEngineDebugger11qt_metacallEN11QMetaObject4CallEiPPv@Qt_5 5.6.0
 _ZN21QScriptEngineDebugger11qt_metacastEPKc@Qt_5 5.6.0
 _ZN21QScriptEngineDebugger16staticMetaObjectE@Qt_5 5.6.0
 _ZN21QScriptEngineDebugger17evaluationResumedEv@Qt_5 5.6.0
 _ZN21QScriptEngineDebugger18createStandardMenuEP7QWidget@Qt_5 5.6.0
 _ZN21QScriptEngineDebugger19evaluationSuspendedEv@Qt_5 5.6.0
 _ZN21QScriptEngineDebugger21createStandardToolBarEP7QWidget@Qt_5 5.6.0
 _ZN21QScriptEngineDebugger25setAutoShowStandardWindowEb@Qt_5 5.6.0
 _ZN21QScriptEngineDebugger6detachEv@Qt_5 5.6.0
 _ZN21QScriptEngineDebugger8attachToEP13QScriptEngine@Qt_5 5.6.0
 _ZN21QScriptEngineDebuggerC1EP7QObject@Qt_5 5.6.0
 _ZN21QScriptEngineDebuggerC2EP7QObject@Qt_5 5.6.0
 _ZN21QScriptEngineDebuggerD0Ev@Qt_5 5.6.0
 _ZN21QScriptEngineDebuggerD1Ev@Qt_5 5.6.0
 _ZN21QScriptEngineDebuggerD2Ev@Qt_5 5.6.0
 _ZNK21QScriptEngineDebugger10metaObjectEv@Qt_5 5.6.0
 _ZNK21QScriptEngineDebugger14standardWindowEv@Qt_5 5.6.0
 _ZNK21QScriptEngineDebugger22autoShowStandardWindowEv@Qt_5 5.6.0
 _ZNK21QScriptEngineDebugger5stateEv@Qt_5 5.6.0
 _ZNK21QScriptEngineDebugger6actionENS_14DebuggerActionE@Qt_5 5.6.0
 _ZNK21QScriptEngineDebugger6widgetENS_14DebuggerWidgetE@Qt_5 5.6.0
 _ZTI21QScriptEngineDebugger@Qt_5 5.6.0
 _ZTS21QScriptEngineDebugger@Qt_5 5.6.0
 _ZTV21QScriptEngineDebugger@Qt_5 5.6.0
