# SymbolsHelper-Confirmed: 5.7.0 amd64
libQt5Help.so.5 libqt5help5 #MINVER#
* Build-Depends-Package: qttools5-dev
 Qt_5.0@Qt_5.0 5.6.0~beta
 Qt_5.1@Qt_5.1 5.6.0~beta
 Qt_5.2@Qt_5.2 5.6.0~beta
 Qt_5.3@Qt_5.3 5.6.0~beta
 Qt_5.4@Qt_5.4 5.6.0~beta
 Qt_5.5@Qt_5.5 5.6.0~beta
 Qt_5.6@Qt_5.6 5.6.0~beta
 Qt_5.7@Qt_5.7 5.7.0
 Qt_5@Qt_5 5.6.0~beta
 Qt_5_PRIVATE_API@Qt_5_PRIVATE_API 5.6.0~beta
 _ZN11QHelpEngine11indexWidgetEv@Qt_5 5.6.0~beta
 _ZN11QHelpEngine11qt_metacallEN11QMetaObject4CallEiPPv@Qt_5 5.6.0~beta
 _ZN11QHelpEngine11qt_metacastEPKc@Qt_5 5.6.0~beta
 _ZN11QHelpEngine12searchEngineEv@Qt_5 5.6.0~beta
 _ZN11QHelpEngine13contentWidgetEv@Qt_5 5.6.0~beta
 _ZN11QHelpEngine16staticMetaObjectE@Qt_5 5.6.0~beta
 _ZN11QHelpEngineC1ERK7QStringP7QObject@Qt_5 5.6.0~beta
 _ZN11QHelpEngineC2ERK7QStringP7QObject@Qt_5 5.6.0~beta
 _ZN11QHelpEngineD0Ev@Qt_5 5.6.0~beta
 _ZN11QHelpEngineD1Ev@Qt_5 5.6.0~beta
 _ZN11QHelpEngineD2Ev@Qt_5 5.6.0~beta
 _ZN14QHelpGenerator10checkLinksERK18QHelpDataInterface@Qt_5 5.6.0~beta
 _ZN14QHelpGenerator11addProgressEd@Qt_5 5.6.0~beta
 _ZN14QHelpGenerator11insertFilesERK11QStringListRK7QStringS2_@Qt_5 5.6.0~beta
 _ZN14QHelpGenerator11qt_metacallEN11QMetaObject4CallEiPPv@Qt_5 5.6.0~beta
 _ZN14QHelpGenerator11qt_metacastEPKc@Qt_5 5.6.0~beta
 _ZN14QHelpGenerator12createTablesEv@Qt_5 5.6.0~beta
 _ZN14QHelpGenerator13setupProgressEP18QHelpDataInterface@Qt_5 5.6.0~beta
 _ZN14QHelpGenerator13statusChangedERK7QString@Qt_5 5.6.0~beta
 _ZN14QHelpGenerator14insertContentsERK10QByteArrayRK11QStringList@Qt_5 5.6.0~beta
 _ZN14QHelpGenerator14insertKeywordsERK5QListI18QHelpDataIndexItemERK11QStringList@Qt_5 5.6.0~beta
 _ZN14QHelpGenerator14insertMetaDataERK4QMapI7QString8QVariantE@Qt_5 5.6.0~beta
 _ZN14QHelpGenerator15progressChangedEd@Qt_5 5.6.0~beta
 _ZN14QHelpGenerator16staticMetaObjectE@Qt_5 5.6.0~beta
 _ZN14QHelpGenerator20registerCustomFilterERK7QStringRK11QStringListb@Qt_5 5.6.0~beta
 _ZN14QHelpGenerator21registerVirtualFolderERK7QStringS2_@Qt_5 5.6.0~beta
 _ZN14QHelpGenerator22insertFileNotFoundFileEv@Qt_5 5.6.0~beta
 _ZN14QHelpGenerator22insertFilterAttributesERK11QStringList@Qt_5 5.6.0~beta
 _ZN14QHelpGenerator7warningERK7QString@Qt_5 5.6.0~beta
 _ZN14QHelpGenerator8generateEP18QHelpDataInterfaceRK7QString@Qt_5 5.6.0~beta
 _ZN14QHelpGenerator9cleanupDBEv@Qt_5 5.6.0~beta
 _ZN14QHelpGenerator9writeTreeER11QDataStreamP20QHelpDataContentItemi@Qt_5 5.6.0~beta
 _ZN14QHelpGeneratorC1EP7QObject@Qt_5 5.6.0~beta
 _ZN14QHelpGeneratorC2EP7QObject@Qt_5 5.6.0~beta
 _ZN14QHelpGeneratorD0Ev@Qt_5 5.6.0~beta
 _ZN14QHelpGeneratorD1Ev@Qt_5 5.6.0~beta
 _ZN14QHelpGeneratorD2Ev@Qt_5 5.6.0~beta
 _ZN15QHelpEngineCore11qt_metacallEN11QMetaObject4CallEiPPv@Qt_5 5.6.0~beta
 _ZN15QHelpEngineCore11qt_metacastEPKc@Qt_5 5.6.0~beta
 _ZN15QHelpEngineCore12setupStartedEv@Qt_5 5.6.0~beta
 _ZN15QHelpEngineCore13namespaceNameERK7QString@Qt_5 5.6.0~beta
 _ZN15QHelpEngineCore13setupFinishedEv@Qt_5 5.6.0~beta
 _ZN15QHelpEngineCore14setCustomValueERK7QStringRK8QVariant@Qt_5 5.6.0~beta
 _ZN15QHelpEngineCore15addCustomFilterERK7QStringRK11QStringList@Qt_5 5.6.0~beta
 _ZN15QHelpEngineCore16setCurrentFilterERK7QString@Qt_5 5.6.0~beta
 _ZN15QHelpEngineCore16staticMetaObjectE@Qt_5 5.6.0~beta
 _ZN15QHelpEngineCore17removeCustomValueERK7QString@Qt_5 5.6.0~beta
 _ZN15QHelpEngineCore17setAutoSaveFilterEb@Qt_5 5.6.0~beta
 _ZN15QHelpEngineCore17setCollectionFileERK7QString@Qt_5 5.6.0~beta
 _ZN15QHelpEngineCore18copyCollectionFileERK7QString@Qt_5 5.6.0~beta
 _ZN15QHelpEngineCore18removeCustomFilterERK7QString@Qt_5 5.6.0~beta
 _ZN15QHelpEngineCore20currentFilterChangedERK7QString@Qt_5 5.6.0~beta
 _ZN15QHelpEngineCore21documentationFileNameERK7QString@Qt_5 5.6.0~beta
 _ZN15QHelpEngineCore21registerDocumentationERK7QString@Qt_5 5.6.0~beta
 _ZN15QHelpEngineCore23unregisterDocumentationERK7QString@Qt_5 5.6.0~beta
 _ZN15QHelpEngineCore27readersAboutToBeInvalidatedEv@Qt_5 5.6.0~beta
 _ZN15QHelpEngineCore5filesE7QStringRK11QStringListRKS0_@Qt_5 5.6.0~beta
 _ZN15QHelpEngineCore7warningERK7QString@Qt_5 5.6.0~beta
 _ZN15QHelpEngineCore8metaDataERK7QStringS2_@Qt_5 5.6.0~beta
 _ZN15QHelpEngineCore9setupDataEv@Qt_5 5.6.0~beta
 _ZN15QHelpEngineCoreC1EP22QHelpEngineCorePrivateP7QObject@Qt_5 5.6.0~beta
 _ZN15QHelpEngineCoreC1ERK7QStringP7QObject@Qt_5 5.6.0~beta
 _ZN15QHelpEngineCoreC2EP22QHelpEngineCorePrivateP7QObject@Qt_5 5.6.0~beta
 _ZN15QHelpEngineCoreC2ERK7QStringP7QObject@Qt_5 5.6.0~beta
 _ZN15QHelpEngineCoreD0Ev@Qt_5 5.6.0~beta
 _ZN15QHelpEngineCoreD1Ev@Qt_5 5.6.0~beta
 _ZN15QHelpEngineCoreD2Ev@Qt_5 5.6.0~beta
 _ZN15QHelpIndexModel11createIndexERK7QString@Qt_5 5.6.0~beta
 _ZN15QHelpIndexModel11qt_metacallEN11QMetaObject4CallEiPPv@Qt_5 5.6.0~beta
 _ZN15QHelpIndexModel11qt_metacastEPKc@Qt_5 5.6.0~beta
 _ZN15QHelpIndexModel12indexCreatedEv@Qt_5 5.6.0~beta
 _ZN15QHelpIndexModel13insertIndicesEv@Qt_5 5.6.0~beta
 _ZN15QHelpIndexModel15invalidateIndexEb@Qt_5 5.6.0~beta
 _ZN15QHelpIndexModel16staticMetaObjectE@Qt_5 5.6.0~beta
 _ZN15QHelpIndexModel20indexCreationStartedEv@Qt_5 5.6.0~beta
 _ZN15QHelpIndexModel6filterERK7QStringS2_@Qt_5 5.6.0~beta
 _ZN15QHelpIndexModelC1EP18QHelpEnginePrivate@Qt_5 5.6.0~beta
 _ZN15QHelpIndexModelC2EP18QHelpEnginePrivate@Qt_5 5.6.0~beta
 _ZN15QHelpIndexModelD0Ev@Qt_5 5.6.0~beta
 _ZN15QHelpIndexModelD1Ev@Qt_5 5.6.0~beta
 _ZN15QHelpIndexModelD2Ev@Qt_5 5.6.0~beta
 _ZN16QHelpContentItem11appendChildEPS_@Qt_5 5.6.0~beta
 _ZN16QHelpContentItemC1ERK7QStringS2_P13QHelpDBReaderPS_@Qt_5 5.6.0~beta
 _ZN16QHelpContentItemC2ERK7QStringS2_P13QHelpDBReaderPS_@Qt_5 5.6.0~beta
 _ZN16QHelpContentItemD1Ev@Qt_5 5.6.0~beta
 _ZN16QHelpContentItemD2Ev@Qt_5 5.6.0~beta
 _ZN16QHelpIndexWidget11qt_metacallEN11QMetaObject4CallEiPPv@Qt_5 5.6.0~beta
 _ZN16QHelpIndexWidget11qt_metacastEPKc@Qt_5 5.6.0~beta
 _ZN16QHelpIndexWidget13filterIndicesERK7QStringS2_@Qt_5 5.6.0~beta
 _ZN16QHelpIndexWidget13linkActivatedERK4QUrlRK7QString@Qt_5 5.6.0~beta
 _ZN16QHelpIndexWidget14linksActivatedERK4QMapI7QString4QUrlERKS1_@Qt_5 5.6.0~beta
 _ZN16QHelpIndexWidget16staticMetaObjectE@Qt_5 5.6.0~beta
 _ZN16QHelpIndexWidget19activateCurrentItemEv@Qt_5 5.6.0~beta
 _ZN16QHelpIndexWidget8showLinkERK11QModelIndex@Qt_5 5.6.0~beta
 _ZN16QHelpIndexWidgetC1Ev@Qt_5 5.6.0~beta
 _ZN16QHelpIndexWidgetC2Ev@Qt_5 5.6.0~beta
 _ZN16QHelpProjectData8readDataERK7QString@Qt_5 5.6.0~beta
 _ZN16QHelpProjectDataC1Ev@Qt_5 5.6.0~beta
 _ZN16QHelpProjectDataC2Ev@Qt_5 5.6.0~beta
 _ZN16QHelpProjectDataD0Ev@Qt_5 5.6.0~beta
 _ZN16QHelpProjectDataD1Ev@Qt_5 5.6.0~beta
 _ZN16QHelpProjectDataD2Ev@Qt_5 5.6.0~beta
 _ZN17QHelpContentModel11qt_metacallEN11QMetaObject4CallEiPPv@Qt_5 5.6.0~beta
 _ZN17QHelpContentModel11qt_metacastEPKc@Qt_5 5.6.0~beta
 _ZN17QHelpContentModel14createContentsERK7QString@Qt_5 5.6.0~beta
 _ZN17QHelpContentModel14insertContentsEv@Qt_5 5.6.0~beta
 _ZN17QHelpContentModel15contentsCreatedEv@Qt_5 5.6.0~beta
 _ZN17QHelpContentModel16staticMetaObjectE@Qt_5 5.6.0~beta
 _ZN17QHelpContentModel18invalidateContentsEb@Qt_5 5.6.0~beta
 _ZN17QHelpContentModel23contentsCreationStartedEv@Qt_5 5.6.0~beta
 _ZN17QHelpContentModelC1EP18QHelpEnginePrivate@Qt_5 5.6.0~beta
 _ZN17QHelpContentModelC2EP18QHelpEnginePrivate@Qt_5 5.6.0~beta
 _ZN17QHelpContentModelD0Ev@Qt_5 5.6.0~beta
 _ZN17QHelpContentModelD1Ev@Qt_5 5.6.0~beta
 _ZN17QHelpContentModelD2Ev@Qt_5 5.6.0~beta
 _ZN17QHelpSearchEngine11qt_metacallEN11QMetaObject4CallEiPPv@Qt_5 5.6.0~beta
 _ZN17QHelpSearchEngine11qt_metacastEPKc@Qt_5 5.6.0~beta
 _ZN17QHelpSearchEngine11queryWidgetEv@Qt_5 5.6.0~beta
 _ZN17QHelpSearchEngine12resultWidgetEv@Qt_5 5.6.0~beta
 _ZN17QHelpSearchEngine14cancelIndexingEv@Qt_5 5.6.0~beta
 _ZN17QHelpSearchEngine15cancelSearchingEv@Qt_5 5.6.0~beta
 _ZN17QHelpSearchEngine15indexingStartedEv@Qt_5 5.6.0~beta
 _ZN17QHelpSearchEngine16indexingFinishedEv@Qt_5 5.6.0~beta
 _ZN17QHelpSearchEngine16searchingStartedEv@Qt_5 5.6.0~beta
 _ZN17QHelpSearchEngine16staticMetaObjectE@Qt_5 5.6.0~beta
 _ZN17QHelpSearchEngine17searchingFinishedEi@Qt_5 5.6.0~beta
 _ZN17QHelpSearchEngine18indexDocumentationEv@Qt_5 5.6.0~beta
 _ZN17QHelpSearchEngine20reindexDocumentationEv@Qt_5 5.6.0~beta
 _ZN17QHelpSearchEngine6searchERK5QListI16QHelpSearchQueryE@Qt_5 5.6.0~beta
 _ZN17QHelpSearchEngineC1EP15QHelpEngineCoreP7QObject@Qt_5 5.6.0~beta
 _ZN17QHelpSearchEngineC2EP15QHelpEngineCoreP7QObject@Qt_5 5.6.0~beta
 _ZN17QHelpSearchEngineD0Ev@Qt_5 5.6.0~beta
 _ZN17QHelpSearchEngineD1Ev@Qt_5 5.6.0~beta
 _ZN17QHelpSearchEngineD2Ev@Qt_5 5.6.0~beta
 _ZN18QHelpContentWidget11qt_metacallEN11QMetaObject4CallEiPPv@Qt_5 5.6.0~beta
 _ZN18QHelpContentWidget11qt_metacastEPKc@Qt_5 5.6.0~beta
 _ZN18QHelpContentWidget13linkActivatedERK4QUrl@Qt_5 5.6.0~beta
 _ZN18QHelpContentWidget16staticMetaObjectE@Qt_5 5.6.0~beta
 _ZN18QHelpContentWidget17searchContentItemEP17QHelpContentModelRK11QModelIndexRK7QString@Qt_5 5.6.0~beta
 _ZN18QHelpContentWidget7indexOfERK4QUrl@Qt_5 5.6.0~beta
 _ZN18QHelpContentWidget8showLinkERK11QModelIndex@Qt_5 5.6.0~beta
 _ZN18QHelpContentWidgetC1Ev@Qt_5 5.6.0~beta
 _ZN18QHelpContentWidgetC2Ev@Qt_5 5.6.0~beta
 _ZN20QHelpDataContentItemC1EPS_RK7QStringS3_@Qt_5 5.6.0~beta
 _ZN20QHelpDataContentItemC2EPS_RK7QStringS3_@Qt_5 5.6.0~beta
 _ZN20QHelpDataContentItemD1Ev@Qt_5 5.6.0~beta
 _ZN20QHelpDataContentItemD2Ev@Qt_5 5.6.0~beta
 _ZN22QHelpDataFilterSection10addContentEP20QHelpDataContentItem@Qt_5 5.6.0~beta
 _ZN22QHelpDataFilterSection10setIndicesERK5QListI18QHelpDataIndexItemE@Qt_5 5.6.0~beta
 _ZN22QHelpDataFilterSection11setContentsERK5QListIP20QHelpDataContentItemE@Qt_5 5.6.0~beta
 _ZN22QHelpDataFilterSection18addFilterAttributeERK7QString@Qt_5 5.6.0~beta
 _ZN22QHelpDataFilterSection7addFileERK7QString@Qt_5 5.6.0~beta
 _ZN22QHelpDataFilterSection8addIndexERK18QHelpDataIndexItem@Qt_5 5.6.0~beta
 _ZN22QHelpDataFilterSection8setFilesERK11QStringList@Qt_5 5.6.0~beta
 _ZN22QHelpDataFilterSectionC1Ev@Qt_5 5.6.0~beta
 _ZN22QHelpDataFilterSectionC2Ev@Qt_5 5.6.0~beta
 _ZN22QHelpSearchQueryWidget11changeEventEP6QEvent@Qt_5 5.6.0~beta
 _ZN22QHelpSearchQueryWidget11qt_metacallEN11QMetaObject4CallEiPPv@Qt_5 5.6.0~beta
 _ZN22QHelpSearchQueryWidget11qt_metacastEPKc@Qt_5 5.6.0~beta
 _ZN22QHelpSearchQueryWidget12focusInEventEP11QFocusEvent@Qt_5 5.6.0~beta
 _ZN22QHelpSearchQueryWidget14setCompactModeEb@Qt_5 5.6.0~beta
 _ZN22QHelpSearchQueryWidget16staticMetaObjectE@Qt_5 5.6.0~beta
 _ZN22QHelpSearchQueryWidget20expandExtendedSearchEv@Qt_5 5.6.0~beta
 _ZN22QHelpSearchQueryWidget22collapseExtendedSearchEv@Qt_5 5.6.0~beta
 _ZN22QHelpSearchQueryWidget6searchEv@Qt_5 5.6.0~beta
 _ZN22QHelpSearchQueryWidget8setQueryERK5QListI16QHelpSearchQueryE@Qt_5 5.6.0~beta
 _ZN22QHelpSearchQueryWidgetC1EP7QWidget@Qt_5 5.6.0~beta
 _ZN22QHelpSearchQueryWidgetC2EP7QWidget@Qt_5 5.6.0~beta
 _ZN22QHelpSearchQueryWidgetD0Ev@Qt_5 5.6.0~beta
 _ZN22QHelpSearchQueryWidgetD1Ev@Qt_5 5.6.0~beta
 _ZN22QHelpSearchQueryWidgetD2Ev@Qt_5 5.6.0~beta
 _ZN23QHelpSearchResultWidget11changeEventEP6QEvent@Qt_5 5.6.0~beta
 _ZN23QHelpSearchResultWidget11qt_metacallEN11QMetaObject4CallEiPPv@Qt_5 5.6.0~beta
 _ZN23QHelpSearchResultWidget11qt_metacastEPKc@Qt_5 5.6.0~beta
 _ZN23QHelpSearchResultWidget15requestShowLinkERK4QUrl@Qt_5 5.6.0~beta
 _ZN23QHelpSearchResultWidget16staticMetaObjectE@Qt_5 5.6.0~beta
 _ZN23QHelpSearchResultWidget6linkAtERK6QPoint@Qt_5 5.6.0~beta
 _ZN23QHelpSearchResultWidgetC1EP17QHelpSearchEngine@Qt_5 5.6.0~beta
 _ZN23QHelpSearchResultWidgetC2EP17QHelpSearchEngine@Qt_5 5.6.0~beta
 _ZN23QHelpSearchResultWidgetD0Ev@Qt_5 5.6.0~beta
 _ZN23QHelpSearchResultWidgetD1Ev@Qt_5 5.6.0~beta
 _ZN23QHelpSearchResultWidgetD2Ev@Qt_5 5.6.0~beta
 _ZNK11QHelpEngine10indexModelEv@Qt_5 5.6.0~beta
 _ZNK11QHelpEngine10metaObjectEv@Qt_5 5.6.0~beta
 _ZNK11QHelpEngine12contentModelEv@Qt_5 5.6.0~beta
 _ZNK14QHelpGenerator10metaObjectEv@Qt_5 5.6.0~beta
 _ZNK14QHelpGenerator5errorEv@Qt_5 5.6.0~beta
 _ZNK15QHelpEngineCore10metaObjectEv@Qt_5 5.6.0~beta
 _ZNK15QHelpEngineCore11customValueERK7QStringRK8QVariant@Qt_5 5.6.0~beta
 _ZNK15QHelpEngineCore13currentFilterEv@Qt_5 5.6.0~beta
 _ZNK15QHelpEngineCore13customFiltersEv@Qt_5 5.6.0~beta
 _ZNK15QHelpEngineCore14autoSaveFilterEv@Qt_5 5.6.0~beta
 _ZNK15QHelpEngineCore14collectionFileEv@Qt_5 5.6.0~beta
 _ZNK15QHelpEngineCore16filterAttributesERK7QString@Qt_5 5.6.0~beta
 _ZNK15QHelpEngineCore16filterAttributesEv@Qt_5 5.6.0~beta
 _ZNK15QHelpEngineCore18linksForIdentifierERK7QString@Qt_5 5.6.0~beta
 _ZNK15QHelpEngineCore19filterAttributeSetsERK7QString@Qt_5 5.6.0~beta
 _ZNK15QHelpEngineCore24registeredDocumentationsEv@Qt_5 5.6.0~beta
 _ZNK15QHelpEngineCore5errorEv@Qt_5 5.6.0~beta
 _ZNK15QHelpEngineCore8fileDataERK4QUrl@Qt_5 5.6.0~beta
 _ZNK15QHelpEngineCore8findFileERK4QUrl@Qt_5 5.6.0~beta
 _ZNK15QHelpIndexModel10metaObjectEv@Qt_5 5.6.0~beta
 _ZNK15QHelpIndexModel15isCreatingIndexEv@Qt_5 5.6.0~beta
 _ZNK15QHelpIndexModel15linksForKeywordERK7QString@Qt_5 5.6.0~beta
 _ZNK16QHelpContentItem10childCountEv@Qt_5 5.6.0~beta
 _ZNK16QHelpContentItem13childPositionEPS_@Qt_5 5.6.0~beta
 _ZNK16QHelpContentItem3rowEv@Qt_5 5.6.0~beta
 _ZNK16QHelpContentItem3urlEv@Qt_5 5.6.0~beta
 _ZNK16QHelpContentItem5childEi@Qt_5 5.6.0~beta
 _ZNK16QHelpContentItem5titleEv@Qt_5 5.6.0~beta
 _ZNK16QHelpContentItem6parentEv@Qt_5 5.6.0~beta
 _ZNK16QHelpIndexWidget10metaObjectEv@Qt_5 5.6.0~beta
 _ZNK16QHelpProjectData12errorMessageEv@Qt_5 5.6.0~beta
 _ZNK16QHelpProjectData13customFiltersEv@Qt_5 5.6.0~beta
 _ZNK16QHelpProjectData13namespaceNameEv@Qt_5 5.6.0~beta
 _ZNK16QHelpProjectData13virtualFolderEv@Qt_5 5.6.0~beta
 _ZNK16QHelpProjectData14filterSectionsEv@Qt_5 5.6.0~beta
 _ZNK16QHelpProjectData8metaDataEv@Qt_5 5.6.0~beta
 _ZNK16QHelpProjectData8rootPathEv@Qt_5 5.6.0~beta
 _ZNK17QHelpContentModel10metaObjectEv@Qt_5 5.6.0~beta
 _ZNK17QHelpContentModel11columnCountERK11QModelIndex@Qt_5 5.6.0~beta
 _ZNK17QHelpContentModel13contentItemAtERK11QModelIndex@Qt_5 5.6.0~beta
 _ZNK17QHelpContentModel18isCreatingContentsEv@Qt_5 5.6.0~beta
 _ZNK17QHelpContentModel4dataERK11QModelIndexi@Qt_5 5.6.0~beta
 _ZNK17QHelpContentModel5indexEiiRK11QModelIndex@Qt_5 5.6.0~beta
 _ZNK17QHelpContentModel6parentERK11QModelIndex@Qt_5 5.6.0~beta
 _ZNK17QHelpContentModel8rowCountERK11QModelIndex@Qt_5 5.6.0~beta
 _ZNK17QHelpSearchEngine10metaObjectEv@Qt_5 5.6.0~beta
 _ZNK17QHelpSearchEngine4hitsEii@Qt_5 5.6.0~beta
 _ZNK17QHelpSearchEngine5queryEv@Qt_5 5.6.0~beta
 _ZNK17QHelpSearchEngine8hitCountEv@Qt_5 5.6.0~beta
 _ZNK17QHelpSearchEngine9hitsCountEv@Qt_5 5.6.0~beta
 _ZNK18QHelpContentWidget10metaObjectEv@Qt_5 5.6.0~beta
 _ZNK18QHelpDataIndexItemeqERKS_@Qt_5 5.6.0~beta
 _ZNK20QHelpDataContentItem5titleEv@Qt_5 5.6.0~beta
 _ZNK20QHelpDataContentItem8childrenEv@Qt_5 5.6.0~beta
 _ZNK20QHelpDataContentItem9referenceEv@Qt_5 5.6.0~beta
 _ZNK22QHelpDataFilterSection16filterAttributesEv@Qt_5 5.6.0~beta
 _ZNK22QHelpDataFilterSection5filesEv@Qt_5 5.6.0~beta
 _ZNK22QHelpDataFilterSection7indicesEv@Qt_5 5.6.0~beta
 _ZNK22QHelpDataFilterSection8contentsEv@Qt_5 5.6.0~beta
 _ZNK22QHelpSearchQueryWidget10metaObjectEv@Qt_5 5.6.0~beta
 _ZNK22QHelpSearchQueryWidget13isCompactModeEv@Qt_5 5.6.0~beta
 _ZNK22QHelpSearchQueryWidget5queryEv@Qt_5 5.6.0~beta
 _ZNK23QHelpSearchResultWidget10metaObjectEv@Qt_5 5.6.0~beta
 _ZTI11QHelpEngine@Qt_5 5.6.0~beta
 _ZTI14QHelpGenerator@Qt_5 5.6.0~beta
 _ZTI15QHelpEngineCore@Qt_5 5.6.0~beta
 _ZTI15QHelpIndexModel@Qt_5 5.6.0~beta
 _ZTI16QHelpIndexWidget@Qt_5 5.6.0~beta
 _ZTI16QHelpProjectData@Qt_5 5.6.0~beta
 _ZTI17QHelpContentModel@Qt_5 5.6.0~beta
 _ZTI17QHelpSearchEngine@Qt_5 5.6.0~beta
 _ZTI18QHelpContentWidget@Qt_5 5.6.0~beta
 _ZTI18QHelpDataInterface@Qt_5 5.6.0~beta
 _ZTI22QHelpSearchQueryWidget@Qt_5 5.6.0~beta
 _ZTI23QHelpSearchResultWidget@Qt_5 5.6.0~beta
 _ZTS11QHelpEngine@Qt_5 5.6.0~beta
 _ZTS14QHelpGenerator@Qt_5 5.6.0~beta
 _ZTS15QHelpEngineCore@Qt_5 5.6.0~beta
 _ZTS15QHelpIndexModel@Qt_5 5.6.0~beta
 _ZTS16QHelpIndexWidget@Qt_5 5.6.0~beta
 _ZTS16QHelpProjectData@Qt_5 5.6.0~beta
 _ZTS17QHelpContentModel@Qt_5 5.6.0~beta
 _ZTS17QHelpSearchEngine@Qt_5 5.6.0~beta
 _ZTS18QHelpContentWidget@Qt_5 5.6.0~beta
 _ZTS18QHelpDataInterface@Qt_5 5.6.0~beta
 _ZTS22QHelpSearchQueryWidget@Qt_5 5.6.0~beta
 _ZTS23QHelpSearchResultWidget@Qt_5 5.6.0~beta
 _ZTV11QHelpEngine@Qt_5 5.6.0~beta
 _ZTV14QHelpGenerator@Qt_5 5.6.0~beta
 _ZTV15QHelpEngineCore@Qt_5 5.6.0~beta
 _ZTV15QHelpIndexModel@Qt_5 5.6.0~beta
 _ZTV16QHelpIndexWidget@Qt_5 5.6.0~beta
 _ZTV16QHelpProjectData@Qt_5 5.6.0~beta
 _ZTV17QHelpContentModel@Qt_5 5.6.0~beta
 _ZTV17QHelpSearchEngine@Qt_5 5.6.0~beta
 _ZTV18QHelpContentWidget@Qt_5 5.6.0~beta
 _ZTV22QHelpSearchQueryWidget@Qt_5 5.6.0~beta
 _ZTV23QHelpSearchResultWidget@Qt_5 5.6.0~beta
 (c++)"non-virtual thunk to QHelpSearchQueryWidget::~QHelpSearchQueryWidget()@Qt_5" 5.6.0~beta
 (c++)"non-virtual thunk to QHelpSearchResultWidget::~QHelpSearchResultWidget()@Qt_5" 5.6.0~beta
