# SymbolsHelper-Confirmed: 5.7.0 amd64
libQt5Designer.so.5 libqt5designer5 #MINVER#
* Build-Depends-Package: qttools5-dev
 Qt_5.0@Qt_5.0 5.6.0~beta
 Qt_5.1@Qt_5.1 5.6.0~beta
 Qt_5.2@Qt_5.2 5.6.0~beta
 Qt_5.3@Qt_5.3 5.6.0~beta
 Qt_5.4@Qt_5.4 5.6.0~beta
 Qt_5.5@Qt_5.5 5.6.0~beta
 Qt_5.6@Qt_5.6 5.6.0~beta
 Qt_5.7@Qt_5.7 5.7.0
 Qt_5@Qt_5 5.6.0~beta
 Qt_5_PRIVATE_API@Qt_5_PRIVATE_API 5.6.0~beta
 _Z20domPropertyToVariantP20QAbstractFormBuilderPK11QMetaObjectPK11DomProperty@Qt_5 5.6.0~beta
 _Z20domPropertyToVariantPK11DomProperty@Qt_5 5.6.0~beta
 _Z20variantToDomPropertyP20QAbstractFormBuilderPK11QMetaObjectRK7QStringRK8QVariant@Qt_5 5.6.0~beta
 _ZN10DomInclude4readER16QXmlStreamReader@Qt_5 5.6.0~beta
 _ZN10DomInclude5clearEb@Qt_5 5.6.0~beta
 _ZN10DomIncludeC1Ev@Qt_5 5.6.0~beta
 _ZN10DomIncludeC2Ev@Qt_5 5.6.0~beta
 _ZN10DomIncludeD1Ev@Qt_5 5.6.0~beta
 _ZN10DomIncludeD2Ev@Qt_5 5.6.0~beta
 _ZN10DomPalette16setElementActiveEP13DomColorGroup@Qt_5 5.6.0~beta
 _ZN10DomPalette17takeElementActiveEv@Qt_5 5.6.0~beta
 _ZN10DomPalette18clearElementActiveEv@Qt_5 5.6.0~beta
 _ZN10DomPalette18setElementDisabledEP13DomColorGroup@Qt_5 5.6.0~beta
 _ZN10DomPalette18setElementInactiveEP13DomColorGroup@Qt_5 5.6.0~beta
 _ZN10DomPalette19takeElementDisabledEv@Qt_5 5.6.0~beta
 _ZN10DomPalette19takeElementInactiveEv@Qt_5 5.6.0~beta
 _ZN10DomPalette20clearElementDisabledEv@Qt_5 5.6.0~beta
 _ZN10DomPalette20clearElementInactiveEv@Qt_5 5.6.0~beta
 _ZN10DomPalette4readER16QXmlStreamReader@Qt_5 5.6.0~beta
 _ZN10DomPalette5clearEb@Qt_5 5.6.0~beta
 _ZN10DomPaletteC1Ev@Qt_5 5.6.0~beta
 _ZN10DomPaletteC2Ev@Qt_5 5.6.0~beta
 _ZN10DomPaletteD1Ev@Qt_5 5.6.0~beta
 _ZN10DomPaletteD2Ev@Qt_5 5.6.0~beta
 _ZN11DomDateTime13setElementDayEi@Qt_5 5.6.0~beta
 _ZN11DomDateTime14setElementHourEi@Qt_5 5.6.0~beta
 _ZN11DomDateTime14setElementYearEi@Qt_5 5.6.0~beta
 _ZN11DomDateTime15clearElementDayEv@Qt_5 5.6.0~beta
 _ZN11DomDateTime15setElementMonthEi@Qt_5 5.6.0~beta
 _ZN11DomDateTime16clearElementHourEv@Qt_5 5.6.0~beta
 _ZN11DomDateTime16clearElementYearEv@Qt_5 5.6.0~beta
 _ZN11DomDateTime16setElementMinuteEi@Qt_5 5.6.0~beta
 _ZN11DomDateTime16setElementSecondEi@Qt_5 5.6.0~beta
 _ZN11DomDateTime17clearElementMonthEv@Qt_5 5.6.0~beta
 _ZN11DomDateTime18clearElementMinuteEv@Qt_5 5.6.0~beta
 _ZN11DomDateTime18clearElementSecondEv@Qt_5 5.6.0~beta
 _ZN11DomDateTime4readER16QXmlStreamReader@Qt_5 5.6.0~beta
 _ZN11DomDateTime5clearEb@Qt_5 5.6.0~beta
 _ZN11DomDateTimeC1Ev@Qt_5 5.6.0~beta
 _ZN11DomDateTimeC2Ev@Qt_5 5.6.0~beta
 _ZN11DomDateTimeD1Ev@Qt_5 5.6.0~beta
 _ZN11DomDateTimeD2Ev@Qt_5 5.6.0~beta
 _ZN11DomGradient22setElementGradientStopERK5QListIP15DomGradientStopE@Qt_5 5.6.0~beta
 _ZN11DomGradient4readER16QXmlStreamReader@Qt_5 5.6.0~beta
 _ZN11DomGradient5clearEb@Qt_5 5.6.0~beta
 _ZN11DomGradientC1Ev@Qt_5 5.6.0~beta
 _ZN11DomGradientC2Ev@Qt_5 5.6.0~beta
 _ZN11DomGradientD1Ev@Qt_5 5.6.0~beta
 _ZN11DomGradientD2Ev@Qt_5 5.6.0~beta
 _ZN11DomIncludes17setElementIncludeERK5QListIP10DomIncludeE@Qt_5 5.6.0~beta
 _ZN11DomIncludes4readER16QXmlStreamReader@Qt_5 5.6.0~beta
 _ZN11DomIncludes5clearEb@Qt_5 5.6.0~beta
 _ZN11DomIncludesC1Ev@Qt_5 5.6.0~beta
 _ZN11DomIncludesC2Ev@Qt_5 5.6.0~beta
 _ZN11DomIncludesD1Ev@Qt_5 5.6.0~beta
 _ZN11DomIncludesD2Ev@Qt_5 5.6.0~beta
 _ZN11DomProperty13setElementSetERK7QString@Qt_5 5.6.0~beta
 _ZN11DomProperty13setElementUrlEP6DomUrl@Qt_5 5.6.0~beta
 _ZN11DomProperty14setElementBoolERK7QString@Qt_5 5.6.0~beta
 _ZN11DomProperty14setElementCharEP7DomChar@Qt_5 5.6.0~beta
 _ZN11DomProperty14setElementDateEP7DomDate@Qt_5 5.6.0~beta
 _ZN11DomProperty14setElementEnumERK7QString@Qt_5 5.6.0~beta
 _ZN11DomProperty14setElementFontEP7DomFont@Qt_5 5.6.0~beta
 _ZN11DomProperty14setElementRectEP7DomRect@Qt_5 5.6.0~beta
 _ZN11DomProperty14setElementSizeEP7DomSize@Qt_5 5.6.0~beta
 _ZN11DomProperty14setElementTimeEP7DomTime@Qt_5 5.6.0~beta
 _ZN11DomProperty14setElementUIntEj@Qt_5 5.6.0~beta
 _ZN11DomProperty14takeElementUrlEv@Qt_5 5.6.0~beta
 _ZN11DomProperty15setElementBrushEP8DomBrush@Qt_5 5.6.0~beta
 _ZN11DomProperty15setElementColorEP8DomColor@Qt_5 5.6.0~beta
 _ZN11DomProperty15setElementFloatEf@Qt_5 5.6.0~beta
 _ZN11DomProperty15setElementPointEP8DomPoint@Qt_5 5.6.0~beta
 _ZN11DomProperty15setElementRectFEP8DomRectF@Qt_5 5.6.0~beta
 _ZN11DomProperty15setElementSizeFEP8DomSizeF@Qt_5 5.6.0~beta
 _ZN11DomProperty15takeElementCharEv@Qt_5 5.6.0~beta
 _ZN11DomProperty15takeElementDateEv@Qt_5 5.6.0~beta
 _ZN11DomProperty15takeElementFontEv@Qt_5 5.6.0~beta
 _ZN11DomProperty15takeElementRectEv@Qt_5 5.6.0~beta
 _ZN11DomProperty15takeElementSizeEv@Qt_5 5.6.0~beta
 _ZN11DomProperty15takeElementTimeEv@Qt_5 5.6.0~beta
 _ZN11DomProperty16setElementCursorEi@Qt_5 5.6.0~beta
 _ZN11DomProperty16setElementDoubleEd@Qt_5 5.6.0~beta
 _ZN11DomProperty16setElementLocaleEP9DomLocale@Qt_5 5.6.0~beta
 _ZN11DomProperty16setElementNumberEi@Qt_5 5.6.0~beta
 _ZN11DomProperty16setElementPixmapEP17DomResourcePixmap@Qt_5 5.6.0~beta
 _ZN11DomProperty16setElementPointFEP9DomPointF@Qt_5 5.6.0~beta
 _ZN11DomProperty16setElementStringEP9DomString@Qt_5 5.6.0~beta
 _ZN11DomProperty16takeElementBrushEv@Qt_5 5.6.0~beta
 _ZN11DomProperty16takeElementColorEv@Qt_5 5.6.0~beta
 _ZN11DomProperty16takeElementPointEv@Qt_5 5.6.0~beta
 _ZN11DomProperty16takeElementRectFEv@Qt_5 5.6.0~beta
 _ZN11DomProperty16takeElementSizeFEv@Qt_5 5.6.0~beta
 _ZN11DomProperty17setElementCstringERK7QString@Qt_5 5.6.0~beta
 _ZN11DomProperty17setElementIconSetEP15DomResourceIcon@Qt_5 5.6.0~beta
 _ZN11DomProperty17setElementPaletteEP10DomPalette@Qt_5 5.6.0~beta
 _ZN11DomProperty17takeElementLocaleEv@Qt_5 5.6.0~beta
 _ZN11DomProperty17takeElementPixmapEv@Qt_5 5.6.0~beta
 _ZN11DomProperty17takeElementPointFEv@Qt_5 5.6.0~beta
 _ZN11DomProperty17takeElementStringEv@Qt_5 5.6.0~beta
 _ZN11DomProperty18setElementDateTimeEP11DomDateTime@Qt_5 5.6.0~beta
 _ZN11DomProperty18setElementLongLongEx@Qt_5 5.6.0~beta
 _ZN11DomProperty18takeElementIconSetEv@Qt_5 5.6.0~beta
 _ZN11DomProperty18takeElementPaletteEv@Qt_5 5.6.0~beta
 _ZN11DomProperty19setElementULongLongEy@Qt_5 5.6.0~beta
 _ZN11DomProperty19takeElementDateTimeEv@Qt_5 5.6.0~beta
 _ZN11DomProperty20setElementSizePolicyEP13DomSizePolicy@Qt_5 5.6.0~beta
 _ZN11DomProperty20setElementStringListEP13DomStringList@Qt_5 5.6.0~beta
 _ZN11DomProperty21setElementCursorShapeERK7QString@Qt_5 5.6.0~beta
 _ZN11DomProperty21takeElementSizePolicyEv@Qt_5 5.6.0~beta
 _ZN11DomProperty21takeElementStringListEv@Qt_5 5.6.0~beta
 _ZN11DomProperty4readER16QXmlStreamReader@Qt_5 5.6.0~beta
 _ZN11DomProperty5clearEb@Qt_5 5.6.0~beta
 _ZN11DomPropertyC1Ev@Qt_5 5.6.0~beta
 _ZN11DomPropertyC2Ev@Qt_5 5.6.0~beta
 _ZN11DomPropertyD1Ev@Qt_5 5.6.0~beta
 _ZN11DomPropertyD2Ev@Qt_5 5.6.0~beta
 _ZN11DomResource4readER16QXmlStreamReader@Qt_5 5.6.0~beta
 _ZN11DomResource5clearEb@Qt_5 5.6.0~beta
 _ZN11DomResourceC1Ev@Qt_5 5.6.0~beta
 _ZN11DomResourceC2Ev@Qt_5 5.6.0~beta
 _ZN11DomResourceD1Ev@Qt_5 5.6.0~beta
 _ZN11DomResourceD2Ev@Qt_5 5.6.0~beta
 _ZN11DomTabStops17setElementTabStopERK11QStringList@Qt_5 5.6.0~beta
 _ZN11DomTabStops4readER16QXmlStreamReader@Qt_5 5.6.0~beta
 _ZN11DomTabStops5clearEb@Qt_5 5.6.0~beta
 _ZN11DomTabStopsC1Ev@Qt_5 5.6.0~beta
 _ZN11DomTabStopsC2Ev@Qt_5 5.6.0~beta
 _ZN11DomTabStopsD1Ev@Qt_5 5.6.0~beta
 _ZN11DomTabStopsD2Ev@Qt_5 5.6.0~beta
 _ZN12DomActionRef4readER16QXmlStreamReader@Qt_5 5.6.0~beta
 _ZN12DomActionRef5clearEb@Qt_5 5.6.0~beta
 _ZN12DomActionRefC1Ev@Qt_5 5.6.0~beta
 _ZN12DomActionRefC2Ev@Qt_5 5.6.0~beta
 _ZN12DomActionRefD1Ev@Qt_5 5.6.0~beta
 _ZN12DomActionRefD2Ev@Qt_5 5.6.0~beta
 _ZN12DomColorRole15setElementBrushEP8DomBrush@Qt_5 5.6.0~beta
 _ZN12DomColorRole16takeElementBrushEv@Qt_5 5.6.0~beta
 _ZN12DomColorRole17clearElementBrushEv@Qt_5 5.6.0~beta
 _ZN12DomColorRole4readER16QXmlStreamReader@Qt_5 5.6.0~beta
 _ZN12DomColorRole5clearEb@Qt_5 5.6.0~beta
 _ZN12DomColorRoleC1Ev@Qt_5 5.6.0~beta
 _ZN12DomColorRoleC2Ev@Qt_5 5.6.0~beta
 _ZN12DomColorRoleD1Ev@Qt_5 5.6.0~beta
 _ZN12DomColorRoleD2Ev@Qt_5 5.6.0~beta
 _ZN12DomImageData4readER16QXmlStreamReader@Qt_5 5.6.0~beta
 _ZN12DomImageData5clearEb@Qt_5 5.6.0~beta
 _ZN12DomImageDataC1Ev@Qt_5 5.6.0~beta
 _ZN12DomImageDataC2Ev@Qt_5 5.6.0~beta
 _ZN12DomImageDataD1Ev@Qt_5 5.6.0~beta
 _ZN12DomImageDataD2Ev@Qt_5 5.6.0~beta
 _ZN12DomResources17setElementIncludeERK5QListIP11DomResourceE@Qt_5 5.6.0~beta
 _ZN12DomResources4readER16QXmlStreamReader@Qt_5 5.6.0~beta
 _ZN12DomResources5clearEb@Qt_5 5.6.0~beta
 _ZN12DomResourcesC1Ev@Qt_5 5.6.0~beta
 _ZN12DomResourcesC2Ev@Qt_5 5.6.0~beta
 _ZN12DomResourcesD1Ev@Qt_5 5.6.0~beta
 _ZN12DomResourcesD2Ev@Qt_5 5.6.0~beta
 _ZN12QFormBuilder12createLayoutERK7QStringP7QObjectS2_@Qt_5 5.6.0~beta
 _ZN12QFormBuilder12createWidgetERK7QStringP7QWidgetS2_@Qt_5 5.6.0~beta
 _ZN12QFormBuilder12widgetByNameEP7QWidgetRK7QString@Qt_5 5.6.0~beta
 _ZN12QFormBuilder13addPluginPathERK7QString@Qt_5 5.6.0~beta
 _ZN12QFormBuilder13setPluginPathERK11QStringList@Qt_5 5.6.0~beta
 _ZN12QFormBuilder15applyPropertiesEP7QObjectRK5QListIP11DomPropertyE@Qt_5 5.6.0~beta
 _ZN12QFormBuilder16clearPluginPathsEv@Qt_5 5.6.0~beta
 _ZN12QFormBuilder17createConnectionsEP14DomConnectionsP7QWidget@Qt_5 5.6.0~beta
 _ZN12QFormBuilder19updateCustomWidgetsEv@Qt_5 5.6.0~beta
 _ZN12QFormBuilder6createEP13DomLayoutItemP7QLayoutP7QWidget@Qt_5 5.6.0~beta
 _ZN12QFormBuilder6createEP14DomActionGroupP7QObject@Qt_5 5.6.0~beta
 _ZN12QFormBuilder6createEP5DomUIP7QWidget@Qt_5 5.6.0~beta
 _ZN12QFormBuilder6createEP9DomActionP7QObject@Qt_5 5.6.0~beta
 _ZN12QFormBuilder6createEP9DomLayoutP7QLayoutP7QWidget@Qt_5 5.6.0~beta
 _ZN12QFormBuilder6createEP9DomWidgetP7QWidget@Qt_5 5.6.0~beta
 _ZN12QFormBuilder7addItemEP13DomLayoutItemP11QLayoutItemP7QLayout@Qt_5 5.6.0~beta
 _ZN12QFormBuilder7addItemEP9DomWidgetP7QWidgetS3_@Qt_5 5.6.0~beta
 _ZN12QFormBuilderC1Ev@Qt_5 5.6.0~beta
 _ZN12QFormBuilderC2Ev@Qt_5 5.6.0~beta
 _ZN12QFormBuilderD0Ev@Qt_5 5.6.0~beta
 _ZN12QFormBuilderD1Ev@Qt_5 5.6.0~beta
 _ZN12QFormBuilderD2Ev@Qt_5 5.6.0~beta
 _ZN12QTextBuilderC1Ev@Qt_5 5.6.0~beta
 _ZN12QTextBuilderC2Ev@Qt_5 5.6.0~beta
 _ZN12QTextBuilderD0Ev@Qt_5 5.6.0~beta
 _ZN12QTextBuilderD1Ev@Qt_5 5.6.0~beta
 _ZN12QTextBuilderD2Ev@Qt_5 5.6.0~beta
 _ZN13DomColorGroup15setElementColorERK5QListIP8DomColorE@Qt_5 5.6.0~beta
 _ZN13DomColorGroup19setElementColorRoleERK5QListIP12DomColorRoleE@Qt_5 5.6.0~beta
 _ZN13DomColorGroup4readER16QXmlStreamReader@Qt_5 5.6.0~beta
 _ZN13DomColorGroup5clearEb@Qt_5 5.6.0~beta
 _ZN13DomColorGroupC1Ev@Qt_5 5.6.0~beta
 _ZN13DomColorGroupC2Ev@Qt_5 5.6.0~beta
 _ZN13DomColorGroupD1Ev@Qt_5 5.6.0~beta
 _ZN13DomColorGroupD2Ev@Qt_5 5.6.0~beta
 _ZN13DomConnection14setElementSlotERK7QString@Qt_5 5.6.0~beta
 _ZN13DomConnection15setElementHintsEP18DomConnectionHints@Qt_5 5.6.0~beta
 _ZN13DomConnection16clearElementSlotEv@Qt_5 5.6.0~beta
 _ZN13DomConnection16setElementSenderERK7QString@Qt_5 5.6.0~beta
 _ZN13DomConnection16setElementSignalERK7QString@Qt_5 5.6.0~beta
 _ZN13DomConnection16takeElementHintsEv@Qt_5 5.6.0~beta
 _ZN13DomConnection17clearElementHintsEv@Qt_5 5.6.0~beta
 _ZN13DomConnection18clearElementSenderEv@Qt_5 5.6.0~beta
 _ZN13DomConnection18clearElementSignalEv@Qt_5 5.6.0~beta
 _ZN13DomConnection18setElementReceiverERK7QString@Qt_5 5.6.0~beta
 _ZN13DomConnection20clearElementReceiverEv@Qt_5 5.6.0~beta
 _ZN13DomConnection4readER16QXmlStreamReader@Qt_5 5.6.0~beta
 _ZN13DomConnection5clearEb@Qt_5 5.6.0~beta
 _ZN13DomConnectionC1Ev@Qt_5 5.6.0~beta
 _ZN13DomConnectionC2Ev@Qt_5 5.6.0~beta
 _ZN13DomConnectionD1Ev@Qt_5 5.6.0~beta
 _ZN13DomConnectionD2Ev@Qt_5 5.6.0~beta
 _ZN13DomLayoutItem16setElementLayoutEP9DomLayout@Qt_5 5.6.0~beta
 _ZN13DomLayoutItem16setElementSpacerEP9DomSpacer@Qt_5 5.6.0~beta
 _ZN13DomLayoutItem16setElementWidgetEP9DomWidget@Qt_5 5.6.0~beta
 _ZN13DomLayoutItem17takeElementLayoutEv@Qt_5 5.6.0~beta
 _ZN13DomLayoutItem17takeElementSpacerEv@Qt_5 5.6.0~beta
 _ZN13DomLayoutItem17takeElementWidgetEv@Qt_5 5.6.0~beta
 _ZN13DomLayoutItem4readER16QXmlStreamReader@Qt_5 5.6.0~beta
 _ZN13DomLayoutItem5clearEb@Qt_5 5.6.0~beta
 _ZN13DomLayoutItemC1Ev@Qt_5 5.6.0~beta
 _ZN13DomLayoutItemC2Ev@Qt_5 5.6.0~beta
 _ZN13DomLayoutItemD1Ev@Qt_5 5.6.0~beta
 _ZN13DomLayoutItemD2Ev@Qt_5 5.6.0~beta
 _ZN13DomProperties18setElementPropertyERK5QListIP15DomPropertyDataE@Qt_5 5.6.0~beta
 _ZN13DomProperties4readER16QXmlStreamReader@Qt_5 5.6.0~beta
 _ZN13DomProperties5clearEb@Qt_5 5.6.0~beta
 _ZN13DomPropertiesC1Ev@Qt_5 5.6.0~beta
 _ZN13DomPropertiesC2Ev@Qt_5 5.6.0~beta
 _ZN13DomPropertiesD1Ev@Qt_5 5.6.0~beta
 _ZN13DomPropertiesD2Ev@Qt_5 5.6.0~beta
 _ZN13DomSizePolicy19setElementHSizeTypeEi@Qt_5 5.6.0~beta
 _ZN13DomSizePolicy19setElementVSizeTypeEi@Qt_5 5.6.0~beta
 _ZN13DomSizePolicy20setElementHorStretchEi@Qt_5 5.6.0~beta
 _ZN13DomSizePolicy20setElementVerStretchEi@Qt_5 5.6.0~beta
 _ZN13DomSizePolicy21clearElementHSizeTypeEv@Qt_5 5.6.0~beta
 _ZN13DomSizePolicy21clearElementVSizeTypeEv@Qt_5 5.6.0~beta
 _ZN13DomSizePolicy22clearElementHorStretchEv@Qt_5 5.6.0~beta
 _ZN13DomSizePolicy22clearElementVerStretchEv@Qt_5 5.6.0~beta
 _ZN13DomSizePolicy4readER16QXmlStreamReader@Qt_5 5.6.0~beta
 _ZN13DomSizePolicy5clearEb@Qt_5 5.6.0~beta
 _ZN13DomSizePolicyC1Ev@Qt_5 5.6.0~beta
 _ZN13DomSizePolicyC2Ev@Qt_5 5.6.0~beta
 _ZN13DomSizePolicyD1Ev@Qt_5 5.6.0~beta
 _ZN13DomSizePolicyD2Ev@Qt_5 5.6.0~beta
 _ZN13DomStringList16setElementStringERK11QStringList@Qt_5 5.6.0~beta
 _ZN13DomStringList4readER16QXmlStreamReader@Qt_5 5.6.0~beta
 _ZN13DomStringList5clearEb@Qt_5 5.6.0~beta
 _ZN13DomStringListC1Ev@Qt_5 5.6.0~beta
 _ZN13DomStringListC2Ev@Qt_5 5.6.0~beta
 _ZN13DomStringListD1Ev@Qt_5 5.6.0~beta
 _ZN13DomStringListD2Ev@Qt_5 5.6.0~beta
 _ZN13DomWidgetData18setElementPropertyERK5QListIP11DomPropertyE@Qt_5 5.6.0~beta
 _ZN13DomWidgetData4readER16QXmlStreamReader@Qt_5 5.6.0~beta
 _ZN13DomWidgetData5clearEb@Qt_5 5.6.0~beta
 _ZN13DomWidgetDataC1Ev@Qt_5 5.6.0~beta
 _ZN13DomWidgetDataC2Ev@Qt_5 5.6.0~beta
 _ZN13DomWidgetDataD1Ev@Qt_5 5.6.0~beta
 _ZN13DomWidgetDataD2Ev@Qt_5 5.6.0~beta
 _ZN13QDesignerMenu10paintEventEP11QPaintEvent@Qt_5 5.6.0~beta
 _ZN13QDesignerMenu10setVisibleEb@Qt_5 5.6.0~beta
 _ZN13QDesignerMenu11actionEventEP12QActionEvent@Qt_5 5.6.0~beta
 _ZN13QDesignerMenu11eventFilterEP7QObjectP6QEvent@Qt_5 5.6.0~beta
 _ZN13QDesignerMenu11handleEventEP7QWidgetP6QEvent@Qt_5 5.6.0~beta
 _ZN13QDesignerMenu11hideSubMenuEv@Qt_5 5.6.0~beta
 _ZN13QDesignerMenu11interactiveEb@Qt_5 5.6.0~beta
 _ZN13QDesignerMenu11qt_metacallEN11QMetaObject4CallEiPPv@Qt_5 5.6.0~beta
 _ZN13QDesignerMenu11qt_metacastEPKc@Qt_5 5.6.0~beta
 _ZN13QDesignerMenu11showSubMenuEP7QAction@Qt_5 5.6.0~beta
 _ZN13QDesignerMenu12createActionERK7QStringb@Qt_5 5.6.0~beta
 _ZN13QDesignerMenu12deleteActionEP7QAction@Qt_5 5.6.0~beta
 _ZN13QDesignerMenu12deleteActionEv@Qt_5 5.6.0~beta
 _ZN13QDesignerMenu12showLineEditEv@Qt_5 5.6.0~beta
 _ZN13QDesignerMenu13dragMoveEventEP14QDragMoveEvent@Qt_5 5.6.0~beta
 _ZN13QDesignerMenu13drawSelectionEP8QPainterRK5QRect@Qt_5 5.6.0~beta
 _ZN13QDesignerMenu13enterEditModeEv@Qt_5 5.6.0~beta
 _ZN13QDesignerMenu13keyPressEventEP9QKeyEvent@Qt_5 5.6.0~beta
 _ZN13QDesignerMenu13leaveEditModeENS_13LeaveEditModeE@Qt_5 5.6.0~beta
 _ZN13QDesignerMenu14actionProviderEv@Qt_5 5.6.0~beta
 _ZN13QDesignerMenu14closeMenuChainEv@Qt_5 5.6.0~beta
 _ZN13QDesignerMenu14deactivateMenuEv@Qt_5 5.6.0~beta
 _ZN13QDesignerMenu14dragEnterEventEP15QDragEnterEvent@Qt_5 5.6.0~beta
 _ZN13QDesignerMenu14dragLeaveEventEP15QDragLeaveEvent@Qt_5 5.6.0~beta
 _ZN13QDesignerMenu14removeRealMenuEP7QAction@Qt_5 5.6.0~beta
 _ZN13QDesignerMenu15adjustIndicatorERK6QPoint@Qt_5 5.6.0~beta
 _ZN13QDesignerMenu15keyReleaseEventEP9QKeyEvent@Qt_5 5.6.0~beta
 _ZN13QDesignerMenu16slotAddSeparatorEv@Qt_5 5.6.0~beta
 _ZN13QDesignerMenu16staticMetaObjectE@Qt_5 5.6.0~beta
 _ZN13QDesignerMenu17slotAdjustSizeNowEv@Qt_5 5.6.0~beta
 _ZN13QDesignerMenu17slotDeactivateNowEv@Qt_5 5.6.0~beta
 _ZN13QDesignerMenu18slotShowSubMenuNowEv@Qt_5 5.6.0~beta
 _ZN13QDesignerMenu19findOrCreateSubMenuEP7QAction@Qt_5 5.6.0~beta
 _ZN13QDesignerMenu19handleKeyPressEventEP7QWidgetP9QKeyEvent@Qt_5 5.6.0~beta
 _ZN13QDesignerMenu19selectCurrentActionEv@Qt_5 5.6.0~beta
 _ZN13QDesignerMenu20adjustSpecialActionsEv@Qt_5 5.6.0~beta
 _ZN13QDesignerMenu20createRealMenuActionEP7QAction@Qt_5 5.6.0~beta
 _ZN13QDesignerMenu20handleMouseMoveEventEP7QWidgetP11QMouseEvent@Qt_5 5.6.0~beta
 _ZN13QDesignerMenu21handleMousePressEventEP7QWidgetP11QMouseEvent@Qt_5 5.6.0~beta
 _ZN13QDesignerMenu22handleContextMenuEventEP7QWidgetP17QContextMenuEvent@Qt_5 5.6.0~beta
 _ZN13QDesignerMenu22hideSubMenuOnCursorKeyEv@Qt_5 5.6.0~beta
 _ZN13QDesignerMenu22showSubMenuOnCursorKeyEv@Qt_5 5.6.0~beta
 _ZN13QDesignerMenu23handleMouseReleaseEventEP7QWidgetP11QMouseEvent@Qt_5 5.6.0~beta
 _ZN13QDesignerMenu24slotRemoveSelectedActionEv@Qt_5 5.6.0~beta
 _ZN13QDesignerMenu27handleMouseDoubleClickEventEP7QWidgetP11QMouseEvent@Qt_5 5.6.0~beta
 _ZN13QDesignerMenu4swapEii@Qt_5 5.6.0~beta
 _ZN13QDesignerMenu6moveUpEb@Qt_5 5.6.0~beta
 _ZN13QDesignerMenu8moveDownEb@Qt_5 5.6.0~beta
 _ZN13QDesignerMenu8moveLeftEv@Qt_5 5.6.0~beta
 _ZN13QDesignerMenu9dropEventEP10QDropEvent@Qt_5 5.6.0~beta
 _ZN13QDesignerMenu9moveRightEv@Qt_5 5.6.0~beta
 _ZN13QDesignerMenu9showEventEP10QShowEvent@Qt_5 5.6.0~beta
 _ZN13QDesignerMenu9startDragERK6QPoint6QFlagsIN2Qt16KeyboardModifierEE@Qt_5 5.6.0~beta
 _ZN13QDesignerMenuC1EP7QWidget@Qt_5 5.6.0~beta
 _ZN13QDesignerMenuC2EP7QWidget@Qt_5 5.6.0~beta
 _ZN13QDesignerMenuD0Ev@Qt_5 5.6.0~beta
 _ZN13QDesignerMenuD1Ev@Qt_5 5.6.0~beta
 _ZN13QDesignerMenuD2Ev@Qt_5 5.6.0~beta
 _ZN13QLayoutWidget10paintEventEP11QPaintEvent@Qt_5 5.6.0~beta
 _ZN13QLayoutWidget11qt_metacallEN11QMetaObject4CallEiPPv@Qt_5 5.6.0~beta
 _ZN13QLayoutWidget11qt_metacastEPKc@Qt_5 5.6.0~beta
 _ZN13QLayoutWidget16staticMetaObjectE@Qt_5 5.6.0~beta
 _ZN13QLayoutWidget18setLayoutTopMarginEi@Qt_5 5.6.0~beta
 _ZN13QLayoutWidget19setLayoutLeftMarginEi@Qt_5 5.6.0~beta
 _ZN13QLayoutWidget20setLayoutRightMarginEi@Qt_5 5.6.0~beta
 _ZN13QLayoutWidget21setLayoutBottomMarginEi@Qt_5 5.6.0~beta
 _ZN13QLayoutWidget5eventEP6QEvent@Qt_5 5.6.0~beta
 _ZN13QLayoutWidgetC1EP28QDesignerFormWindowInterfaceP7QWidget@Qt_5 5.6.0~beta
 _ZN13QLayoutWidgetC2EP28QDesignerFormWindowInterfaceP7QWidget@Qt_5 5.6.0~beta
 _ZN13QtResourceSet11setModifiedERK7QString@Qt_5 5.6.0~beta
 _ZN13QtResourceSet25activateResourceFilePathsERK11QStringListPiP7QString@Qt_5 5.6.0~beta
 _ZN13QtResourceSetC1EP15QtResourceModel@Qt_5 5.6.0~beta
 _ZN13QtResourceSetC1Ev@Qt_5 5.6.0~beta
 _ZN13QtResourceSetC2EP15QtResourceModel@Qt_5 5.6.0~beta
 _ZN13QtResourceSetC2Ev@Qt_5 5.6.0~beta
 _ZN13QtResourceSetD1Ev@Qt_5 5.6.0~beta
 _ZN13QtResourceSetD2Ev@Qt_5 5.6.0~beta
 _ZN14DomActionGroup16setElementActionERK5QListIP9DomActionE@Qt_5 5.6.0~beta
 _ZN14DomActionGroup18setElementPropertyERK5QListIP11DomPropertyE@Qt_5 5.6.0~beta
 _ZN14DomActionGroup19setElementAttributeERK5QListIP11DomPropertyE@Qt_5 5.6.0~beta
 _ZN14DomActionGroup21setElementActionGroupERK5QListIPS_E@Qt_5 5.6.0~beta
 _ZN14DomActionGroup4readER16QXmlStreamReader@Qt_5 5.6.0~beta
 _ZN14DomActionGroup5clearEb@Qt_5 5.6.0~beta
 _ZN14DomActionGroupC1Ev@Qt_5 5.6.0~beta
 _ZN14DomActionGroupC2Ev@Qt_5 5.6.0~beta
 _ZN14DomActionGroupD1Ev@Qt_5 5.6.0~beta
 _ZN14DomActionGroupD2Ev@Qt_5 5.6.0~beta
 _ZN14DomButtonGroup18setElementPropertyERK5QListIP11DomPropertyE@Qt_5 5.6.0~beta
 _ZN14DomButtonGroup19setElementAttributeERK5QListIP11DomPropertyE@Qt_5 5.6.0~beta
 _ZN14DomButtonGroup4readER16QXmlStreamReader@Qt_5 5.6.0~beta
 _ZN14DomButtonGroup5clearEb@Qt_5 5.6.0~beta
 _ZN14DomButtonGroupC1Ev@Qt_5 5.6.0~beta
 _ZN14DomButtonGroupC2Ev@Qt_5 5.6.0~beta
 _ZN14DomButtonGroupD1Ev@Qt_5 5.6.0~beta
 _ZN14DomButtonGroupD2Ev@Qt_5 5.6.0~beta
 _ZN14DomConnections20setElementConnectionERK5QListIP13DomConnectionE@Qt_5 5.6.0~beta
 _ZN14DomConnections4readER16QXmlStreamReader@Qt_5 5.6.0~beta
 _ZN14DomConnections5clearEb@Qt_5 5.6.0~beta
 _ZN14DomConnectionsC1Ev@Qt_5 5.6.0~beta
 _ZN14DomConnectionsC2Ev@Qt_5 5.6.0~beta
 _ZN14DomConnectionsD1Ev@Qt_5 5.6.0~beta
 _ZN14DomConnectionsD2Ev@Qt_5 5.6.0~beta
 _ZN14QToolBoxHelper11changeOrderEv@Qt_5 5.6.0~beta
 _ZN14QToolBoxHelper11eventFilterEP7QObjectP6QEvent@Qt_5 5.6.0~beta
 _ZN14QToolBoxHelper11qt_metacallEN11QMetaObject4CallEiPPv@Qt_5 5.6.0~beta
 _ZN14QToolBoxHelper11qt_metacastEPKc@Qt_5 5.6.0~beta
 _ZN14QToolBoxHelper12addPageAfterEv@Qt_5 5.6.0~beta
 _ZN14QToolBoxHelper16staticMetaObjectE@Qt_5 5.6.0~beta
 _ZN14QToolBoxHelper17removeCurrentPageEv@Qt_5 5.6.0~beta
 _ZN14QToolBoxHelper28addToolBoxContextMenuActionsEPK8QToolBoxP5QMenu@Qt_5 5.6.0~beta
 _ZN14QToolBoxHelper28setCurrentItemBackgroundRoleEN8QPalette9ColorRoleE@Qt_5 5.6.0~beta
 _ZN14QToolBoxHelper7addPageEv@Qt_5 5.6.0~beta
 _ZN14QToolBoxHelper7installEP8QToolBox@Qt_5 5.6.0~beta
 _ZN14QToolBoxHelper8helperOfEPK8QToolBox@Qt_5 5.6.0~beta
 _ZN14QToolBoxHelperC1EP8QToolBox@Qt_5 5.6.0~beta
 _ZN14QToolBoxHelperC2EP8QToolBox@Qt_5 5.6.0~beta
 _ZN14QtResourceView11qt_metacallEN11QMetaObject4CallEiPPv@Qt_5 5.6.0~beta
 _ZN14QtResourceView11qt_metacastEPKc@Qt_5 5.6.0~beta
 _ZN14QtResourceView14decodeMimeDataEPK9QMimeDataPNS_12ResourceTypeEP7QString@Qt_5 5.6.0~beta
 _ZN14QtResourceView14decodeMimeDataERK7QStringPNS_12ResourceTypeEPS0_@Qt_5 5.6.0~beta
 _ZN14QtResourceView14encodeMimeDataENS_12ResourceTypeERK7QString@Qt_5 5.6.0~beta
 _ZN14QtResourceView14selectResourceERK7QString@Qt_5 5.6.0~beta
 _ZN14QtResourceView14setDragEnabledEb@Qt_5 5.6.0~beta
 _ZN14QtResourceView14setSettingsKeyERK7QString@Qt_5 5.6.0~beta
 _ZN14QtResourceView16resourceSelectedERK7QString@Qt_5 5.6.0~beta
 _ZN14QtResourceView16setResourceModelEP15QtResourceModel@Qt_5 5.6.0~beta
 _ZN14QtResourceView16staticMetaObjectE@Qt_5 5.6.0~beta
 _ZN14QtResourceView17resourceActivatedERK7QString@Qt_5 5.6.0~beta
 _ZN14QtResourceView25setResourceEditingEnabledEb@Qt_5 5.6.0~beta
 _ZN14QtResourceView5eventEP6QEvent@Qt_5 5.6.0~beta
 _ZN14QtResourceViewC1EP28QDesignerFormEditorInterfaceP7QWidget@Qt_5 5.6.0~beta
 _ZN14QtResourceViewC2EP28QDesignerFormEditorInterfaceP7QWidget@Qt_5 5.6.0~beta
 _ZN14QtResourceViewD0Ev@Qt_5 5.6.0~beta
 _ZN14QtResourceViewD1Ev@Qt_5 5.6.0~beta
 _ZN14QtResourceViewD2Ev@Qt_5 5.6.0~beta
 _ZN15DomButtonGroups21setElementButtonGroupERK5QListIP14DomButtonGroupE@Qt_5 5.6.0~beta
 _ZN15DomButtonGroups4readER16QXmlStreamReader@Qt_5 5.6.0~beta
 _ZN15DomButtonGroups5clearEb@Qt_5 5.6.0~beta
 _ZN15DomButtonGroupsC1Ev@Qt_5 5.6.0~beta
 _ZN15DomButtonGroupsC2Ev@Qt_5 5.6.0~beta
 _ZN15DomButtonGroupsD1Ev@Qt_5 5.6.0~beta
 _ZN15DomButtonGroupsD2Ev@Qt_5 5.6.0~beta
 _ZN15DomCustomWidget15setElementClassERK7QString@Qt_5 5.6.0~beta
 _ZN15DomCustomWidget15setElementSlotsEP8DomSlots@Qt_5 5.6.0~beta
 _ZN15DomCustomWidget16setElementHeaderEP9DomHeader@Qt_5 5.6.0~beta
 _ZN15DomCustomWidget16setElementPixmapERK7QString@Qt_5 5.6.0~beta
 _ZN15DomCustomWidget16setElementScriptEP9DomScript@Qt_5 5.6.0~beta
 _ZN15DomCustomWidget16takeElementSlotsEv@Qt_5 5.6.0~beta
 _ZN15DomCustomWidget17clearElementClassEv@Qt_5 5.6.0~beta
 _ZN15DomCustomWidget17clearElementSlotsEv@Qt_5 5.6.0~beta
 _ZN15DomCustomWidget17setElementExtendsERK7QString@Qt_5 5.6.0~beta
 _ZN15DomCustomWidget17takeElementHeaderEv@Qt_5 5.6.0~beta
 _ZN15DomCustomWidget17takeElementScriptEv@Qt_5 5.6.0~beta
 _ZN15DomCustomWidget18clearElementHeaderEv@Qt_5 5.6.0~beta
 _ZN15DomCustomWidget18clearElementPixmapEv@Qt_5 5.6.0~beta
 _ZN15DomCustomWidget18clearElementScriptEv@Qt_5 5.6.0~beta
 _ZN15DomCustomWidget18setElementSizeHintEP7DomSize@Qt_5 5.6.0~beta
 _ZN15DomCustomWidget19clearElementExtendsEv@Qt_5 5.6.0~beta
 _ZN15DomCustomWidget19setElementContainerEi@Qt_5 5.6.0~beta
 _ZN15DomCustomWidget19takeElementSizeHintEv@Qt_5 5.6.0~beta
 _ZN15DomCustomWidget20clearElementSizeHintEv@Qt_5 5.6.0~beta
 _ZN15DomCustomWidget20setElementPropertiesEP13DomProperties@Qt_5 5.6.0~beta
 _ZN15DomCustomWidget20setElementSizePolicyEP17DomSizePolicyData@Qt_5 5.6.0~beta
 _ZN15DomCustomWidget21clearElementContainerEv@Qt_5 5.6.0~beta
 _ZN15DomCustomWidget21takeElementPropertiesEv@Qt_5 5.6.0~beta
 _ZN15DomCustomWidget21takeElementSizePolicyEv@Qt_5 5.6.0~beta
 _ZN15DomCustomWidget22clearElementPropertiesEv@Qt_5 5.6.0~beta
 _ZN15DomCustomWidget22clearElementSizePolicyEv@Qt_5 5.6.0~beta
 _ZN15DomCustomWidget23setElementAddPageMethodERK7QString@Qt_5 5.6.0~beta
 _ZN15DomCustomWidget25clearElementAddPageMethodEv@Qt_5 5.6.0~beta
 _ZN15DomCustomWidget32setElementPropertyspecificationsEP25DomPropertySpecifications@Qt_5 5.6.0~beta
 _ZN15DomCustomWidget33takeElementPropertyspecificationsEv@Qt_5 5.6.0~beta
 _ZN15DomCustomWidget34clearElementPropertyspecificationsEv@Qt_5 5.6.0~beta
 _ZN15DomCustomWidget4readER16QXmlStreamReader@Qt_5 5.6.0~beta
 _ZN15DomCustomWidget5clearEb@Qt_5 5.6.0~beta
 _ZN15DomCustomWidgetC1Ev@Qt_5 5.6.0~beta
 _ZN15DomCustomWidgetC2Ev@Qt_5 5.6.0~beta
 _ZN15DomCustomWidgetD1Ev@Qt_5 5.6.0~beta
 _ZN15DomCustomWidgetD2Ev@Qt_5 5.6.0~beta
 _ZN15DomDesignerData18setElementPropertyERK5QListIP11DomPropertyE@Qt_5 5.6.0~beta
 _ZN15DomDesignerData4readER16QXmlStreamReader@Qt_5 5.6.0~beta
 _ZN15DomDesignerData5clearEb@Qt_5 5.6.0~beta
 _ZN15DomDesignerDataC1Ev@Qt_5 5.6.0~beta
 _ZN15DomDesignerDataC2Ev@Qt_5 5.6.0~beta
 _ZN15DomDesignerDataD1Ev@Qt_5 5.6.0~beta
 _ZN15DomDesignerDataD2Ev@Qt_5 5.6.0~beta
 _ZN15DomGradientStop15setElementColorEP8DomColor@Qt_5 5.6.0~beta
 _ZN15DomGradientStop16takeElementColorEv@Qt_5 5.6.0~beta
 _ZN15DomGradientStop17clearElementColorEv@Qt_5 5.6.0~beta
 _ZN15DomGradientStop4readER16QXmlStreamReader@Qt_5 5.6.0~beta
 _ZN15DomGradientStop5clearEb@Qt_5 5.6.0~beta
 _ZN15DomGradientStopC1Ev@Qt_5 5.6.0~beta
 _ZN15DomGradientStopC2Ev@Qt_5 5.6.0~beta
 _ZN15DomGradientStopD1Ev@Qt_5 5.6.0~beta
 _ZN15DomGradientStopD2Ev@Qt_5 5.6.0~beta
 _ZN15DomPropertyData4readER16QXmlStreamReader@Qt_5 5.6.0~beta
 _ZN15DomPropertyData5clearEb@Qt_5 5.6.0~beta
 _ZN15DomPropertyDataC1Ev@Qt_5 5.6.0~beta
 _ZN15DomPropertyDataC2Ev@Qt_5 5.6.0~beta
 _ZN15DomPropertyDataD1Ev@Qt_5 5.6.0~beta
 _ZN15DomPropertyDataD2Ev@Qt_5 5.6.0~beta
 _ZN15DomResourceIcon18setElementActiveOnEP17DomResourcePixmap@Qt_5 5.6.0~beta
 _ZN15DomResourceIcon18setElementNormalOnEP17DomResourcePixmap@Qt_5 5.6.0~beta
 _ZN15DomResourceIcon19setElementActiveOffEP17DomResourcePixmap@Qt_5 5.6.0~beta
 _ZN15DomResourceIcon19setElementNormalOffEP17DomResourcePixmap@Qt_5 5.6.0~beta
 _ZN15DomResourceIcon19takeElementActiveOnEv@Qt_5 5.6.0~beta
 _ZN15DomResourceIcon19takeElementNormalOnEv@Qt_5 5.6.0~beta
 _ZN15DomResourceIcon20clearElementActiveOnEv@Qt_5 5.6.0~beta
 _ZN15DomResourceIcon20clearElementNormalOnEv@Qt_5 5.6.0~beta
 _ZN15DomResourceIcon20setElementDisabledOnEP17DomResourcePixmap@Qt_5 5.6.0~beta
 _ZN15DomResourceIcon20setElementSelectedOnEP17DomResourcePixmap@Qt_5 5.6.0~beta
 _ZN15DomResourceIcon20takeElementActiveOffEv@Qt_5 5.6.0~beta
 _ZN15DomResourceIcon20takeElementNormalOffEv@Qt_5 5.6.0~beta
 _ZN15DomResourceIcon21clearElementActiveOffEv@Qt_5 5.6.0~beta
 _ZN15DomResourceIcon21clearElementNormalOffEv@Qt_5 5.6.0~beta
 _ZN15DomResourceIcon21setElementDisabledOffEP17DomResourcePixmap@Qt_5 5.6.0~beta
 _ZN15DomResourceIcon21setElementSelectedOffEP17DomResourcePixmap@Qt_5 5.6.0~beta
 _ZN15DomResourceIcon21takeElementDisabledOnEv@Qt_5 5.6.0~beta
 _ZN15DomResourceIcon21takeElementSelectedOnEv@Qt_5 5.6.0~beta
 _ZN15DomResourceIcon22clearElementDisabledOnEv@Qt_5 5.6.0~beta
 _ZN15DomResourceIcon22clearElementSelectedOnEv@Qt_5 5.6.0~beta
 _ZN15DomResourceIcon22takeElementDisabledOffEv@Qt_5 5.6.0~beta
 _ZN15DomResourceIcon22takeElementSelectedOffEv@Qt_5 5.6.0~beta
 _ZN15DomResourceIcon23clearElementDisabledOffEv@Qt_5 5.6.0~beta
 _ZN15DomResourceIcon23clearElementSelectedOffEv@Qt_5 5.6.0~beta
 _ZN15DomResourceIcon4readER16QXmlStreamReader@Qt_5 5.6.0~beta
 _ZN15DomResourceIcon5clearEb@Qt_5 5.6.0~beta
 _ZN15DomResourceIconC1Ev@Qt_5 5.6.0~beta
 _ZN15DomResourceIconC2Ev@Qt_5 5.6.0~beta
 _ZN15DomResourceIconD1Ev@Qt_5 5.6.0~beta
 _ZN15DomResourceIconD2Ev@Qt_5 5.6.0~beta
 _ZN15QDesignerDialog10paintEventEP11QPaintEvent@Qt_5 5.6.0~beta
 _ZN15QDesignerDialog11qt_metacallEN11QMetaObject4CallEiPPv@Qt_5 5.6.0~beta
 _ZN15QDesignerDialog11qt_metacastEPKc@Qt_5 5.6.0~beta
 _ZN15QDesignerDialog16staticMetaObjectE@Qt_5 5.6.0~beta
 _ZN15QDesignerDialogC1EP28QDesignerFormWindowInterfaceP7QWidget@Qt_5 5.6.0~beta
 _ZN15QDesignerDialogC2EP28QDesignerFormWindowInterfaceP7QWidget@Qt_5 5.6.0~beta
 _ZN15QDesignerWidget10paintEventEP11QPaintEvent@Qt_5 5.6.0~beta
 _ZN15QDesignerWidget11qt_metacallEN11QMetaObject4CallEiPPv@Qt_5 5.6.0~beta
 _ZN15QDesignerWidget11qt_metacastEPKc@Qt_5 5.6.0~beta
 _ZN15QDesignerWidget16staticMetaObjectE@Qt_5 5.6.0~beta
 _ZN15QDesignerWidgetC1EP28QDesignerFormWindowInterfaceP7QWidget@Qt_5 5.6.0~beta
 _ZN15QDesignerWidgetC2EP28QDesignerFormWindowInterfaceP7QWidget@Qt_5 5.6.0~beta
 _ZN15QDesignerWidgetD0Ev@Qt_5 5.6.0~beta
 _ZN15QDesignerWidgetD1Ev@Qt_5 5.6.0~beta
 _ZN15QDesignerWidgetD2Ev@Qt_5 5.6.0~beta
 _ZN15QtResourceModel11qt_metacallEN11QMetaObject4CallEiPPv@Qt_5 5.6.0~beta
 _ZN15QtResourceModel11qt_metacastEPKc@Qt_5 5.6.0~beta
 _ZN15QtResourceModel11setModifiedERK7QString@Qt_5 5.6.0~beta
 _ZN15QtResourceModel14addResourceSetERK11QStringList@Qt_5 5.6.0~beta
 _ZN15QtResourceModel16isWatcherEnabledERK7QString@Qt_5 5.6.0~beta
 _ZN15QtResourceModel16staticMetaObjectE@Qt_5 5.6.0~beta
 _ZN15QtResourceModel17removeResourceSetEP13QtResourceSet@Qt_5 5.6.0~beta
 _ZN15QtResourceModel17setWatcherEnabledERK7QStringb@Qt_5 5.6.0~beta
 _ZN15QtResourceModel17setWatcherEnabledEb@Qt_5 5.6.0~beta
 _ZN15QtResourceModel20resourceSetActivatedEP13QtResourceSetb@Qt_5 5.6.0~beta
 _ZN15QtResourceModel21setCurrentResourceSetEP13QtResourceSetPiP7QString@Qt_5 5.6.0~beta
 _ZN15QtResourceModel25qrcFileModifiedExternallyERK7QString@Qt_5 5.6.0~beta
 _ZN15QtResourceModel6reloadEPiP7QString@Qt_5 5.6.0~beta
 _ZN15QtResourceModel6reloadERK7QStringPiPS0_@Qt_5 5.6.0~beta
 _ZN15QtResourceModelC1EP7QObject@Qt_5 5.6.0~beta
 _ZN15QtResourceModelC2EP7QObject@Qt_5 5.6.0~beta
 _ZN15QtResourceModelD0Ev@Qt_5 5.6.0~beta
 _ZN15QtResourceModelD1Ev@Qt_5 5.6.0~beta
 _ZN15QtResourceModelD2Ev@Qt_5 5.6.0~beta
 _ZN16DomCustomWidgets22setElementCustomWidgetERK5QListIP15DomCustomWidgetE@Qt_5 5.6.0~beta
 _ZN16DomCustomWidgets4readER16QXmlStreamReader@Qt_5 5.6.0~beta
 _ZN16DomCustomWidgets5clearEb@Qt_5 5.6.0~beta
 _ZN16DomCustomWidgetsC1Ev@Qt_5 5.6.0~beta
 _ZN16DomCustomWidgetsC2Ev@Qt_5 5.6.0~beta
 _ZN16DomCustomWidgetsD1Ev@Qt_5 5.6.0~beta
 _ZN16DomCustomWidgetsD2Ev@Qt_5 5.6.0~beta
 _ZN16DomLayoutDefault4readER16QXmlStreamReader@Qt_5 5.6.0~beta
 _ZN16DomLayoutDefault5clearEb@Qt_5 5.6.0~beta
 _ZN16DomLayoutDefaultC1Ev@Qt_5 5.6.0~beta
 _ZN16DomLayoutDefaultC2Ev@Qt_5 5.6.0~beta
 _ZN16DomLayoutDefaultD1Ev@Qt_5 5.6.0~beta
 _ZN16DomLayoutDefaultD2Ev@Qt_5 5.6.0~beta
 _ZN16QDesignerMenuBar10deleteMenuEv@Qt_5 5.6.0~beta
 _ZN16QDesignerMenuBar10paintEventEP11QPaintEvent@Qt_5 5.6.0~beta
 _ZN16QDesignerMenuBar11actionEventEP12QActionEvent@Qt_5 5.6.0~beta
 _ZN16QDesignerMenuBar11eventFilterEP7QObjectP6QEvent@Qt_5 5.6.0~beta
 _ZN16QDesignerMenuBar11handleEventEP7QWidgetP6QEvent@Qt_5 5.6.0~beta
 _ZN16QDesignerMenuBar11interactiveEb@Qt_5 5.6.0~beta
 _ZN16QDesignerMenuBar11qt_metacallEN11QMetaObject4CallEiPPv@Qt_5 5.6.0~beta
 _ZN16QDesignerMenuBar11qt_metacastEPKc@Qt_5 5.6.0~beta
 _ZN16QDesignerMenuBar11swapActionsEii@Qt_5 5.6.0~beta
 _ZN16QDesignerMenuBar12movePreviousEb@Qt_5 5.6.0~beta
 _ZN16QDesignerMenuBar12showLineEditEv@Qt_5 5.6.0~beta
 _ZN16QDesignerMenuBar13dragMoveEventEP14QDragMoveEvent@Qt_5 5.6.0~beta
 _ZN16QDesignerMenuBar13enterEditModeEv@Qt_5 5.6.0~beta
 _ZN16QDesignerMenuBar13focusOutEventEP11QFocusEvent@Qt_5 5.6.0~beta
 _ZN16QDesignerMenuBar13keyPressEventEP9QKeyEvent@Qt_5 5.6.0~beta
 _ZN16QDesignerMenuBar13leaveEditModeENS_13LeaveEditModeE@Qt_5 5.6.0~beta
 _ZN16QDesignerMenuBar14actionProviderEv@Qt_5 5.6.0~beta
 _ZN16QDesignerMenuBar14dragEnterEventEP15QDragEnterEvent@Qt_5 5.6.0~beta
 _ZN16QDesignerMenuBar14dragLeaveEventEP15QDragLeaveEvent@Qt_5 5.6.0~beta
 _ZN16QDesignerMenuBar15adjustIndicatorERK6QPoint@Qt_5 5.6.0~beta
 _ZN16QDesignerMenuBar15keyReleaseEventEP9QKeyEvent@Qt_5 5.6.0~beta
 _ZN16QDesignerMenuBar16deleteMenuActionEP7QAction@Qt_5 5.6.0~beta
 _ZN16QDesignerMenuBar16staticMetaObjectE@Qt_5 5.6.0~beta
 _ZN16QDesignerMenuBar17slotRemoveMenuBarEv@Qt_5 5.6.0~beta
 _ZN16QDesignerMenuBar18contextMenuActionsEv@Qt_5 5.6.0~beta
 _ZN16QDesignerMenuBar19handleKeyPressEventEP7QWidgetP9QKeyEvent@Qt_5 5.6.0~beta
 _ZN16QDesignerMenuBar19updateCurrentActionEb@Qt_5 5.6.0~beta
 _ZN16QDesignerMenuBar20adjustSpecialActionsEv@Qt_5 5.6.0~beta
 _ZN16QDesignerMenuBar20handleMouseMoveEventEP7QWidgetP11QMouseEvent@Qt_5 5.6.0~beta
 _ZN16QDesignerMenuBar21handleMousePressEventEP7QWidgetP11QMouseEvent@Qt_5 5.6.0~beta
 _ZN16QDesignerMenuBar22handleContextMenuEventEP7QWidgetP17QContextMenuEvent@Qt_5 5.6.0~beta
 _ZN16QDesignerMenuBar23handleMouseReleaseEventEP7QWidgetP11QMouseEvent@Qt_5 5.6.0~beta
 _ZN16QDesignerMenuBar27handleMouseDoubleClickEventEP7QWidgetP11QMouseEvent@Qt_5 5.6.0~beta
 _ZN16QDesignerMenuBar6moveUpEv@Qt_5 5.6.0~beta
 _ZN16QDesignerMenuBar8hideMenuEi@Qt_5 5.6.0~beta
 _ZN16QDesignerMenuBar8moveDownEv@Qt_5 5.6.0~beta
 _ZN16QDesignerMenuBar8moveLeftEb@Qt_5 5.6.0~beta
 _ZN16QDesignerMenuBar8moveNextEb@Qt_5 5.6.0~beta
 _ZN16QDesignerMenuBar8showMenuEi@Qt_5 5.6.0~beta
 _ZN16QDesignerMenuBar9dropEventEP10QDropEvent@Qt_5 5.6.0~beta
 _ZN16QDesignerMenuBar9moveRightEb@Qt_5 5.6.0~beta
 _ZN16QDesignerMenuBar9startDragERK6QPoint@Qt_5 5.6.0~beta
 _ZN16QDesignerMenuBarC1EP7QWidget@Qt_5 5.6.0~beta
 _ZN16QDesignerMenuBarC2EP7QWidget@Qt_5 5.6.0~beta
 _ZN16QDesignerMenuBarD0Ev@Qt_5 5.6.0~beta
 _ZN16QDesignerMenuBarD1Ev@Qt_5 5.6.0~beta
 _ZN16QDesignerMenuBarD2Ev@Qt_5 5.6.0~beta
 _ZN16QResourceBuilder14iconStateFlagsEPK15DomResourceIcon@Qt_5 5.6.0~beta
 _ZN16QResourceBuilderC1Ev@Qt_5 5.6.0~beta
 _ZN16QResourceBuilderC2Ev@Qt_5 5.6.0~beta
 _ZN16QResourceBuilderD0Ev@Qt_5 5.6.0~beta
 _ZN16QResourceBuilderD1Ev@Qt_5 5.6.0~beta
 _ZN16QResourceBuilderD2Ev@Qt_5 5.6.0~beta
 _ZN17DomConnectionHint11setElementXEi@Qt_5 5.6.0~beta
 _ZN17DomConnectionHint11setElementYEi@Qt_5 5.6.0~beta
 _ZN17DomConnectionHint13clearElementXEv@Qt_5 5.6.0~beta
 _ZN17DomConnectionHint13clearElementYEv@Qt_5 5.6.0~beta
 _ZN17DomConnectionHint4readER16QXmlStreamReader@Qt_5 5.6.0~beta
 _ZN17DomConnectionHint5clearEb@Qt_5 5.6.0~beta
 _ZN17DomConnectionHintC1Ev@Qt_5 5.6.0~beta
 _ZN17DomConnectionHintC2Ev@Qt_5 5.6.0~beta
 _ZN17DomConnectionHintD1Ev@Qt_5 5.6.0~beta
 _ZN17DomConnectionHintD2Ev@Qt_5 5.6.0~beta
 _ZN17DomLayoutFunction4readER16QXmlStreamReader@Qt_5 5.6.0~beta
 _ZN17DomLayoutFunction5clearEb@Qt_5 5.6.0~beta
 _ZN17DomLayoutFunctionC1Ev@Qt_5 5.6.0~beta
 _ZN17DomLayoutFunctionC2Ev@Qt_5 5.6.0~beta
 _ZN17DomLayoutFunctionD1Ev@Qt_5 5.6.0~beta
 _ZN17DomLayoutFunctionD2Ev@Qt_5 5.6.0~beta
 _ZN17DomResourcePixmap4readER16QXmlStreamReader@Qt_5 5.6.0~beta
 _ZN17DomResourcePixmap5clearEb@Qt_5 5.6.0~beta
 _ZN17DomResourcePixmapC1Ev@Qt_5 5.6.0~beta
 _ZN17DomResourcePixmapC2Ev@Qt_5 5.6.0~beta
 _ZN17DomResourcePixmapD1Ev@Qt_5 5.6.0~beta
 _ZN17DomResourcePixmapD2Ev@Qt_5 5.6.0~beta
 _ZN17DomSizePolicyData17setElementHorDataEi@Qt_5 5.6.0~beta
 _ZN17DomSizePolicyData17setElementVerDataEi@Qt_5 5.6.0~beta
 _ZN17DomSizePolicyData19clearElementHorDataEv@Qt_5 5.6.0~beta
 _ZN17DomSizePolicyData19clearElementVerDataEv@Qt_5 5.6.0~beta
 _ZN17DomSizePolicyData4readER16QXmlStreamReader@Qt_5 5.6.0~beta
 _ZN17DomSizePolicyData5clearEb@Qt_5 5.6.0~beta
 _ZN17DomSizePolicyDataC1Ev@Qt_5 5.6.0~beta
 _ZN17DomSizePolicyDataC2Ev@Qt_5 5.6.0~beta
 _ZN17DomSizePolicyDataD1Ev@Qt_5 5.6.0~beta
 _ZN17DomSizePolicyDataD2Ev@Qt_5 5.6.0~beta
 _ZN17QExtensionFactory11qt_metacallEN11QMetaObject4CallEiPPv@Qt_5 5.6.0~beta
 _ZN17QExtensionFactory11qt_metacastEPKc@Qt_5 5.6.0~beta
 _ZN17QExtensionFactory15objectDestroyedEP7QObject@Qt_5 5.6.0~beta
 _ZN17QExtensionFactory16staticMetaObjectE@Qt_5 5.6.0~beta
 _ZN17QExtensionFactoryC1EP17QExtensionManager@Qt_5 5.6.0~beta
 _ZN17QExtensionFactoryC2EP17QExtensionManager@Qt_5 5.6.0~beta
 _ZN17QExtensionManager11qt_metacallEN11QMetaObject4CallEiPPv@Qt_5 5.6.0~beta
 _ZN17QExtensionManager11qt_metacastEPKc@Qt_5 5.6.0~beta
 _ZN17QExtensionManager16staticMetaObjectE@Qt_5 5.6.0~beta
 _ZN17QExtensionManager18registerExtensionsEP25QAbstractExtensionFactoryRK7QString@Qt_5 5.6.0~beta
 _ZN17QExtensionManager20unregisterExtensionsEP25QAbstractExtensionFactoryRK7QString@Qt_5 5.6.0~beta
 _ZN17QExtensionManagerC1EP7QObject@Qt_5 5.6.0~beta
 _ZN17QExtensionManagerC2EP7QObject@Qt_5 5.6.0~beta
 _ZN17QExtensionManagerD0Ev@Qt_5 5.6.0~beta
 _ZN17QExtensionManagerD1Ev@Qt_5 5.6.0~beta
 _ZN17QExtensionManagerD2Ev@Qt_5 5.6.0~beta
 _ZN17QFormBuilderExtra10applyBuddyERK7QStringNS_9BuddyModeEP6QLabel@Qt_5 5.6.0~beta
 _ZN17QFormBuilderExtra14setTextBuilderEP12QTextBuilder@Qt_5 5.6.0~beta
 _ZN17QFormBuilderExtra15setParentWidgetERK8QPointerI7QWidgetE@Qt_5 5.6.0~beta
 _ZN17QFormBuilderExtra16CustomWidgetDataC1EPK15DomCustomWidget@Qt_5 5.6.0~beta
 _ZN17QFormBuilderExtra16CustomWidgetDataC1Ev@Qt_5 5.6.0~beta
 _ZN17QFormBuilderExtra16CustomWidgetDataC2EPK15DomCustomWidget@Qt_5 5.6.0~beta
 _ZN17QFormBuilderExtra16CustomWidgetDataC2Ev@Qt_5 5.6.0~beta
 _ZN17QFormBuilderExtra16boxLayoutStretchEPK10QBoxLayout@Qt_5 5.6.0~beta
 _ZN17QFormBuilderExtra16clearTextBuilderEv@Qt_5 5.6.0~beta
 _ZN17QFormBuilderExtra18setResourceBuilderEP16QResourceBuilder@Qt_5 5.6.0~beta
 _ZN17QFormBuilderExtra19setBoxLayoutStretchERK7QStringP10QBoxLayout@Qt_5 5.6.0~beta
 _ZN17QFormBuilderExtra20clearResourceBuilderEv@Qt_5 5.6.0~beta
 _ZN17QFormBuilderExtra20gridLayoutRowStretchEPK11QGridLayout@Qt_5 5.6.0~beta
 _ZN17QFormBuilderExtra20registerButtonGroupsEPK15DomButtonGroups@Qt_5 5.6.0~beta
 _ZN17QFormBuilderExtra21clearBoxLayoutStretchEP10QBoxLayout@Qt_5 5.6.0~beta
 _ZN17QFormBuilderExtra21storeCustomWidgetDataERK7QStringPK15DomCustomWidget@Qt_5 5.6.0~beta
 _ZN17QFormBuilderExtra23applyPropertyInternallyEP7QObjectRK7QStringRK8QVariant@Qt_5 5.6.0~beta
 _ZN17QFormBuilderExtra23gridLayoutColumnStretchEPK11QGridLayout@Qt_5 5.6.0~beta
 _ZN17QFormBuilderExtra23setGridLayoutRowStretchERK7QStringP11QGridLayout@Qt_5 5.6.0~beta
 _ZN17QFormBuilderExtra25clearGridLayoutRowStretchEP11QGridLayout@Qt_5 5.6.0~beta
 _ZN17QFormBuilderExtra25setProcessingLayoutWidgetEb@Qt_5 5.6.0~beta
 _ZN17QFormBuilderExtra26gridLayoutRowMinimumHeightEPK11QGridLayout@Qt_5 5.6.0~beta
 _ZN17QFormBuilderExtra26setGridLayoutColumnStretchERK7QStringP11QGridLayout@Qt_5 5.6.0~beta
 _ZN17QFormBuilderExtra28clearGridLayoutColumnStretchEP11QGridLayout@Qt_5 5.6.0~beta
 _ZN17QFormBuilderExtra28gridLayoutColumnMinimumWidthEPK11QGridLayout@Qt_5 5.6.0~beta
 _ZN17QFormBuilderExtra29setGridLayoutRowMinimumHeightERK7QStringP11QGridLayout@Qt_5 5.6.0~beta
 _ZN17QFormBuilderExtra31clearGridLayoutRowMinimumHeightEP11QGridLayout@Qt_5 5.6.0~beta
 _ZN17QFormBuilderExtra31setGridLayoutColumnMinimumWidthERK7QStringP11QGridLayout@Qt_5 5.6.0~beta
 _ZN17QFormBuilderExtra33clearGridLayoutColumnMinimumWidthEP11QGridLayout@Qt_5 5.6.0~beta
 _ZN17QFormBuilderExtra5clearEv@Qt_5 5.6.0~beta
 _ZN17QFormBuilderExtraC1Ev@Qt_5 5.6.0~beta
 _ZN17QFormBuilderExtraC2Ev@Qt_5 5.6.0~beta
 _ZN17QFormBuilderExtraD1Ev@Qt_5 5.6.0~beta
 _ZN17QFormBuilderExtraD2Ev@Qt_5 5.6.0~beta
 _ZN18DomConnectionHints14setElementHintERK5QListIP17DomConnectionHintE@Qt_5 5.6.0~beta
 _ZN18DomConnectionHints4readER16QXmlStreamReader@Qt_5 5.6.0~beta
 _ZN18DomConnectionHints5clearEb@Qt_5 5.6.0~beta
 _ZN18DomConnectionHintsC1Ev@Qt_5 5.6.0~beta
 _ZN18DomConnectionHintsC2Ev@Qt_5 5.6.0~beta
 _ZN18DomConnectionHintsD1Ev@Qt_5 5.6.0~beta
 _ZN18DomConnectionHintsD2Ev@Qt_5 5.6.0~beta
 _ZN18DomPropertyToolTip4readER16QXmlStreamReader@Qt_5 5.6.0~beta
 _ZN18DomPropertyToolTip5clearEb@Qt_5 5.6.0~beta
 _ZN18DomPropertyToolTipC1Ev@Qt_5 5.6.0~beta
 _ZN18DomPropertyToolTipC2Ev@Qt_5 5.6.0~beta
 _ZN18DomPropertyToolTipD1Ev@Qt_5 5.6.0~beta
 _ZN18DomPropertyToolTipD2Ev@Qt_5 5.6.0~beta
 _ZN18QDesignerQSettings10beginGroupERK7QString@Qt_5 5.6.0~beta
 _ZN18QDesignerQSettings23settingsApplicationNameEv@Qt_5 5.6.0~beta
 _ZN18QDesignerQSettings6removeERK7QString@Qt_5 5.6.0~beta
 _ZN18QDesignerQSettings8endGroupEv@Qt_5 5.6.0~beta
 _ZN18QDesignerQSettings8setValueERK7QStringRK8QVariant@Qt_5 5.6.0~beta
 _ZN18QDesignerQSettingsC1Ev@Qt_5 5.6.0~beta
 _ZN18QDesignerQSettingsC2Ev@Qt_5 5.6.0~beta
 _ZN18qdesigner_internal10CodeDialog10slotSaveAsEv@Qt_5 5.6.0~beta
 _ZN18qdesigner_internal10CodeDialog11qt_metacallEN11QMetaObject4CallEiPPv@Qt_5 5.6.0~beta
 _ZN18qdesigner_internal10CodeDialog11qt_metacastEPKc@Qt_5 5.6.0~beta
 _ZN18qdesigner_internal10CodeDialog12generateCodeEPK28QDesignerFormWindowInterfaceP7QStringS5_@Qt_5 5.6.0~beta
 _ZN18qdesigner_internal10CodeDialog14showCodeDialogEPK28QDesignerFormWindowInterfaceP7QWidgetP7QString@Qt_5 5.6.0~beta
 _ZN18qdesigner_internal10CodeDialog15setFormFileNameERK7QString@Qt_5 5.6.0~beta
 _ZN18qdesigner_internal10CodeDialog16staticMetaObjectE@Qt_5 5.6.0~beta
 _ZN18qdesigner_internal10CodeDialog17CodeDialogPrivateC1Ev@Qt_5 5.6.0~beta
 _ZN18qdesigner_internal10CodeDialog17CodeDialogPrivateC2Ev@Qt_5 5.6.0~beta
 _ZN18qdesigner_internal10CodeDialog7copyAllEv@Qt_5 5.6.0~beta
 _ZN18qdesigner_internal10CodeDialog7setCodeERK7QString@Qt_5 5.6.0~beta
 _ZN18qdesigner_internal10CodeDialog7warningERK7QString@Qt_5 5.6.0~beta
 _ZN18qdesigner_internal10CodeDialogC1EP7QWidget@Qt_5 5.6.0~beta
 _ZN18qdesigner_internal10CodeDialogC2EP7QWidget@Qt_5 5.6.0~beta
 _ZN18qdesigner_internal10CodeDialogD0Ev@Qt_5 5.6.0~beta
 _ZN18qdesigner_internal10CodeDialogD1Ev@Qt_5 5.6.0~beta
 _ZN18qdesigner_internal10CodeDialogD2Ev@Qt_5 5.6.0~beta
 _ZN18qdesigner_internal10Connection10setVisibleEb@Qt_5 5.6.0~beta
 _ZN18qdesigner_internal10Connection12checkWidgetsEv@Qt_5 5.6.0~beta
 _ZN18qdesigner_internal10Connection12updatePixmapENS_7CETypes8EndPoint4TypeE@Qt_5 5.6.0~beta
 _ZN18qdesigner_internal10Connection14updateKneeListEv@Qt_5 5.6.0~beta
 _ZN18qdesigner_internal10Connection16updateVisibilityEv@Qt_5 5.6.0~beta
 _ZN18qdesigner_internal10Connection8setLabelENS_7CETypes8EndPoint4TypeERK7QString@Qt_5 5.6.0~beta
 _ZN18qdesigner_internal10Connection8trimLineEv@Qt_5 5.6.0~beta
 _ZN18qdesigner_internal10Connection9setSourceEP7QObjectRK6QPoint@Qt_5 5.6.0~beta
 _ZN18qdesigner_internal10Connection9setTargetEP7QObjectRK6QPoint@Qt_5 5.6.0~beta
 _ZN18qdesigner_internal10ConnectionC1EPNS_14ConnectionEditE@Qt_5 5.6.0~beta
 _ZN18qdesigner_internal10ConnectionC1EPNS_14ConnectionEditEP7QObjectS4_@Qt_5 5.6.0~beta
 _ZN18qdesigner_internal10ConnectionC2EPNS_14ConnectionEditE@Qt_5 5.6.0~beta
 _ZN18qdesigner_internal10ConnectionC2EPNS_14ConnectionEditEP7QObjectS4_@Qt_5 5.6.0~beta
 _ZN18qdesigner_internal10LayoutInfo10layoutNameENS0_4TypeE@Qt_5 5.6.0~beta
 _ZN18qdesigner_internal10LayoutInfo10layoutTypeEPK28QDesignerFormEditorInterfacePK7QLayout@Qt_5 5.6.0~beta
 _ZN18qdesigner_internal10LayoutInfo10layoutTypeEPK28QDesignerFormEditorInterfacePK7QWidget@Qt_5 5.6.0~beta
 _ZN18qdesigner_internal10LayoutInfo10layoutTypeERK7QString@Qt_5 5.6.0~beta
 _ZN18qdesigner_internal10LayoutInfo11isEmptyItemEP11QLayoutItem@Qt_5 5.6.0~beta
 _ZN18qdesigner_internal10LayoutInfo12deleteLayoutEPK28QDesignerFormEditorInterfaceP7QWidget@Qt_5 5.6.0~beta
 _ZN18qdesigner_internal10LayoutInfo12layoutParentEPK28QDesignerFormEditorInterfaceP7QLayout@Qt_5 5.6.0~beta
 _ZN18qdesigner_internal10LayoutInfo13managedLayoutEPK28QDesignerFormEditorInterfaceP7QLayout@Qt_5 5.6.0~beta
 _ZN18qdesigner_internal10LayoutInfo13managedLayoutEPK28QDesignerFormEditorInterfacePK7QWidget@Qt_5 5.6.0~beta
 _ZN18qdesigner_internal10LayoutInfo14internalLayoutEPK7QWidget@Qt_5 5.6.0~beta
 _ZN18qdesigner_internal10LayoutInfo17laidoutWidgetTypeEPK28QDesignerFormEditorInterfaceP7QWidgetPbPP7QLayout@Qt_5 5.6.0~beta
 _ZN18qdesigner_internal10LayoutInfo17managedLayoutTypeEPK28QDesignerFormEditorInterfacePK7QWidgetPP7QLayout@Qt_5 5.6.0~beta
 _ZN18qdesigner_internal10ZoomWidget11qt_metacallEN11QMetaObject4CallEiPPv@Qt_5 5.6.0~beta
 _ZN18qdesigner_internal10ZoomWidget11qt_metacastEPKc@Qt_5 5.6.0~beta
 _ZN18qdesigner_internal10ZoomWidget11resizeEventEP12QResizeEvent@Qt_5 5.6.0~beta
 _ZN18qdesigner_internal10ZoomWidget16staticMetaObjectE@Qt_5 5.6.0~beta
 _ZN18qdesigner_internal10ZoomWidget17zoomedEventFilterEP7QObjectP6QEvent@Qt_5 5.6.0~beta
 _ZN18qdesigner_internal10ZoomWidget18resizeToWidgetSizeEv@Qt_5 5.6.0~beta
 _ZN18qdesigner_internal10ZoomWidget18setItemAcceptDropsEb@Qt_5 5.6.0~beta
 _ZN18qdesigner_internal10ZoomWidget31setWidgetZoomContextMenuEnabledEb@Qt_5 5.6.0~beta
 _ZN18qdesigner_internal10ZoomWidget8doResizeERK5QSize@Qt_5 5.6.0~beta
 _ZN18qdesigner_internal10ZoomWidget9applyZoomEv@Qt_5 5.6.0~beta
 _ZN18qdesigner_internal10ZoomWidget9setWidgetEP7QWidget6QFlagsIN2Qt10WindowTypeEE@Qt_5 5.6.0~beta
 _ZN18qdesigner_internal10ZoomWidgetC1EP7QWidget@Qt_5 5.6.0~beta
 _ZN18qdesigner_internal10ZoomWidgetC2EP7QWidget@Qt_5 5.6.0~beta
 _ZN18qdesigner_internal10isPromotedEP28QDesignerFormEditorInterfaceP7QWidget@Qt_5 5.6.0~beta
 _ZN18qdesigner_internal11ActionModel11qt_metacallEN11QMetaObject4CallEiPPv@Qt_5 5.6.0~beta
 _ZN18qdesigner_internal11ActionModel11qt_metacastEPKc@Qt_5 5.6.0~beta
 _ZN18qdesigner_internal11ActionModel12clearActionsEv@Qt_5 5.6.0~beta
 _ZN18qdesigner_internal11ActionModel12dropMimeDataEPK9QMimeDataN2Qt10DropActionEiiRK11QModelIndex@Qt_5 5.6.0~beta
 _ZN18qdesigner_internal11ActionModel14actionShortCutEP28QDesignerFormEditorInterfaceP7QAction@Qt_5 5.6.0~beta
 _ZN18qdesigner_internal11ActionModel14actionShortCutEPK31QDesignerPropertySheetExtension@Qt_5 5.6.0~beta
 _ZN18qdesigner_internal11ActionModel16staticMetaObjectE@Qt_5 5.6.0~beta
 _ZN18qdesigner_internal11ActionModel17associatedWidgetsEPK7QAction@Qt_5 5.6.0~beta
 _ZN18qdesigner_internal11ActionModel20resourceImageDroppedERK7QStringP7QAction@Qt_5 5.6.0~beta
 _ZN18qdesigner_internal11ActionModel6removeEi@Qt_5 5.6.0~beta
 _ZN18qdesigner_internal11ActionModel6updateEi@Qt_5 5.6.0~beta
 _ZN18qdesigner_internal11ActionModel8setItemsEP28QDesignerFormEditorInterfaceP7QActionRK5QIconR5QListIP13QStandardItemE@Qt_5 5.6.0~beta
 _ZN18qdesigner_internal11ActionModel9addActionEP7QAction@Qt_5 5.6.0~beta
 _ZN18qdesigner_internal11ActionModelC1EP7QWidget@Qt_5 5.6.0~beta
 _ZN18qdesigner_internal11ActionModelC2EP7QWidget@Qt_5 5.6.0~beta
 _ZN18qdesigner_internal11OrderDialog11qt_metacallEN11QMetaObject4CallEiPPv@Qt_5 5.6.0~beta
 _ZN18qdesigner_internal11OrderDialog11qt_metacastEPKc@Qt_5 5.6.0~beta
 _ZN18qdesigner_internal11OrderDialog11setPageListERK5QListIP7QWidgetE@Qt_5 5.6.0~beta
 _ZN18qdesigner_internal11OrderDialog13enableButtonsEi@Qt_5 5.6.0~beta
 _ZN18qdesigner_internal11OrderDialog14setDescriptionERK7QString@Qt_5 5.6.0~beta
 _ZN18qdesigner_internal11OrderDialog16pagesOfContainerEPK28QDesignerFormEditorInterfaceP7QWidget@Qt_5 5.6.0~beta
 _ZN18qdesigner_internal11OrderDialog16staticMetaObjectE@Qt_5 5.6.0~beta
 _ZN18qdesigner_internal11OrderDialog19on_upButton_clickedEv@Qt_5 5.6.0~beta
 _ZN18qdesigner_internal11OrderDialog21on_downButton_clickedEv@Qt_5 5.6.0~beta
 _ZN18qdesigner_internal11OrderDialog25slotEnableButtonsAfterDnDEv@Qt_5 5.6.0~beta
 _ZN18qdesigner_internal11OrderDialog29on_pageList_currentRowChangedEi@Qt_5 5.6.0~beta
 _ZN18qdesigner_internal11OrderDialog9buildListEv@Qt_5 5.6.0~beta
 _ZN18qdesigner_internal11OrderDialog9slotResetEv@Qt_5 5.6.0~beta
 _ZN18qdesigner_internal11OrderDialogC1EP7QWidget@Qt_5 5.6.0~beta
 _ZN18qdesigner_internal11OrderDialogC2EP7QWidget@Qt_5 5.6.0~beta
 _ZN18qdesigner_internal11OrderDialogD0Ev@Qt_5 5.6.0~beta
 _ZN18qdesigner_internal11OrderDialogD1Ev@Qt_5 5.6.0~beta
 _ZN18qdesigner_internal11OrderDialogD2Ev@Qt_5 5.6.0~beta
 _ZN18qdesigner_internal12ActionEditor10editActionEP7QAction@Qt_5 5.6.0~beta
 _ZN18qdesigner_internal12ActionEditor10slotDeleteEv@Qt_5 5.6.0~beta
 _ZN18qdesigner_internal12ActionEditor11copyActionsEP28QDesignerFormWindowInterfaceRK5QListIP7QActionE@Qt_5 5.6.0~beta
 _ZN18qdesigner_internal12ActionEditor11qt_metacallEN11QMetaObject4CallEiPPv@Qt_5 5.6.0~beta
 _ZN18qdesigner_internal12ActionEditor11qt_metacastEPKc@Qt_5 5.6.0~beta
 _ZN18qdesigner_internal12ActionEditor12manageActionEP7QAction@Qt_5 5.6.0~beta
 _ZN18qdesigner_internal12ActionEditor12saveSettingsEv@Qt_5 5.6.0~beta
 _ZN18qdesigner_internal12ActionEditor12slotViewModeEP7QAction@Qt_5 5.6.0~beta
 _ZN18qdesigner_internal12ActionEditor13deleteActionsEP28QDesignerFormWindowInterfaceRK5QListIP7QActionE@Qt_5 5.6.0~beta
 _ZN18qdesigner_internal12ActionEditor13itemActivatedEP7QAction@Qt_5 5.6.0~beta
 _ZN18qdesigner_internal12ActionEditor13setFormWindowEP28QDesignerFormWindowInterface@Qt_5 5.6.0~beta
 _ZN18qdesigner_internal12ActionEditor13slotNewActionEv@Qt_5 5.6.0~beta
 _ZN18qdesigner_internal12ActionEditor14unmanageActionEP7QAction@Qt_5 5.6.0~beta
 _ZN18qdesigner_internal12ActionEditor15restoreSettingsEv@Qt_5 5.6.0~beta
 _ZN18qdesigner_internal12ActionEditor16actionTextToNameERK7QStringS3_@Qt_5 5.6.0~beta
 _ZN18qdesigner_internal12ActionEditor16staticMetaObjectE@Qt_5 5.6.0~beta
 _ZN18qdesigner_internal12ActionEditor17editCurrentActionEv@Qt_5 5.6.0~beta
 _ZN18qdesigner_internal12ActionEditor17slotActionChangedEv@Qt_5 5.6.0~beta
 _ZN18qdesigner_internal12ActionEditor20contextMenuRequestedEP5QMenuP7QAction@Qt_5 5.6.0~beta
 _ZN18qdesigner_internal12ActionEditor20mainContainerChangedEv@Qt_5 5.6.0~beta
 _ZN18qdesigner_internal12ActionEditor20resourceImageDroppedERK7QStringP7QAction@Qt_5 5.6.0~beta
 _ZN18qdesigner_internal12ActionEditor20slotSelectionChangedERK14QItemSelectionS3_@Qt_5 5.6.0~beta
 _ZN18qdesigner_internal12ActionEditor21updateViewModeActionsEv@Qt_5 5.6.0~beta
 _ZN18qdesigner_internal12ActionEditor22slotCurrentItemChangedEP7QAction@Qt_5 5.6.0~beta
 _ZN18qdesigner_internal12ActionEditor24slotContextMenuRequestedEP17QContextMenuEventP7QAction@Qt_5 5.6.0~beta
 _ZN18qdesigner_internal12ActionEditor25createConfigureMenuButtonERK7QStringPP5QMenu@Qt_5 5.6.0~beta
 _ZN18qdesigner_internal12ActionEditor26slotSelectAssociatedWidgetEP7QWidget@Qt_5 5.6.0~beta
 _ZN18qdesigner_internal12ActionEditor27navigateToSlotCurrentActionEv@Qt_5 5.6.0~beta
 _ZN18qdesigner_internal12ActionEditor7slotCutEv@Qt_5 5.6.0~beta
 _ZN18qdesigner_internal12ActionEditor8slotCopyEv@Qt_5 5.6.0~beta
 _ZN18qdesigner_internal12ActionEditor9setFilterERK7QString@Qt_5 5.6.0~beta
 _ZN18qdesigner_internal12ActionEditor9slotPasteEv@Qt_5 5.6.0~beta
 _ZN18qdesigner_internal12ActionEditorC1EP28QDesignerFormEditorInterfaceP7QWidget6QFlagsIN2Qt10WindowTypeEE@Qt_5 5.6.0~beta
 _ZN18qdesigner_internal12ActionEditorC2EP28QDesignerFormEditorInterfaceP7QWidget6QFlagsIN2Qt10WindowTypeEE@Qt_5 5.6.0~beta
 _ZN18qdesigner_internal12ActionEditorD0Ev@Qt_5 5.6.0~beta
 _ZN18qdesigner_internal12ActionEditorD1Ev@Qt_5 5.6.0~beta
 _ZN18qdesigner_internal12ActionEditorD2Ev@Qt_5 5.6.0~beta
 _ZN18qdesigner_internal12IconSelector11checkPixmapERK7QStringNS0_9CheckModeEPS1_@Qt_5 5.6.0~beta
 _ZN18qdesigner_internal12IconSelector11iconChangedERKNS_22PropertySheetIconValueE@Qt_5 5.6.0~beta
 _ZN18qdesigner_internal12IconSelector11qt_metacallEN11QMetaObject4CallEiPPv@Qt_5 5.6.0~beta
 _ZN18qdesigner_internal12IconSelector11qt_metacastEPKc@Qt_5 5.6.0~beta
 _ZN18qdesigner_internal12IconSelector12setIconCacheEPNS_17DesignerIconCacheE@Qt_5 5.6.0~beta
 _ZN18qdesigner_internal12IconSelector13setFormEditorEP28QDesignerFormEditorInterface@Qt_5 5.6.0~beta
 _ZN18qdesigner_internal12IconSelector14setPixmapCacheEPNS_19DesignerPixmapCacheE@Qt_5 5.6.0~beta
 _ZN18qdesigner_internal12IconSelector16choosePixmapFileERK7QStringP27QDesignerDialogGuiInterfaceP7QWidget@Qt_5 5.6.0~beta
 _ZN18qdesigner_internal12IconSelector16staticMetaObjectE@Qt_5 5.6.0~beta
 _ZN18qdesigner_internal12IconSelector20choosePixmapResourceEP28QDesignerFormEditorInterfaceP15QtResourceModelRK7QStringP7QWidget@Qt_5 5.6.0~beta
 _ZN18qdesigner_internal12IconSelector7setIconERKNS_22PropertySheetIconValueE@Qt_5 5.6.0~beta
 _ZN18qdesigner_internal12IconSelectorC1EP7QWidget@Qt_5 5.6.0~beta
 _ZN18qdesigner_internal12IconSelectorC2EP7QWidget@Qt_5 5.6.0~beta
 _ZN18qdesigner_internal12IconSelectorD0Ev@Qt_5 5.6.0~beta
 _ZN18qdesigner_internal12IconSelectorD1Ev@Qt_5 5.6.0~beta
 _ZN18qdesigner_internal12IconSelectorD2Ev@Qt_5 5.6.0~beta
 _ZN18qdesigner_internal12ListContents18createFromComboBoxEPK9QComboBox@Qt_5 5.6.0~beta
 _ZN18qdesigner_internal12ListContents20createFromListWidgetEPK11QListWidgetb@Qt_5 5.6.0~beta
 _ZN18qdesigner_internal12ListContentsC1EPK15QTreeWidgetItem@Qt_5 5.6.0~beta
 _ZN18qdesigner_internal12ListContentsC2EPK15QTreeWidgetItem@Qt_5 5.6.0~beta
 _ZN18qdesigner_internal12MetaDataBase11qt_metacallEN11QMetaObject4CallEiPPv@Qt_5 5.6.0~beta
 _ZN18qdesigner_internal12MetaDataBase11qt_metacastEPKc@Qt_5 5.6.0~beta
 _ZN18qdesigner_internal12MetaDataBase13slotDestroyedEP7QObject@Qt_5 5.6.0~beta
 _ZN18qdesigner_internal12MetaDataBase16staticMetaObjectE@Qt_5 5.6.0~beta
 _ZN18qdesigner_internal12MetaDataBase3addEP7QObject@Qt_5 5.6.0~beta
 _ZN18qdesigner_internal12MetaDataBase6removeEP7QObject@Qt_5 5.6.0~beta
 _ZN18qdesigner_internal12MetaDataBaseC1EP28QDesignerFormEditorInterfaceP7QObject@Qt_5 5.6.0~beta
 _ZN18qdesigner_internal12MetaDataBaseC2EP28QDesignerFormEditorInterfaceP7QObject@Qt_5 5.6.0~beta
 _ZN18qdesigner_internal12MetaDataBaseD0Ev@Qt_5 5.6.0~beta
 _ZN18qdesigner_internal12MetaDataBaseD1Ev@Qt_5 5.6.0~beta
 _ZN18qdesigner_internal12MetaDataBaseD2Ev@Qt_5 5.6.0~beta
 _ZN18qdesigner_internal12demoteWidgetEP28QDesignerFormEditorInterfaceP7QWidget@Qt_5 5.6.0~beta
 _ZN18qdesigner_internal13DeviceProfile10fromSystemEv@Qt_5 5.6.0~beta
 _ZN18qdesigner_internal13DeviceProfile13setFontFamilyERK7QString@Qt_5 5.6.0~beta
 _ZN18qdesigner_internal13DeviceProfile16setFontPointSizeEi@Qt_5 5.6.0~beta
 _ZN18qdesigner_internal13DeviceProfile16systemResolutionEPiS1_@Qt_5 5.6.0~beta
 _ZN18qdesigner_internal13DeviceProfile16widgetResolutionEPK7QWidgetPiS4_@Qt_5 5.6.0~beta
 _ZN18qdesigner_internal13DeviceProfile5clearEv@Qt_5 5.6.0~beta
 _ZN18qdesigner_internal13DeviceProfile7fromXmlERK7QStringPS1_@Qt_5 5.6.0~beta
 _ZN18qdesigner_internal13DeviceProfile7setDpiXEi@Qt_5 5.6.0~beta
 _ZN18qdesigner_internal13DeviceProfile7setDpiYEi@Qt_5 5.6.0~beta
 _ZN18qdesigner_internal13DeviceProfile7setNameERK7QString@Qt_5 5.6.0~beta
 _ZN18qdesigner_internal13DeviceProfile8applyDPIEiiP7QWidget@Qt_5 5.6.0~beta
 _ZN18qdesigner_internal13DeviceProfile8setStyleERK7QString@Qt_5 5.6.0~beta
 _ZN18qdesigner_internal13DeviceProfileC1ERKS0_@Qt_5 5.6.0~beta
 _ZN18qdesigner_internal13DeviceProfileC1Ev@Qt_5 5.6.0~beta
 _ZN18qdesigner_internal13DeviceProfileC2ERKS0_@Qt_5 5.6.0~beta
 _ZN18qdesigner_internal13DeviceProfileC2Ev@Qt_5 5.6.0~beta
 _ZN18qdesigner_internal13DeviceProfileD1Ev@Qt_5 5.6.0~beta
 _ZN18qdesigner_internal13DeviceProfileD2Ev@Qt_5 5.6.0~beta
 _ZN18qdesigner_internal13DeviceProfileaSERKS0_@Qt_5 5.6.0~beta
 _ZN18qdesigner_internal13LayoutCommand4initEP7QWidgetRK5QListIS2_ENS_10LayoutInfo4TypeES2_b@Qt_5 5.6.0~beta
 _ZN18qdesigner_internal13LayoutCommand4redoEv@Qt_5 5.6.0~beta
 _ZN18qdesigner_internal13LayoutCommand4undoEv@Qt_5 5.6.0~beta
 _ZN18qdesigner_internal13LayoutCommandC1EP28QDesignerFormWindowInterface@Qt_5 5.6.0~beta
 _ZN18qdesigner_internal13LayoutCommandC2EP28QDesignerFormWindowInterface@Qt_5 5.6.0~beta
 _ZN18qdesigner_internal13LayoutCommandD0Ev@Qt_5 5.6.0~beta
 _ZN18qdesigner_internal13LayoutCommandD1Ev@Qt_5 5.6.0~beta
 _ZN18qdesigner_internal13LayoutCommandD2Ev@Qt_5 5.6.0~beta
 _ZN18qdesigner_internal13NewFormWidget11qt_metacallEN11QMetaObject4CallEiPPv@Qt_5 5.6.0~beta
 _ZN18qdesigner_internal13NewFormWidget11qt_metacastEPKc@Qt_5 5.6.0~beta
 _ZN18qdesigner_internal13NewFormWidget15currentTemplateEP7QString@Qt_5 5.6.0~beta
 _ZN18qdesigner_internal13NewFormWidget15setTemplateSizeERK5QSize@Qt_5 5.6.0~beta
 _ZN18qdesigner_internal13NewFormWidget16currentTemplateIEP7QString@Qt_5 5.6.0~beta
 _ZN18qdesigner_internal13NewFormWidget16staticMetaObjectE@Qt_5 5.6.0~beta
 _ZN18qdesigner_internal13NewFormWidget17formPreviewPixmapEPK15QTreeWidgetItem@Qt_5 5.6.0~beta
 _ZN18qdesigner_internal13NewFormWidget21showCurrentItemPixmapEv@Qt_5 5.6.0~beta
 _ZN18qdesigner_internal13NewFormWidget25on_treeWidget_itemPressedEP15QTreeWidgetItem@Qt_5 5.6.0~beta
 _ZN18qdesigner_internal13NewFormWidget27on_treeWidget_itemActivatedEP15QTreeWidgetItem@Qt_5 5.6.0~beta
 _ZN18qdesigner_internal13NewFormWidget29slotDeviceProfileIndexChangedEi@Qt_5 5.6.0~beta
 _ZN18qdesigner_internal13NewFormWidget32on_treeWidget_currentItemChangedEP15QTreeWidgetItemS2_@Qt_5 5.6.0~beta
 _ZN18qdesigner_internal13NewFormWidget8grabFormEP28QDesignerFormEditorInterfaceR9QIODeviceRK7QStringRKNS_13DeviceProfileE@Qt_5 5.6.0~beta
 _ZN18qdesigner_internal13NewFormWidget8loadFromERK7QStringRK11QStringListS3_RP15QTreeWidgetItem@Qt_5 5.6.0~beta
 _ZN18qdesigner_internal13NewFormWidget8loadFromERK7QStringbS3_S3_RP15QTreeWidgetItem@Qt_5 5.6.0~beta
 _ZN18qdesigner_internal13NewFormWidgetC1EP28QDesignerFormEditorInterfaceP7QWidget@Qt_5 5.6.0~beta
 _ZN18qdesigner_internal13NewFormWidgetC2EP28QDesignerFormEditorInterfaceP7QWidget@Qt_5 5.6.0~beta
 _ZN18qdesigner_internal13NewFormWidgetD0Ev@Qt_5 5.6.0~beta
 _ZN18qdesigner_internal13NewFormWidgetD1Ev@Qt_5 5.6.0~beta
 _ZN18qdesigner_internal13NewFormWidgetD2Ev@Qt_5 5.6.0~beta
 _ZN18qdesigner_internal13SheetDelegate11qt_metacallEN11QMetaObject4CallEiPPv@Qt_5 5.6.0~beta
 _ZN18qdesigner_internal13SheetDelegate11qt_metacastEPKc@Qt_5 5.6.0~beta
 _ZN18qdesigner_internal13SheetDelegate16staticMetaObjectE@Qt_5 5.6.0~beta
 _ZN18qdesigner_internal13SheetDelegateC1EP9QTreeViewP7QWidget@Qt_5 5.6.0~beta
 _ZN18qdesigner_internal13SheetDelegateC2EP9QTreeViewP7QWidget@Qt_5 5.6.0~beta
 _ZN18qdesigner_internal13UpdateBlockerC1EP7QWidget@Qt_5 5.6.0~beta
 _ZN18qdesigner_internal13UpdateBlockerC2EP7QWidget@Qt_5 5.6.0~beta
 _ZN18qdesigner_internal13UpdateBlockerD1Ev@Qt_5 5.6.0~beta
 _ZN18qdesigner_internal13UpdateBlockerD2Ev@Qt_5 5.6.0~beta
 _ZN18qdesigner_internal13WidgetFactory11classNameOfEP28QDesignerFormEditorInterfacePK7QObject@Qt_5 5.6.0~beta
 _ZN18qdesigner_internal13WidgetFactory11loadPluginsEv@Qt_5 5.6.0~beta
 _ZN18qdesigner_internal13WidgetFactory11qt_metacallEN11QMetaObject4CallEiPPv@Qt_5 5.6.0~beta
 _ZN18qdesigner_internal13WidgetFactory11qt_metacastEPKc@Qt_5 5.6.0~beta
 _ZN18qdesigner_internal13WidgetFactory12setStyleNameERK7QString@Qt_5 5.6.0~beta
 _ZN18qdesigner_internal13WidgetFactory15formWindowAddedEP28QDesignerFormWindowInterface@Qt_5 5.6.0~beta
 _ZN18qdesigner_internal13WidgetFactory16staticMetaObjectE@Qt_5 5.6.0~beta
 _ZN18qdesigner_internal13WidgetFactory17currentFormWindowEP28QDesignerFormWindowInterface@Qt_5 5.6.0~beta
 _ZN18qdesigner_internal13WidgetFactory18applyStyleTopLevelERK7QStringP7QWidget@Qt_5 5.6.0~beta
 _ZN18qdesigner_internal13WidgetFactory18isFormEditorObjectEPK7QObject@Qt_5 5.6.0~beta
 _ZN18qdesigner_internal13WidgetFactory18setFormWindowStyleEP28QDesignerFormWindowInterface@Qt_5 5.6.0~beta
 _ZN18qdesigner_internal13WidgetFactory19isPassiveInteractorEP7QWidget@Qt_5 5.6.0~beta
 _ZN18qdesigner_internal13WidgetFactory20applyStyleToTopLevelEP6QStyleP7QWidget@Qt_5 5.6.0~beta
 _ZN18qdesigner_internal13WidgetFactory21createUnmanagedLayoutEP7QWidgeti@Qt_5 5.6.0~beta
 _ZN18qdesigner_internal13WidgetFactory23activeFormWindowChangedEP28QDesignerFormWindowInterface@Qt_5 5.6.0~beta
 _ZN18qdesigner_internal13WidgetFactory23m_lastPassiveInteractorE@Qt_5 5.6.0~beta
 _ZN18qdesigner_internal13WidgetFactory27m_lastWasAPassiveInteractorE@Qt_5 5.6.0~beta
 _ZN18qdesigner_internal13WidgetFactory35disableStyleCustomPaintingPropertyCE@Qt_5 5.6.0~beta
 _ZN18qdesigner_internal13WidgetFactory7StringsC1Ev@Qt_5 5.6.0~beta
 _ZN18qdesigner_internal13WidgetFactory7StringsC2Ev@Qt_5 5.6.0~beta
 _ZN18qdesigner_internal13WidgetFactory8getStyleERK7QString@Qt_5 5.6.0~beta
 _ZN18qdesigner_internal13WidgetFactoryC1EP28QDesignerFormEditorInterfaceP7QObject@Qt_5 5.6.0~beta
 _ZN18qdesigner_internal13WidgetFactoryC2EP28QDesignerFormEditorInterfaceP7QObject@Qt_5 5.6.0~beta
 _ZN18qdesigner_internal13WidgetFactoryD0Ev@Qt_5 5.6.0~beta
 _ZN18qdesigner_internal13WidgetFactoryD1Ev@Qt_5 5.6.0~beta
 _ZN18qdesigner_internal13WidgetFactoryD2Ev@Qt_5 5.6.0~beta
 _ZN18qdesigner_internal13appendDerivedEP32QDesignerWidgetDataBaseInterfaceRK7QStringS4_S4_S4_bb@Qt_5 5.6.0~beta
 _ZN18qdesigner_internal13createIconSetERK7QString@Qt_5 5.6.0~beta
 _ZN18qdesigner_internal13promoteWidgetEP28QDesignerFormEditorInterfaceP7QWidgetRK7QString@Qt_5 5.6.0~beta
 _ZN18qdesigner_internal14ConnectionEdit10paintEventEP11QPaintEvent@Qt_5 5.6.0~beta
 _ZN18qdesigner_internal14ConnectionEdit10paintLabelEP8QPainterNS_7CETypes8EndPoint4TypeEPNS_10ConnectionE@Qt_5 5.6.0~beta
 _ZN18qdesigner_internal14ConnectionEdit10selectNoneEv@Qt_5 5.6.0~beta
 _ZN18qdesigner_internal14ConnectionEdit11qt_metacallEN11QMetaObject4CallEiPPv@Qt_5 5.6.0~beta
 _ZN18qdesigner_internal14ConnectionEdit11qt_metacastEPKc@Qt_5 5.6.0~beta
 _ZN18qdesigner_internal14ConnectionEdit11resizeEventEP12QResizeEvent@Qt_5 5.6.0~beta
 _ZN18qdesigner_internal14ConnectionEdit11setSelectedEPNS_10ConnectionEb@Qt_5 5.6.0~beta
 _ZN18qdesigner_internal14ConnectionEdit11updateLinesEv@Qt_5 5.6.0~beta
 _ZN18qdesigner_internal14ConnectionEdit12continueDragERK6QPoint@Qt_5 5.6.0~beta
 _ZN18qdesigner_internal14ConnectionEdit13addConnectionEPNS_10ConnectionE@Qt_5 5.6.0~beta
 _ZN18qdesigner_internal14ConnectionEdit13adjustHotSoptERKNS_7CETypes8EndPointERK6QPoint@Qt_5 5.6.0~beta
 _ZN18qdesigner_internal14ConnectionEdit13endConnectionEP7QWidgetRK6QPoint@Qt_5 5.6.0~beta
 _ZN18qdesigner_internal14ConnectionEdit13keyPressEventEP9QKeyEvent@Qt_5 5.6.0~beta
 _ZN18qdesigner_internal14ConnectionEdit13objectRemovedEP7QObject@Qt_5 5.6.0~beta
 _ZN18qdesigner_internal14ConnectionEdit13setBackgroundEP7QWidget@Qt_5 5.6.0~beta
 _ZN18qdesigner_internal14ConnectionEdit13widgetRemovedEP7QWidget@Qt_5 5.6.0~beta
 _ZN18qdesigner_internal14ConnectionEdit14deleteSelectedEv@Qt_5 5.6.0~beta
 _ZN18qdesigner_internal14ConnectionEdit14mouseMoveEventEP11QMouseEvent@Qt_5 5.6.0~beta
 _ZN18qdesigner_internal14ConnectionEdit14takeConnectionEPNS_10ConnectionE@Qt_5 5.6.0~beta
 _ZN18qdesigner_internal14ConnectionEdit15abortConnectionEv@Qt_5 5.6.0~beta
 _ZN18qdesigner_internal14ConnectionEdit15connectionAddedEPNS_10ConnectionE@Qt_5 5.6.0~beta
 _ZN18qdesigner_internal14ConnectionEdit15mousePressEventEP11QMouseEvent@Qt_5 5.6.0~beta
 _ZN18qdesigner_internal14ConnectionEdit15startConnectionEP7QWidgetRK6QPoint@Qt_5 5.6.0~beta
 _ZN18qdesigner_internal14ConnectionEdit15widgetActivatedEP7QWidget@Qt_5 5.6.0~beta
 _ZN18qdesigner_internal14ConnectionEdit16contextMenuEventEP17QContextMenuEvent@Qt_5 5.6.0~beta
 _ZN18qdesigner_internal14ConnectionEdit16createConnectionEP7QWidgetS2_@Qt_5 5.6.0~beta
 _ZN18qdesigner_internal14ConnectionEdit16modifyConnectionEPNS_10ConnectionE@Qt_5 5.6.0~beta
 _ZN18qdesigner_internal14ConnectionEdit16staticMetaObjectE@Qt_5 5.6.0~beta
 _ZN18qdesigner_internal14ConnectionEdit16updateBackgroundEv@Qt_5 5.6.0~beta
 _ZN18qdesigner_internal14ConnectionEdit17connectionChangedEPNS_10ConnectionE@Qt_5 5.6.0~beta
 _ZN18qdesigner_internal14ConnectionEdit17connectionRemovedEi@Qt_5 5.6.0~beta
 _ZN18qdesigner_internal14ConnectionEdit17createContextMenuER5QMenu@Qt_5 5.6.0~beta
 _ZN18qdesigner_internal14ConnectionEdit17mouseReleaseEventEP11QMouseEvent@Qt_5 5.6.0~beta
 _ZN18qdesigner_internal14ConnectionEdit18connectionSelectedEPNS_10ConnectionE@Qt_5 5.6.0~beta
 _ZN18qdesigner_internal14ConnectionEdit18continueConnectionEP7QWidgetRK6QPoint@Qt_5 5.6.0~beta
 _ZN18qdesigner_internal14ConnectionEdit20aboutToAddConnectionEi@Qt_5 5.6.0~beta
 _ZN18qdesigner_internal14ConnectionEdit21findObjectsUnderMouseERK6QPoint@Qt_5 5.6.0~beta
 _ZN18qdesigner_internal14ConnectionEdit21mouseDoubleClickEventEP11QMouseEvent@Qt_5 5.6.0~beta
 _ZN18qdesigner_internal14ConnectionEdit22enableUpdateBackgroundEb@Qt_5 5.6.0~beta
 _ZN18qdesigner_internal14ConnectionEdit23aboutToRemoveConnectionEPNS_10ConnectionE@Qt_5 5.6.0~beta
 _ZN18qdesigner_internal14ConnectionEdit25clearNewlyAddedConnectionEv@Qt_5 5.6.0~beta
 _ZN18qdesigner_internal14ConnectionEdit5clearEv@Qt_5 5.6.0~beta
 _ZN18qdesigner_internal14ConnectionEdit7endDragERK6QPoint@Qt_5 5.6.0~beta
 _ZN18qdesigner_internal14ConnectionEdit9selectAllEv@Qt_5 5.6.0~beta
 _ZN18qdesigner_internal14ConnectionEdit9setSourceEPNS_10ConnectionERK7QString@Qt_5 5.6.0~beta
 _ZN18qdesigner_internal14ConnectionEdit9setTargetEPNS_10ConnectionERK7QString@Qt_5 5.6.0~beta
 _ZN18qdesigner_internal14ConnectionEdit9startDragERKNS_7CETypes8EndPointERK6QPoint@Qt_5 5.6.0~beta
 _ZN18qdesigner_internal14ConnectionEditC1EP7QWidgetP28QDesignerFormWindowInterface@Qt_5 5.6.0~beta
 _ZN18qdesigner_internal14ConnectionEditC2EP7QWidgetP28QDesignerFormWindowInterface@Qt_5 5.6.0~beta
 _ZN18qdesigner_internal14ConnectionEditD0Ev@Qt_5 5.6.0~beta
 _ZN18qdesigner_internal14ConnectionEditD1Ev@Qt_5 5.6.0~beta
 _ZN18qdesigner_internal14ConnectionEditD2Ev@Qt_5 5.6.0~beta
 _ZN18qdesigner_internal14CssHighlighter11qt_metacallEN11QMetaObject4CallEiPPv@Qt_5 5.6.0~beta
 _ZN18qdesigner_internal14CssHighlighter11qt_metacastEPKc@Qt_5 5.6.0~beta
 _ZN18qdesigner_internal14CssHighlighter14highlightBlockERK7QString@Qt_5 5.6.0~beta
 _ZN18qdesigner_internal14CssHighlighter16staticMetaObjectE@Qt_5 5.6.0~beta
 _ZN18qdesigner_internal14CssHighlighter9highlightERK7QStringiii@Qt_5 5.6.0~beta
 _ZN18qdesigner_internal14CssHighlighterC1EP13QTextDocument@Qt_5 5.6.0~beta
 _ZN18qdesigner_internal14CssHighlighterC2EP13QTextDocument@Qt_5 5.6.0~beta
 _ZN18qdesigner_internal14FormLayoutMenu10slotAddRowEv@Qt_5 5.6.0~beta
 _ZN18qdesigner_internal14FormLayoutMenu11qt_metacallEN11QMetaObject4CallEiPPv@Qt_5 5.6.0~beta
 _ZN18qdesigner_internal14FormLayoutMenu11qt_metacastEPKc@Qt_5 5.6.0~beta
 _ZN18qdesigner_internal14FormLayoutMenu16staticMetaObjectE@Qt_5 5.6.0~beta
 _ZN18qdesigner_internal14FormLayoutMenu19preferredEditActionEP7QWidgetP28QDesignerFormWindowInterface@Qt_5 5.6.0~beta
 _ZN18qdesigner_internal14FormLayoutMenu8populateEP7QWidgetP28QDesignerFormWindowInterfaceR5QListIP7QActionE@Qt_5 5.6.0~beta
 _ZN18qdesigner_internal14FormLayoutMenuC1EP7QObject@Qt_5 5.6.0~beta
 _ZN18qdesigner_internal14FormLayoutMenuC2EP7QObject@Qt_5 5.6.0~beta
 _ZN18qdesigner_internal14FormWindowBase11qt_metacallEN11QMetaObject4CallEiPPv@Qt_5 5.6.0~beta
 _ZN18qdesigner_internal14FormWindowBase11qt_metacastEPKc@Qt_5 5.6.0~beta
 _ZN18qdesigner_internal14FormWindowBase11setFeaturesE6QFlagsIN28QDesignerFormWindowInterface11FeatureFlagEE@Qt_5 5.6.0~beta
 _ZN18qdesigner_internal14FormWindowBase11setFormDataERK4QMapI7QString8QVariantE@Qt_5 5.6.0~beta
 _ZN18qdesigner_internal14FormWindowBase14setHasFormGridEb@Qt_5 5.6.0~beta
 _ZN18qdesigner_internal14FormWindowBase14setResourceSetEP13QtResourceSet@Qt_5 5.6.0~beta
 _ZN18qdesigner_internal14FormWindowBase15setDesignerGridERKNS_4GridE@Qt_5 5.6.0~beta
 _ZN18qdesigner_internal14FormWindowBase15syncGridFeatureEv@Qt_5 5.6.0~beta
 _ZN18qdesigner_internal14FormWindowBase16deleteWidgetListERK5QListIP7QWidgetE@Qt_5 5.6.0~beta
 _ZN18qdesigner_internal14FormWindowBase16reloadPropertiesEv@Qt_5 5.6.0~beta
 _ZN18qdesigner_internal14FormWindowBase16staticMetaObjectE@Qt_5 5.6.0~beta
 _ZN18qdesigner_internal14FormWindowBase16widgetUnderMouseERK6QPointNS0_20WidgetUnderMouseModeE@Qt_5 5.6.0~beta
 _ZN18qdesigner_internal14FormWindowBase17emitObjectRemovedEP7QObject@Qt_5 5.6.0~beta
 _ZN18qdesigner_internal14FormWindowBase17emitWidgetRemovedEP7QWidget@Qt_5 5.6.0~beta
 _ZN18qdesigner_internal14FormWindowBase19defaultDesignerGridEv@Qt_5 5.6.0~beta
 _ZN18qdesigner_internal14FormWindowBase19initializePopupMenuEP7QWidget@Qt_5 5.6.0~beta
 _ZN18qdesigner_internal14FormWindowBase20resourceSetActivatedEP13QtResourceSetb@Qt_5 5.6.0~beta
 _ZN18qdesigner_internal14FormWindowBase20triggerDefaultActionEP7QWidget@Qt_5 5.6.0~beta
 _ZN18qdesigner_internal14FormWindowBase21addReloadablePropertyEP22QDesignerPropertySheeti@Qt_5 5.6.0~beta
 _ZN18qdesigner_internal14FormWindowBase21setLineTerminatorModeENS0_18LineTerminatorModeE@Qt_5 5.6.0~beta
 _ZN18qdesigner_internal14FormWindowBase22setDefaultDesignerGridERKNS_4GridE@Qt_5 5.6.0~beta
 _ZN18qdesigner_internal14FormWindowBase23createExtensionTaskMenuEP28QDesignerFormWindowInterfaceP7QObjectb@Qt_5 5.6.0~beta
 _ZN18qdesigner_internal14FormWindowBase23setResourceFileSaveModeEN28QDesignerFormWindowInterface20ResourceFileSaveModeE@Qt_5 5.6.0~beta
 _ZN18qdesigner_internal14FormWindowBase24removeReloadablePropertyEP22QDesignerPropertySheeti@Qt_5 5.6.0~beta
 _ZN18qdesigner_internal14FormWindowBase26addReloadablePropertySheetEP22QDesignerPropertySheetP7QObject@Qt_5 5.6.0~beta
 _ZN18qdesigner_internal14FormWindowBase29removeReloadablePropertySheetEP22QDesignerPropertySheet@Qt_5 5.6.0~beta
 _ZN18qdesigner_internal14FormWindowBase7setGridERK6QPoint@Qt_5 5.6.0~beta
 _ZN18qdesigner_internal14FormWindowBase8formDataEv@Qt_5 5.6.0~beta
 _ZN18qdesigner_internal14FormWindowBaseC1EP28QDesignerFormEditorInterfaceP7QWidget6QFlagsIN2Qt10WindowTypeEE@Qt_5 5.6.0~beta
 _ZN18qdesigner_internal14FormWindowBaseC2EP28QDesignerFormEditorInterfaceP7QWidget6QFlagsIN2Qt10WindowTypeEE@Qt_5 5.6.0~beta
 _ZN18qdesigner_internal14FormWindowBaseD0Ev@Qt_5 5.6.0~beta
 _ZN18qdesigner_internal14FormWindowBaseD1Ev@Qt_5 5.6.0~beta
 _ZN18qdesigner_internal14FormWindowBaseD2Ev@Qt_5 5.6.0~beta
 _ZN18qdesigner_internal14PreviewManager11eventFilterEP7QObjectP6QEvent@Qt_5 5.6.0~beta
 _ZN18qdesigner_internal14PreviewManager11qt_metacallEN11QMetaObject4CallEiPPv@Qt_5 5.6.0~beta
 _ZN18qdesigner_internal14PreviewManager11qt_metacastEPKc@Qt_5 5.6.0~beta
 _ZN18qdesigner_internal14PreviewManager11showPreviewEPK28QDesignerFormWindowInterfaceRK7QStringPS4_@Qt_5 5.6.0~beta
 _ZN18qdesigner_internal14PreviewManager11showPreviewEPK28QDesignerFormWindowInterfaceRK7QStringiPS4_@Qt_5 5.6.0~beta
 _ZN18qdesigner_internal14PreviewManager11showPreviewEPK28QDesignerFormWindowInterfaceRKNS_20PreviewConfigurationEiP7QString@Qt_5 5.6.0~beta
 _ZN18qdesigner_internal14PreviewManager13createPreviewEPK28QDesignerFormWindowInterfaceRKNS_20PreviewConfigurationEiP7QStringi@Qt_5 5.6.0~beta
 _ZN18qdesigner_internal14PreviewManager15slotZoomChangedEi@Qt_5 5.6.0~beta
 _ZN18qdesigner_internal14PreviewManager16closeAllPreviewsEv@Qt_5 5.6.0~beta
 _ZN18qdesigner_internal14PreviewManager16staticMetaObjectE@Qt_5 5.6.0~beta
 _ZN18qdesigner_internal14PreviewManager17lastPreviewClosedEv@Qt_5 5.6.0~beta
 _ZN18qdesigner_internal14PreviewManager18firstPreviewOpenedEv@Qt_5 5.6.0~beta
 _ZN18qdesigner_internal14PreviewManager19createPreviewPixmapEPK28QDesignerFormWindowInterfaceRK7QStringPS4_@Qt_5 5.6.0~beta
 _ZN18qdesigner_internal14PreviewManager19createPreviewPixmapEPK28QDesignerFormWindowInterfaceRK7QStringiPS4_@Qt_5 5.6.0~beta
 _ZN18qdesigner_internal14PreviewManager19createPreviewPixmapEPK28QDesignerFormWindowInterfaceRKNS_20PreviewConfigurationEiP7QString@Qt_5 5.6.0~beta
 _ZN18qdesigner_internal14PreviewManager19updatePreviewClosedEP7QWidget@Qt_5 5.6.0~beta
 _ZN18qdesigner_internal14PreviewManager5raiseEPK28QDesignerFormWindowInterfaceRKNS_20PreviewConfigurationE@Qt_5 5.6.0~beta
 _ZN18qdesigner_internal14PreviewManagerC1ENS0_11PreviewModeEP7QObject@Qt_5 5.6.0~beta
 _ZN18qdesigner_internal14PreviewManagerC2ENS0_11PreviewModeEP7QObject@Qt_5 5.6.0~beta
 _ZN18qdesigner_internal14PreviewManagerD0Ev@Qt_5 5.6.0~beta
 _ZN18qdesigner_internal14PreviewManagerD1Ev@Qt_5 5.6.0~beta
 _ZN18qdesigner_internal14PreviewManagerD2Ev@Qt_5 5.6.0~beta
 _ZN18qdesigner_internal14PropertyHelper10applyValueEP28QDesignerFormWindowInterfaceRK8QVariant5QPairIS3_bE@Qt_5 5.6.0~beta
 _ZN18qdesigner_internal14PropertyHelper12updateObjectEP28QDesignerFormWindowInterfaceRK8QVariantS5_@Qt_5 5.6.0~beta
 _ZN18qdesigner_internal14PropertyHelper15restoreOldValueEP28QDesignerFormWindowInterface@Qt_5 5.6.0~beta
 _ZN18qdesigner_internal14PropertyHelper19restoreDefaultValueEP28QDesignerFormWindowInterface@Qt_5 5.6.0~beta
 _ZN18qdesigner_internal14PropertyHelper20triggerActionChangedEP7QAction@Qt_5 5.6.0~beta
 _ZN18qdesigner_internal14PropertyHelper21checkApplyWidgetValueEP28QDesignerFormWindowInterfaceP7QWidgetNS_15SpecialPropertyER8QVariant@Qt_5 5.6.0~beta
 _ZN18qdesigner_internal14PropertyHelper8setValueEP28QDesignerFormWindowInterfaceRK8QVariantbj@Qt_5 5.6.0~beta
 _ZN18qdesigner_internal14PropertyHelperC1EP7QObjectNS_15SpecialPropertyEP31QDesignerPropertySheetExtensioni@Qt_5 5.6.0~beta
 _ZN18qdesigner_internal14PropertyHelperC2EP7QObjectNS_15SpecialPropertyEP31QDesignerPropertySheetExtensioni@Qt_5 5.6.0~beta
 _ZN18qdesigner_internal14QLayoutSupport10findItemAtEP11QGridLayoutii@Qt_5 5.6.0~beta
 _ZN18qdesigner_internal14QLayoutSupport11qt_metacallEN11QMetaObject4CallEiPPv@Qt_5 5.6.0~beta
 _ZN18qdesigner_internal14QLayoutSupport11qt_metacastEPKc@Qt_5 5.6.0~beta
 _ZN18qdesigner_internal14QLayoutSupport13hideIndicatorENS0_9IndicatorE@Qt_5 5.6.0~beta
 _ZN18qdesigner_internal14QLayoutSupport13setInsertModeEN34QDesignerLayoutDecorationExtension10InsertModeE@Qt_5 5.6.0~beta
 _ZN18qdesigner_internal14QLayoutSupport13showIndicatorENS0_9IndicatorERK5QRectRK8QPalette@Qt_5 5.6.0~beta
 _ZN18qdesigner_internal14QLayoutSupport14setCurrentCellERK5QPairIiiE@Qt_5 5.6.0~beta
 _ZN18qdesigner_internal14QLayoutSupport15adjustIndicatorERK6QPointi@Qt_5 5.6.0~beta
 _ZN18qdesigner_internal14QLayoutSupport16createEmptyCellsEP11QFormLayout@Qt_5 5.6.0~beta
 _ZN18qdesigner_internal14QLayoutSupport16createEmptyCellsEP11QGridLayout@Qt_5 5.6.0~beta
 _ZN18qdesigner_internal14QLayoutSupport16removeEmptyCellsEP11QFormLayoutRK5QRect@Qt_5 5.6.0~beta
 _ZN18qdesigner_internal14QLayoutSupport16removeEmptyCellsEP11QGridLayoutRK5QRect@Qt_5 5.6.0~beta
 _ZN18qdesigner_internal14QLayoutSupport16staticMetaObjectE@Qt_5 5.6.0~beta
 _ZN18qdesigner_internal14QLayoutSupport19createLayoutSupportEP28QDesignerFormWindowInterfaceP7QWidgetP7QObject@Qt_5 5.6.0~beta
 _ZN18qdesigner_internal14QLayoutSupport21canSimplifyQuickCheckEPK11QFormLayout@Qt_5 5.6.0~beta
 _ZN18qdesigner_internal14QLayoutSupport21canSimplifyQuickCheckEPK11QGridLayout@Qt_5 5.6.0~beta
 _ZN18qdesigner_internal14QLayoutSupportC1EP28QDesignerFormWindowInterfaceP7QWidgetPNS_12LayoutHelperEP7QObject@Qt_5 5.6.0~beta
 _ZN18qdesigner_internal14QLayoutSupportC2EP28QDesignerFormWindowInterfaceP7QWidgetPNS_12LayoutHelperEP7QObject@Qt_5 5.6.0~beta
 _ZN18qdesigner_internal14QLayoutSupportD0Ev@Qt_5 5.6.0~beta
 _ZN18qdesigner_internal14QLayoutSupportD1Ev@Qt_5 5.6.0~beta
 _ZN18qdesigner_internal14QLayoutSupportD2Ev@Qt_5 5.6.0~beta
 _ZN18qdesigner_internal14ToolBoxCommand10removePageEv@Qt_5 5.6.0~beta
 _ZN18qdesigner_internal14ToolBoxCommand4initEP8QToolBox@Qt_5 5.6.0~beta
 _ZN18qdesigner_internal14ToolBoxCommand7addPageEv@Qt_5 5.6.0~beta
 _ZN18qdesigner_internal14ToolBoxCommandC1EP28QDesignerFormWindowInterface@Qt_5 5.6.0~beta
 _ZN18qdesigner_internal14ToolBoxCommandC2EP28QDesignerFormWindowInterface@Qt_5 5.6.0~beta
 _ZN18qdesigner_internal14ToolBoxCommandD0Ev@Qt_5 5.6.0~beta
 _ZN18qdesigner_internal14ToolBoxCommandD1Ev@Qt_5 5.6.0~beta
 _ZN18qdesigner_internal14ToolBoxCommandD2Ev@Qt_5 5.6.0~beta
 _ZN18qdesigner_internal14WidgetDataBase11loadPluginsEv@Qt_5 5.6.0~beta
 _ZN18qdesigner_internal14WidgetDataBase11qt_metacallEN11QMetaObject4CallEiPPv@Qt_5 5.6.0~beta
 _ZN18qdesigner_internal14WidgetDataBase11qt_metacastEPKc@Qt_5 5.6.0~beta
 _ZN18qdesigner_internal14WidgetDataBase12formTemplateEPK28QDesignerFormEditorInterfaceRK7QStringS6_@Qt_5 5.6.0~beta
 _ZN18qdesigner_internal14WidgetDataBase16staticMetaObjectE@Qt_5 5.6.0~beta
 _ZN18qdesigner_internal14WidgetDataBase17formWidgetClassesEPK28QDesignerFormEditorInterface@Qt_5 5.6.0~beta
 _ZN18qdesigner_internal14WidgetDataBase17scaleFormTemplateERK7QStringRK5QSizeb@Qt_5 5.6.0~beta
 _ZN18qdesigner_internal14WidgetDataBase21defaultPropertyValuesERK7QString@Qt_5 5.6.0~beta
 _ZN18qdesigner_internal14WidgetDataBase23customFormWidgetClassesEPK28QDesignerFormEditorInterface@Qt_5 5.6.0~beta
 _ZN18qdesigner_internal14WidgetDataBase25grabDefaultPropertyValuesEv@Qt_5 5.6.0~beta
 _ZN18qdesigner_internal14WidgetDataBase26grabStandardWidgetBoxIconsEv@Qt_5 5.6.0~beta
 _ZN18qdesigner_internal14WidgetDataBase6removeEi@Qt_5 5.6.0~beta
 _ZN18qdesigner_internal14WidgetDataBaseC1EP28QDesignerFormEditorInterfaceP7QObject@Qt_5 5.6.0~beta
 _ZN18qdesigner_internal14WidgetDataBaseC2EP28QDesignerFormEditorInterfaceP7QObject@Qt_5 5.6.0~beta
 _ZN18qdesigner_internal14WidgetDataBaseD0Ev@Qt_5 5.6.0~beta
 _ZN18qdesigner_internal14WidgetDataBaseD1Ev@Qt_5 5.6.0~beta
 _ZN18qdesigner_internal14WidgetDataBaseD2Ev@Qt_5 5.6.0~beta
 _ZN18qdesigner_internal15IconThemeEditor11qt_metacallEN11QMetaObject4CallEiPPv@Qt_5 5.6.0~beta
 _ZN18qdesigner_internal15IconThemeEditor11qt_metacastEPKc@Qt_5 5.6.0~beta
 _ZN18qdesigner_internal15IconThemeEditor11slotChangedERK7QString@Qt_5 5.6.0~beta
 _ZN18qdesigner_internal15IconThemeEditor13updatePreviewERK7QString@Qt_5 5.6.0~beta
 _ZN18qdesigner_internal15IconThemeEditor16staticMetaObjectE@Qt_5 5.6.0~beta
 _ZN18qdesigner_internal15IconThemeEditor5resetEv@Qt_5 5.6.0~beta
 _ZN18qdesigner_internal15IconThemeEditor6editedERK7QString@Qt_5 5.6.0~beta
 _ZN18qdesigner_internal15IconThemeEditor8setThemeERK7QString@Qt_5 5.6.0~beta
 _ZN18qdesigner_internal15IconThemeEditorC1EP7QWidgetb@Qt_5 5.6.0~beta
 _ZN18qdesigner_internal15IconThemeEditorC2EP7QWidgetb@Qt_5 5.6.0~beta
 _ZN18qdesigner_internal15IconThemeEditorD0Ev@Qt_5 5.6.0~beta
 _ZN18qdesigner_internal15IconThemeEditorD1Ev@Qt_5 5.6.0~beta
 _ZN18qdesigner_internal15IconThemeEditorD2Ev@Qt_5 5.6.0~beta
 _ZN18qdesigner_internal15InvisibleWidget11qt_metacallEN11QMetaObject4CallEiPPv@Qt_5 5.6.0~beta
 _ZN18qdesigner_internal15InvisibleWidget11qt_metacastEPKc@Qt_5 5.6.0~beta
 _ZN18qdesigner_internal15InvisibleWidget16staticMetaObjectE@Qt_5 5.6.0~beta
 _ZN18qdesigner_internal15InvisibleWidgetC1EP7QWidget@Qt_5 5.6.0~beta
 _ZN18qdesigner_internal15InvisibleWidgetC2EP7QWidget@Qt_5 5.6.0~beta
 _ZN18qdesigner_internal15QSimpleResource10setupBrushEP8DomBrush@Qt_5 5.6.0~beta
 _ZN18qdesigner_internal15QSimpleResource12createScriptERK7QStringNS0_12ScriptSourceE@Qt_5 5.6.0~beta
 _ZN18qdesigner_internal15QSimpleResource14addFakeMethodsEPK8DomSlotsR11QStringListS5_@Qt_5 5.6.0~beta
 _ZN18qdesigner_internal15QSimpleResource17m_warningsEnabledE@Qt_5 5.6.0~beta
 _ZN18qdesigner_internal15QSimpleResource18customWidgetScriptEP28QDesignerFormEditorInterfaceP7QObject@Qt_5 5.6.0~beta
 _ZN18qdesigner_internal15QSimpleResource18customWidgetScriptEP28QDesignerFormEditorInterfaceRK7QString@Qt_5 5.6.0~beta
 _ZN18qdesigner_internal15QSimpleResource21addExtensionDataToDOMEP20QAbstractFormBuilderP28QDesignerFormEditorInterfaceP9DomWidgetP7QWidget@Qt_5 5.6.0~beta
 _ZN18qdesigner_internal15QSimpleResource21hasCustomWidgetScriptEP28QDesignerFormEditorInterfaceP7QObject@Qt_5 5.6.0~beta
 _ZN18qdesigner_internal15QSimpleResource22handleDomCustomWidgetsEPK28QDesignerFormEditorInterfacePK16DomCustomWidgets@Qt_5 5.6.0~beta
 _ZN18qdesigner_internal15QSimpleResource25applyExtensionDataFromDOMEP20QAbstractFormBuilderP28QDesignerFormEditorInterfaceP9DomWidgetP7QWidget@Qt_5 5.6.0~beta
 _ZN18qdesigner_internal15QSimpleResource30addFakeMethodsToWidgetDataBaseEPK15DomCustomWidgetPNS_18WidgetDataBaseItemE@Qt_5 5.6.0~beta
 _ZN18qdesigner_internal15QSimpleResource32addCustomWidgetsToWidgetDatabaseEPK28QDesignerFormEditorInterfaceR5QListIP15DomCustomWidgetE@Qt_5 5.6.0~beta
 _ZN18qdesigner_internal15QSimpleResource9addScriptERK7QStringNS0_12ScriptSourceER5QListIP9DomScriptE@Qt_5 5.6.0~beta
 _ZN18qdesigner_internal15QSimpleResource9saveBrushERK6QBrush@Qt_5 5.6.0~beta
 _ZN18qdesigner_internal15QSimpleResourceC1EP28QDesignerFormEditorInterface@Qt_5 5.6.0~beta
 _ZN18qdesigner_internal15QSimpleResourceC2EP28QDesignerFormEditorInterface@Qt_5 5.6.0~beta
 _ZN18qdesigner_internal15QSimpleResourceD0Ev@Qt_5 5.6.0~beta
 _ZN18qdesigner_internal15QSimpleResourceD1Ev@Qt_5 5.6.0~beta
 _ZN18qdesigner_internal15QSimpleResourceD2Ev@Qt_5 5.6.0~beta
 _ZN18qdesigner_internal15TabOrderCommand4initERK5QListIP7QWidgetE@Qt_5 5.6.0~beta
 _ZN18qdesigner_internal15TabOrderCommand4redoEv@Qt_5 5.6.0~beta
 _ZN18qdesigner_internal15TabOrderCommand4undoEv@Qt_5 5.6.0~beta
 _ZN18qdesigner_internal15TabOrderCommandC1EP28QDesignerFormWindowInterface@Qt_5 5.6.0~beta
 _ZN18qdesigner_internal15TabOrderCommandC2EP28QDesignerFormWindowInterface@Qt_5 5.6.0~beta
 _ZN18qdesigner_internal15ZoomProxyWidget10itemChangeEN13QGraphicsItem18GraphicsItemChangeERK8QVariant@Qt_5 5.6.0~beta
 _ZN18qdesigner_internal15ZoomProxyWidgetC1EP13QGraphicsItem6QFlagsIN2Qt10WindowTypeEE@Qt_5 5.6.0~beta
 _ZN18qdesigner_internal15ZoomProxyWidgetC2EP13QGraphicsItem6QFlagsIN2Qt10WindowTypeEE@Qt_5 5.6.0~beta
 _ZN18qdesigner_internal15designerWarningERK7QString@Qt_5 5.6.0~beta
 _ZN18qdesigner_internal15promotedExtendsEP28QDesignerFormEditorInterfaceP7QWidget@Qt_5 5.6.0~beta
 _ZN18qdesigner_internal16AddActionCommand4initEP7QAction@Qt_5 5.6.0~beta
 _ZN18qdesigner_internal16AddActionCommand4redoEv@Qt_5 5.6.0~beta
 _ZN18qdesigner_internal16AddActionCommand4undoEv@Qt_5 5.6.0~beta
 _ZN18qdesigner_internal16AddActionCommandC1EP28QDesignerFormWindowInterface@Qt_5 5.6.0~beta
 _ZN18qdesigner_internal16AddActionCommandC2EP28QDesignerFormWindowInterface@Qt_5 5.6.0~beta
 _ZN18qdesigner_internal16DesignerMetaEnumC1ERK7QStringS3_S3_@Qt_5 5.6.0~beta
 _ZN18qdesigner_internal16DesignerMetaEnumC2ERK7QStringS3_S3_@Qt_5 5.6.0~beta
 _ZN18qdesigner_internal16LayoutProperties17fromPropertySheetEPK28QDesignerFormEditorInterfaceP7QLayouti@Qt_5 5.6.0~beta
 _ZN18qdesigner_internal16LayoutProperties17visiblePropertiesEPK7QLayout@Qt_5 5.6.0~beta
 _ZN18qdesigner_internal16LayoutProperties5clearEv@Qt_5 5.6.0~beta
 _ZN18qdesigner_internal16LayoutPropertiesC1Ev@Qt_5 5.6.0~beta
 _ZN18qdesigner_internal16LayoutPropertiesC2Ev@Qt_5 5.6.0~beta
 _ZN18qdesigner_internal16MetaDataBaseItem10setEnabledEb@Qt_5 5.6.0~beta
 _ZN18qdesigner_internal16MetaDataBaseItem11setTabOrderERK5QListIP7QWidgetE@Qt_5 5.6.0~beta
 _ZN18qdesigner_internal16MetaDataBaseItem12setFakeSlotsERK11QStringList@Qt_5 5.6.0~beta
 _ZN18qdesigner_internal16MetaDataBaseItem14setFakeSignalsERK11QStringList@Qt_5 5.6.0~beta
 _ZN18qdesigner_internal16MetaDataBaseItem18setCustomClassNameERK7QString@Qt_5 5.6.0~beta
 _ZN18qdesigner_internal16MetaDataBaseItem7setNameERK7QString@Qt_5 5.6.0~beta
 _ZN18qdesigner_internal16MetaDataBaseItemC1EP7QObject@Qt_5 5.6.0~beta
 _ZN18qdesigner_internal16MetaDataBaseItemC2EP7QObject@Qt_5 5.6.0~beta
 _ZN18qdesigner_internal16MetaDataBaseItemD0Ev@Qt_5 5.6.0~beta
 _ZN18qdesigner_internal16MetaDataBaseItemD1Ev@Qt_5 5.6.0~beta
 _ZN18qdesigner_internal16MetaDataBaseItemD2Ev@Qt_5 5.6.0~beta
 _ZN18qdesigner_internal16QDesignerDnDItem4initEP5DomUIP7QWidgetS4_RK6QPoint@Qt_5 5.6.0~beta
 _ZN18qdesigner_internal16QDesignerDnDItem8setDomUiEP5DomUI@Qt_5 5.6.0~beta
 _ZN18qdesigner_internal16QDesignerDnDItemC1EN25QDesignerDnDItemInterface8DropTypeEP7QWidget@Qt_5 5.6.0~beta
 _ZN18qdesigner_internal16QDesignerDnDItemC2EN25QDesignerDnDItemInterface8DropTypeEP7QWidget@Qt_5 5.6.0~beta
 _ZN18qdesigner_internal16QDesignerDnDItemD0Ev@Qt_5 5.6.0~beta
 _ZN18qdesigner_internal16QDesignerDnDItemD1Ev@Qt_5 5.6.0~beta
 _ZN18qdesigner_internal16QDesignerDnDItemD2Ev@Qt_5 5.6.0~beta
 _ZN18qdesigner_internal16SignalSlotDialog10showDialogERNS_20SignalSlotDialogDataES2_@Qt_5 5.6.0~beta
 _ZN18qdesigner_internal16SignalSlotDialog11qt_metacallEN11QMetaObject4CallEiPPv@Qt_5 5.6.0~beta
 _ZN18qdesigner_internal16SignalSlotDialog11qt_metacastEPKc@Qt_5 5.6.0~beta
 _ZN18qdesigner_internal16SignalSlotDialog16editMetaDataBaseEP28QDesignerFormWindowInterfaceP7QObjectP7QWidgetNS0_9FocusModeE@Qt_5 5.6.0~beta
 _ZN18qdesigner_internal16SignalSlotDialog16staticMetaObjectE@Qt_5 5.6.0~beta
 _ZN18qdesigner_internal16SignalSlotDialog17editPromotedClassEP28QDesignerFormEditorInterfaceP7QObjectP7QWidgetNS0_9FocusModeE@Qt_5 5.6.0~beta
 _ZN18qdesigner_internal16SignalSlotDialog17editPromotedClassEP28QDesignerFormEditorInterfaceRK7QStringP7QObjectP7QWidgetNS0_9FocusModeE@Qt_5 5.6.0~beta
 _ZN18qdesigner_internal16SignalSlotDialog17editPromotedClassEP28QDesignerFormEditorInterfaceRK7QStringP7QWidgetNS0_9FocusModeE@Qt_5 5.6.0~beta
 _ZN18qdesigner_internal16SignalSlotDialog18slotCheckSignatureERK7QStringPb@Qt_5 5.6.0~beta
 _ZN18qdesigner_internal16SignalSlotDialogC1EP27QDesignerDialogGuiInterfaceP7QWidgetNS0_9FocusModeE@Qt_5 5.6.0~beta
 _ZN18qdesigner_internal16SignalSlotDialogC2EP27QDesignerDialogGuiInterfaceP7QWidgetNS0_9FocusModeE@Qt_5 5.6.0~beta
 _ZN18qdesigner_internal16SignalSlotDialogD0Ev@Qt_5 5.6.0~beta
 _ZN18qdesigner_internal16SignalSlotDialogD1Ev@Qt_5 5.6.0~beta
 _ZN18qdesigner_internal16SignalSlotDialogD2Ev@Qt_5 5.6.0~beta
 _ZN18qdesigner_internal16StyleSheetEditor11qt_metacallEN11QMetaObject4CallEiPPv@Qt_5 5.6.0~beta
 _ZN18qdesigner_internal16StyleSheetEditor11qt_metacastEPKc@Qt_5 5.6.0~beta
 _ZN18qdesigner_internal16StyleSheetEditor16staticMetaObjectE@Qt_5 5.6.0~beta
 _ZN18qdesigner_internal16StyleSheetEditorC1EP7QWidget@Qt_5 5.6.0~beta
 _ZN18qdesigner_internal16StyleSheetEditorC2EP7QWidget@Qt_5 5.6.0~beta
 _ZN18qdesigner_internal16TabWidgetCommand10removePageEv@Qt_5 5.6.0~beta
 _ZN18qdesigner_internal16TabWidgetCommand4initEP10QTabWidget@Qt_5 5.6.0~beta
 _ZN18qdesigner_internal16TabWidgetCommand7addPageEv@Qt_5 5.6.0~beta
 _ZN18qdesigner_internal16TabWidgetCommandC1EP28QDesignerFormWindowInterface@Qt_5 5.6.0~beta
 _ZN18qdesigner_internal16TabWidgetCommandC2EP28QDesignerFormWindowInterface@Qt_5 5.6.0~beta
 _ZN18qdesigner_internal16TabWidgetCommandD0Ev@Qt_5 5.6.0~beta
 _ZN18qdesigner_internal16TabWidgetCommandD1Ev@Qt_5 5.6.0~beta
 _ZN18qdesigner_internal16TabWidgetCommandD2Ev@Qt_5 5.6.0~beta
 _ZN18qdesigner_internal16buildIncludeFileE7QStringNS_11IncludeTypeE@Qt_5 5.6.0~beta
 _ZN18qdesigner_internal17AddTabPageCommand4initEP10QTabWidget@Qt_5 5.6.0~beta
 _ZN18qdesigner_internal17AddTabPageCommand4initEP10QTabWidgetNS0_13InsertionModeE@Qt_5 5.6.0~beta
 _ZN18qdesigner_internal17AddTabPageCommand4redoEv@Qt_5 5.6.0~beta
 _ZN18qdesigner_internal17AddTabPageCommand4undoEv@Qt_5 5.6.0~beta
 _ZN18qdesigner_internal17AddTabPageCommandC1EP28QDesignerFormWindowInterface@Qt_5 5.6.0~beta
 _ZN18qdesigner_internal17AddTabPageCommandC2EP28QDesignerFormWindowInterface@Qt_5 5.6.0~beta
 _ZN18qdesigner_internal17AddTabPageCommandD0Ev@Qt_5 5.6.0~beta
 _ZN18qdesigner_internal17AddTabPageCommandD1Ev@Qt_5 5.6.0~beta
 _ZN18qdesigner_internal17AddTabPageCommandD2Ev@Qt_5 5.6.0~beta
 _ZN18qdesigner_internal17AddToolBarCommand4initEP11QMainWindow@Qt_5 5.6.0~beta
 _ZN18qdesigner_internal17AddToolBarCommand4redoEv@Qt_5 5.6.0~beta
 _ZN18qdesigner_internal17AddToolBarCommand4undoEv@Qt_5 5.6.0~beta
 _ZN18qdesigner_internal17AddToolBarCommandC1EP28QDesignerFormWindowInterface@Qt_5 5.6.0~beta
 _ZN18qdesigner_internal17AddToolBarCommandC2EP28QDesignerFormWindowInterface@Qt_5 5.6.0~beta
 _ZN18qdesigner_internal17DesignerIconCache11qt_metacallEN11QMetaObject4CallEiPPv@Qt_5 5.6.0~beta
 _ZN18qdesigner_internal17DesignerIconCache11qt_metacastEPKc@Qt_5 5.6.0~beta
 _ZN18qdesigner_internal17DesignerIconCache16staticMetaObjectE@Qt_5 5.6.0~beta
 _ZN18qdesigner_internal17DesignerIconCache5clearEv@Qt_5 5.6.0~beta
 _ZN18qdesigner_internal17DesignerIconCache8reloadedEv@Qt_5 5.6.0~beta
 _ZN18qdesigner_internal17DesignerIconCacheC1EPNS_19DesignerPixmapCacheEP7QObject@Qt_5 5.6.0~beta
 _ZN18qdesigner_internal17DesignerIconCacheC2EPNS_19DesignerPixmapCacheEP7QObject@Qt_5 5.6.0~beta
 _ZN18qdesigner_internal17DesignerMetaFlagsC1ERK7QStringS3_S3_@Qt_5 5.6.0~beta
 _ZN18qdesigner_internal17DesignerMetaFlagsC2ERK7QStringS3_S3_@Qt_5 5.6.0~beta
 _ZN18qdesigner_internal17DockWidgetCommand4initEP11QDockWidget@Qt_5 5.6.0~beta
 _ZN18qdesigner_internal17DockWidgetCommandC1ERK7QStringP28QDesignerFormWindowInterface@Qt_5 5.6.0~beta
 _ZN18qdesigner_internal17DockWidgetCommandC2ERK7QStringP28QDesignerFormWindowInterface@Qt_5 5.6.0~beta
 _ZN18qdesigner_internal17DockWidgetCommandD0Ev@Qt_5 5.6.0~beta
 _ZN18qdesigner_internal17DockWidgetCommandD1Ev@Qt_5 5.6.0~beta
 _ZN18qdesigner_internal17DockWidgetCommandD2Ev@Qt_5 5.6.0~beta
 _ZN18qdesigner_internal17MenuActionCommand10insertMenuEv@Qt_5 5.6.0~beta
 _ZN18qdesigner_internal17MenuActionCommand10removeMenuEv@Qt_5 5.6.0~beta
 _ZN18qdesigner_internal17MenuActionCommand4initEP7QActionS2_P7QWidgetS4_@Qt_5 5.6.0~beta
 _ZN18qdesigner_internal17MenuActionCommandC1ERK7QStringP28QDesignerFormWindowInterface@Qt_5 5.6.0~beta
 _ZN18qdesigner_internal17MenuActionCommandC2ERK7QStringP28QDesignerFormWindowInterface@Qt_5 5.6.0~beta
 _ZN18qdesigner_internal17PromotionTaskMenu10addActionsEP28QDesignerFormWindowInterfacejP5QMenu@Qt_5 5.6.0~beta
 _ZN18qdesigner_internal17PromotionTaskMenu10addActionsEP28QDesignerFormWindowInterfacejR5QListIP7QActionE@Qt_5 5.6.0~beta
 _ZN18qdesigner_internal17PromotionTaskMenu10addActionsEjP5QMenu@Qt_5 5.6.0~beta
 _ZN18qdesigner_internal17PromotionTaskMenu10addActionsEjR5QListIP7QActionE@Qt_5 5.6.0~beta
 _ZN18qdesigner_internal17PromotionTaskMenu11qt_metacallEN11QMetaObject4CallEiPPv@Qt_5 5.6.0~beta
 _ZN18qdesigner_internal17PromotionTaskMenu11qt_metacastEPKc@Qt_5 5.6.0~beta
 _ZN18qdesigner_internal17PromotionTaskMenu14setDemoteLabelERK7QString@Qt_5 5.6.0~beta
 _ZN18qdesigner_internal17PromotionTaskMenu15setPromoteLabelERK7QString@Qt_5 5.6.0~beta
 _ZN18qdesigner_internal17PromotionTaskMenu16staticMetaObjectE@Qt_5 5.6.0~beta
 _ZN18qdesigner_internal17PromotionTaskMenu17slotEditPromoteToEv@Qt_5 5.6.0~beta
 _ZN18qdesigner_internal17PromotionTaskMenu19editPromotedWidgetsEP28QDesignerFormEditorInterfaceP7QWidget@Qt_5 5.6.0~beta
 _ZN18qdesigner_internal17PromotionTaskMenu20slotEditSignalsSlotsEv@Qt_5 5.6.0~beta
 _ZN18qdesigner_internal17PromotionTaskMenu21setEditPromoteToLabelERK7QString@Qt_5 5.6.0~beta
 _ZN18qdesigner_internal17PromotionTaskMenu22createPromotionActionsEP28QDesignerFormWindowInterface@Qt_5 5.6.0~beta
 _ZN18qdesigner_internal17PromotionTaskMenu23slotEditPromotedWidgetsEv@Qt_5 5.6.0~beta
 _ZN18qdesigner_internal17PromotionTaskMenu25slotPromoteToCustomWidgetERK7QString@Qt_5 5.6.0~beta
 _ZN18qdesigner_internal17PromotionTaskMenu26slotDemoteFromCustomWidgetEv@Qt_5 5.6.0~beta
 _ZN18qdesigner_internal17PromotionTaskMenu7setModeENS0_4ModeE@Qt_5 5.6.0~beta
 _ZN18qdesigner_internal17PromotionTaskMenu9promoteToEP28QDesignerFormWindowInterfaceRK7QString@Qt_5 5.6.0~beta
 _ZN18qdesigner_internal17PromotionTaskMenu9setWidgetEP7QWidget@Qt_5 5.6.0~beta
 _ZN18qdesigner_internal17PromotionTaskMenuC1EP7QWidgetNS0_4ModeEP7QObject@Qt_5 5.6.0~beta
 _ZN18qdesigner_internal17PromotionTaskMenuC2EP7QWidgetNS0_4ModeEP7QObject@Qt_5 5.6.0~beta
 _ZN18qdesigner_internal17QDesignerMimeData11qt_metacallEN11QMetaObject4CallEiPPv@Qt_5 5.6.0~beta
 _ZN18qdesigner_internal17QDesignerMimeData11qt_metacastEPKc@Qt_5 5.6.0~beta
 _ZN18qdesigner_internal17QDesignerMimeData16staticMetaObjectE@Qt_5 5.6.0~beta
 _ZN18qdesigner_internal17QDesignerMimeData20setImageTransparencyER6QImagei@Qt_5 5.6.0~beta
 _ZN18qdesigner_internal17QDesignerMimeData21acceptEventWithActionEN2Qt10DropActionEP10QDropEvent@Qt_5 5.6.0~beta
 _ZN18qdesigner_internal17QDesignerMimeData32removeMovedWidgetsFromSourceFormERK5QListIP25QDesignerDnDItemInterfaceE@Qt_5 5.6.0~beta
 _ZN18qdesigner_internal17QDesignerMimeData8execDragERK5QListIP25QDesignerDnDItemInterfaceEP7QWidget@Qt_5 5.6.0~beta
 _ZN18qdesigner_internal17QDesignerMimeDataC1ERK5QListIP25QDesignerDnDItemInterfaceEP5QDrag@Qt_5 5.6.0~beta
 _ZN18qdesigner_internal17QDesignerMimeDataC2ERK5QListIP25QDesignerDnDItemInterfaceEP5QDrag@Qt_5 5.6.0~beta
 _ZN18qdesigner_internal17QDesignerMimeDataD0Ev@Qt_5 5.6.0~beta
 _ZN18qdesigner_internal17QDesignerMimeDataD1Ev@Qt_5 5.6.0~beta
 _ZN18qdesigner_internal17QDesignerMimeDataD2Ev@Qt_5 5.6.0~beta
 _ZN18qdesigner_internal17QDesignerTaskMenu10addToolBarEv@Qt_5 5.6.0~beta
 _ZN18qdesigner_internal17QDesignerTaskMenu11qt_metacallEN11QMetaObject4CallEiPPv@Qt_5 5.6.0~beta
 _ZN18qdesigner_internal17QDesignerTaskMenu11qt_metacastEPKc@Qt_5 5.6.0~beta
 _ZN18qdesigner_internal17QDesignerTaskMenu11setPropertyEP28QDesignerFormWindowInterfaceNS0_12PropertyModeERK7QStringRK8QVariant@Qt_5 5.6.0~beta
 _ZN18qdesigner_internal17QDesignerTaskMenu13changeToolTipEv@Qt_5 5.6.0~beta
 _ZN18qdesigner_internal17QDesignerTaskMenu13createMenuBarEv@Qt_5 5.6.0~beta
 _ZN18qdesigner_internal17QDesignerTaskMenu14navigateToSlotEP28QDesignerFormEditorInterfaceP7QObjectRK7QString@Qt_5 5.6.0~beta
 _ZN18qdesigner_internal17QDesignerTaskMenu15changeWhatsThisEv@Qt_5 5.6.0~beta
 _ZN18qdesigner_internal17QDesignerTaskMenu15createSeparatorEv@Qt_5 5.6.0~beta
 _ZN18qdesigner_internal17QDesignerTaskMenu15createStatusBarEv@Qt_5 5.6.0~beta
 _ZN18qdesigner_internal17QDesignerTaskMenu15removeStatusBarEv@Qt_5 5.6.0~beta
 _ZN18qdesigner_internal17QDesignerTaskMenu16changeObjectNameEv@Qt_5 5.6.0~beta
 _ZN18qdesigner_internal17QDesignerTaskMenu16changeStyleSheetEv@Qt_5 5.6.0~beta
 _ZN18qdesigner_internal17QDesignerTaskMenu16staticMetaObjectE@Qt_5 5.6.0~beta
 _ZN18qdesigner_internal17QDesignerTaskMenu18changeTextPropertyERK7QStringS3_NS0_12PropertyModeEN2Qt10TextFormatE@Qt_5 5.6.0~beta
 _ZN18qdesigner_internal17QDesignerTaskMenu18slotNavigateToSlotEv@Qt_5 5.6.0~beta
 _ZN18qdesigner_internal17QDesignerTaskMenu19slotLayoutAlignmentEv@Qt_5 5.6.0~beta
 _ZN18qdesigner_internal17QDesignerTaskMenu20containerFakeMethodsEv@Qt_5 5.6.0~beta
 _ZN18qdesigner_internal17QDesignerTaskMenu23isSlotNavigationEnabledEPK28QDesignerFormEditorInterface@Qt_5 5.6.0~beta
 _ZN18qdesigner_internal17QDesignerTaskMenu9applySizeEP7QAction@Qt_5 5.6.0~beta
 _ZN18qdesigner_internal17QDesignerTaskMenuC1EP7QWidgetP7QObject@Qt_5 5.6.0~beta
 _ZN18qdesigner_internal17QDesignerTaskMenuC2EP7QWidgetP7QObject@Qt_5 5.6.0~beta
 _ZN18qdesigner_internal17QDesignerTaskMenuD0Ev@Qt_5 5.6.0~beta
 _ZN18qdesigner_internal17QDesignerTaskMenuD1Ev@Qt_5 5.6.0~beta
 _ZN18qdesigner_internal17QDesignerTaskMenuD2Ev@Qt_5 5.6.0~beta
 _ZN18qdesigner_internal18BreakLayoutCommand4initERK5QListIP7QWidgetES3_b@Qt_5 5.6.0~beta
 _ZN18qdesigner_internal18BreakLayoutCommand4redoEv@Qt_5 5.6.0~beta
 _ZN18qdesigner_internal18BreakLayoutCommand4undoEv@Qt_5 5.6.0~beta
 _ZN18qdesigner_internal18BreakLayoutCommandC1EP28QDesignerFormWindowInterface@Qt_5 5.6.0~beta
 _ZN18qdesigner_internal18BreakLayoutCommandC2EP28QDesignerFormWindowInterface@Qt_5 5.6.0~beta
 _ZN18qdesigner_internal18BreakLayoutCommandD0Ev@Qt_5 5.6.0~beta
 _ZN18qdesigner_internal18BreakLayoutCommandD1Ev@Qt_5 5.6.0~beta
 _ZN18qdesigner_internal18BreakLayoutCommandD2Ev@Qt_5 5.6.0~beta
 _ZN18qdesigner_internal18LowerWidgetCommand4initEP7QWidget@Qt_5 5.6.0~beta
 _ZN18qdesigner_internal18LowerWidgetCommandC1EP28QDesignerFormWindowInterface@Qt_5 5.6.0~beta
 _ZN18qdesigner_internal18LowerWidgetCommandC2EP28QDesignerFormWindowInterface@Qt_5 5.6.0~beta
 _ZN18qdesigner_internal18MorphLayoutCommand17formatDescriptionEP28QDesignerFormEditorInterfacePK7QWidgetii@Qt_5 5.6.0~beta
 _ZN18qdesigner_internal18MorphLayoutCommand4initEP7QWidgeti@Qt_5 5.6.0~beta
 _ZN18qdesigner_internal18MorphLayoutCommand4redoEv@Qt_5 5.6.0~beta
 _ZN18qdesigner_internal18MorphLayoutCommand4undoEv@Qt_5 5.6.0~beta
 _ZN18qdesigner_internal18MorphLayoutCommand8canMorphEPK28QDesignerFormWindowInterfaceP7QWidgetPi@Qt_5 5.6.0~beta
 _ZN18qdesigner_internal18MorphLayoutCommandC1EP28QDesignerFormWindowInterface@Qt_5 5.6.0~beta
 _ZN18qdesigner_internal18MorphLayoutCommandC2EP28QDesignerFormWindowInterface@Qt_5 5.6.0~beta
 _ZN18qdesigner_internal18MorphLayoutCommandD0Ev@Qt_5 5.6.0~beta
 _ZN18qdesigner_internal18MorphLayoutCommandD1Ev@Qt_5 5.6.0~beta
 _ZN18qdesigner_internal18MorphLayoutCommandD2Ev@Qt_5 5.6.0~beta
 _ZN18qdesigner_internal18MoveTabPageCommand4initEP10QTabWidgetP7QWidgetRK5QIconRK7QStringii@Qt_5 5.6.0~beta
 _ZN18qdesigner_internal18MoveTabPageCommand4redoEv@Qt_5 5.6.0~beta
 _ZN18qdesigner_internal18MoveTabPageCommand4undoEv@Qt_5 5.6.0~beta
 _ZN18qdesigner_internal18MoveTabPageCommandC1EP28QDesignerFormWindowInterface@Qt_5 5.6.0~beta
 _ZN18qdesigner_internal18MoveTabPageCommandC2EP28QDesignerFormWindowInterface@Qt_5 5.6.0~beta
 _ZN18qdesigner_internal18MoveTabPageCommandD0Ev@Qt_5 5.6.0~beta
 _ZN18qdesigner_internal18MoveTabPageCommandD1Ev@Qt_5 5.6.0~beta
 _ZN18qdesigner_internal18MoveTabPageCommandD2Ev@Qt_5 5.6.0~beta
 _ZN18qdesigner_internal18QDesignerPromotion16addPromotedClassERK7QStringS3_S3_PS1_@Qt_5 5.6.0~beta
 _ZN18qdesigner_internal18QDesignerPromotion19removePromotedClassERK7QStringPS1_@Qt_5 5.6.0~beta
 _ZN18qdesigner_internal18QDesignerPromotion22refreshObjectInspectorEv@Qt_5 5.6.0~beta
 _ZN18qdesigner_internal18QDesignerPromotion23changePromotedClassNameERK7QStringS3_PS1_@Qt_5 5.6.0~beta
 _ZN18qdesigner_internal18QDesignerPromotion27setPromotedClassIncludeFileERK7QStringS3_PS1_@Qt_5 5.6.0~beta
 _ZN18qdesigner_internal18QDesignerPromotionC1EP28QDesignerFormEditorInterface@Qt_5 5.6.0~beta
 _ZN18qdesigner_internal18QDesignerPromotionC2EP28QDesignerFormEditorInterface@Qt_5 5.6.0~beta
 _ZN18qdesigner_internal18QDesignerWidgetBox10findWidgetEPK27QDesignerWidgetBoxInterfaceRK7QStringS6_PNS1_6WidgetE@Qt_5 5.6.0~beta
 _ZN18qdesigner_internal18QDesignerWidgetBox11qt_metacallEN11QMetaObject4CallEiPPv@Qt_5 5.6.0~beta
 _ZN18qdesigner_internal18QDesignerWidgetBox11qt_metacastEPKc@Qt_5 5.6.0~beta
 _ZN18qdesigner_internal18QDesignerWidgetBox11setLoadModeENS0_8LoadModeE@Qt_5 5.6.0~beta
 _ZN18qdesigner_internal18QDesignerWidgetBox16staticMetaObjectE@Qt_5 5.6.0~beta
 _ZN18qdesigner_internal18QDesignerWidgetBox7xmlToUiERK7QStringS3_b@Qt_5 5.6.0~beta
 _ZN18qdesigner_internal18QDesignerWidgetBox7xmlToUiERK7QStringS3_bPS1_@Qt_5 5.6.0~beta
 _ZN18qdesigner_internal18QDesignerWidgetBoxC1EP7QWidget6QFlagsIN2Qt10WindowTypeEE@Qt_5 5.6.0~beta
 _ZN18qdesigner_internal18QDesignerWidgetBoxC2EP7QWidget6QFlagsIN2Qt10WindowTypeEE@Qt_5 5.6.0~beta
 _ZN18qdesigner_internal18RaiseWidgetCommand4initEP7QWidget@Qt_5 5.6.0~beta
 _ZN18qdesigner_internal18RaiseWidgetCommandC1EP28QDesignerFormWindowInterface@Qt_5 5.6.0~beta
 _ZN18qdesigner_internal18RaiseWidgetCommandC2EP28QDesignerFormWindowInterface@Qt_5 5.6.0~beta
 _ZN18qdesigner_internal18SetPropertyCommand10mergeValueERK8QVariant@Qt_5 5.6.0~beta
 _ZN18qdesigner_internal18SetPropertyCommand14setDescriptionEv@Qt_5 5.6.0~beta
 _ZN18qdesigner_internal18SetPropertyCommand15subPropertyMaskERK8QVariantP7QObject@Qt_5 5.6.0~beta
 _ZN18qdesigner_internal18SetPropertyCommand4initEP7QObjectRK7QStringRK8QVariant@Qt_5 5.6.0~beta
 _ZN18qdesigner_internal18SetPropertyCommand4initERK5QListIP7QObjectERK7QStringRK8QVariantS3_b@Qt_5 5.6.0~beta
 _ZN18qdesigner_internal18SetPropertyCommand4redoEv@Qt_5 5.6.0~beta
 _ZN18qdesigner_internal18SetPropertyCommand9mergeWithEPK12QUndoCommand@Qt_5 5.6.0~beta
 _ZN18qdesigner_internal18SetPropertyCommandC1EP28QDesignerFormWindowInterfaceP12QUndoCommand@Qt_5 5.6.0~beta
 _ZN18qdesigner_internal18SetPropertyCommandC2EP28QDesignerFormWindowInterfaceP12QUndoCommand@Qt_5 5.6.0~beta
 _ZN18qdesigner_internal18TextPropertyEditor11qt_metacallEN11QMetaObject4CallEiPPv@Qt_5 5.6.0~beta
 _ZN18qdesigner_internal18TextPropertyEditor11qt_metacastEPKc@Qt_5 5.6.0~beta
 _ZN18qdesigner_internal18TextPropertyEditor11resizeEventEP12QResizeEvent@Qt_5 5.6.0~beta
 _ZN18qdesigner_internal18TextPropertyEditor11textChangedERK7QString@Qt_5 5.6.0~beta
 _ZN18qdesigner_internal18TextPropertyEditor12setAlignmentE6QFlagsIN2Qt13AlignmentFlagEE@Qt_5 5.6.0~beta
 _ZN18qdesigner_internal18TextPropertyEditor14slotTextEditedEv@Qt_5 5.6.0~beta
 _ZN18qdesigner_internal18TextPropertyEditor15editingFinishedEv@Qt_5 5.6.0~beta
 _ZN18qdesigner_internal18TextPropertyEditor15slotTextChangedERK7QString@Qt_5 5.6.0~beta
 _ZN18qdesigner_internal18TextPropertyEditor16staticMetaObjectE@Qt_5 5.6.0~beta
 _ZN18qdesigner_internal18TextPropertyEditor18installEventFilterEP7QObject@Qt_5 5.6.0~beta
 _ZN18qdesigner_internal18TextPropertyEditor18setRegExpValidatorERK7QString@Qt_5 5.6.0~beta
 _ZN18qdesigner_internal18TextPropertyEditor19slotEditingFinishedEv@Qt_5 5.6.0~beta
 _ZN18qdesigner_internal18TextPropertyEditor20editorStringToStringERK7QStringNS_26TextPropertyValidationModeE@Qt_5 5.6.0~beta
 _ZN18qdesigner_internal18TextPropertyEditor20stringToEditorStringERK7QStringNS_26TextPropertyValidationModeE@Qt_5 5.6.0~beta
 _ZN18qdesigner_internal18TextPropertyEditor21markIntermediateStateEv@Qt_5 5.6.0~beta
 _ZN18qdesigner_internal18TextPropertyEditor29setTextPropertyValidationModeENS_26TextPropertyValidationModeE@Qt_5 5.6.0~beta
 _ZN18qdesigner_internal18TextPropertyEditor5clearEv@Qt_5 5.6.0~beta
 _ZN18qdesigner_internal18TextPropertyEditor7setTextERK7QString@Qt_5 5.6.0~beta
 _ZN18qdesigner_internal18TextPropertyEditor9multiLineENS_26TextPropertyValidationModeE@Qt_5 5.6.0~beta
 _ZN18qdesigner_internal18TextPropertyEditor9selectAllEv@Qt_5 5.6.0~beta
 _ZN18qdesigner_internal18TextPropertyEditorC1EP7QWidgetNS0_13EmbeddingModeENS_26TextPropertyValidationModeE@Qt_5 5.6.0~beta
 _ZN18qdesigner_internal18TextPropertyEditorC2EP7QWidgetNS0_13EmbeddingModeENS_26TextPropertyValidationModeE@Qt_5 5.6.0~beta
 _ZN18qdesigner_internal18ToolBarEventFilter10handleAreaEPK8QToolBar@Qt_5 5.6.0~beta
 _ZN18qdesigner_internal18ToolBarEventFilter11eventFilterEP7QObjectP6QEvent@Qt_5 5.6.0~beta
 _ZN18qdesigner_internal18ToolBarEventFilter11qt_metacallEN11QMetaObject4CallEiPPv@Qt_5 5.6.0~beta
 _ZN18qdesigner_internal18ToolBarEventFilter11qt_metacastEPKc@Qt_5 5.6.0~beta
 _ZN18qdesigner_internal18ToolBarEventFilter12createActionEP28QDesignerFormWindowInterfaceRK7QStringb@Qt_5 5.6.0~beta
 _ZN18qdesigner_internal18ToolBarEventFilter13eventFilterOfEPK8QToolBar@Qt_5 5.6.0~beta
 _ZN18qdesigner_internal18ToolBarEventFilter15handleDropEventEP10QDropEvent@Qt_5 5.6.0~beta
 _ZN18qdesigner_internal18ToolBarEventFilter16staticMetaObjectE@Qt_5 5.6.0~beta
 _ZN18qdesigner_internal18ToolBarEventFilter16withinHandleAreaEPK8QToolBarRK6QPoint@Qt_5 5.6.0~beta
 _ZN18qdesigner_internal18ToolBarEventFilter17hideDragIndicatorEv@Qt_5 5.6.0~beta
 _ZN18qdesigner_internal18ToolBarEventFilter17slotRemoveToolBarEv@Qt_5 5.6.0~beta
 _ZN18qdesigner_internal18ToolBarEventFilter18contextMenuActionsERK6QPoint@Qt_5 5.6.0~beta
 _ZN18qdesigner_internal18ToolBarEventFilter19adjustDragIndicatorERK6QPoint@Qt_5 5.6.0~beta
 _ZN18qdesigner_internal18ToolBarEventFilter19slotInsertSeparatorEv@Qt_5 5.6.0~beta
 _ZN18qdesigner_internal18ToolBarEventFilter20handleDragLeaveEventEP15QDragLeaveEvent@Qt_5 5.6.0~beta
 _ZN18qdesigner_internal18ToolBarEventFilter20handleMouseMoveEventEP11QMouseEvent@Qt_5 5.6.0~beta
 _ZN18qdesigner_internal18ToolBarEventFilter21handleMousePressEventEP11QMouseEvent@Qt_5 5.6.0~beta
 _ZN18qdesigner_internal18ToolBarEventFilter22handleContextMenuEventEP17QContextMenuEvent@Qt_5 5.6.0~beta
 _ZN18qdesigner_internal18ToolBarEventFilter23handleMouseReleaseEventEP11QMouseEvent@Qt_5 5.6.0~beta
 _ZN18qdesigner_internal18ToolBarEventFilter24handleDragEnterMoveEventEP14QDragMoveEvent@Qt_5 5.6.0~beta
 _ZN18qdesigner_internal18ToolBarEventFilter24slotRemoveSelectedActionEv@Qt_5 5.6.0~beta
 _ZN18qdesigner_internal18ToolBarEventFilter7installEP8QToolBar@Qt_5 5.6.0~beta
 _ZN18qdesigner_internal18ToolBarEventFilter8actionAtEPK8QToolBarRK6QPoint@Qt_5 5.6.0~beta
 _ZN18qdesigner_internal18ToolBarEventFilter8freeAreaEPK8QToolBar@Qt_5 5.6.0~beta
 _ZN18qdesigner_internal18ToolBarEventFilter9startDragERK6QPoint6QFlagsIN2Qt16KeyboardModifierEE@Qt_5 5.6.0~beta
 _ZN18qdesigner_internal18ToolBarEventFilterC1EP8QToolBar@Qt_5 5.6.0~beta
 _ZN18qdesigner_internal18ToolBarEventFilterC2EP8QToolBar@Qt_5 5.6.0~beta
 _ZN18qdesigner_internal18TreeWidgetContents12ItemContentsC1EPK15QTreeWidgetItemb@Qt_5 5.6.0~beta
 _ZN18qdesigner_internal18TreeWidgetContents12ItemContentsC2EPK15QTreeWidgetItemb@Qt_5 5.6.0~beta
 _ZN18qdesigner_internal18TreeWidgetContents14fromTreeWidgetEPK11QTreeWidgetb@Qt_5 5.6.0~beta
 _ZN18qdesigner_internal18TreeWidgetContents5clearEv@Qt_5 5.6.0~beta
 _ZN18qdesigner_internal18WidgetDataBaseItem10setExtendsERK7QString@Qt_5 5.6.0~beta
 _ZN18qdesigner_internal18WidgetDataBaseItem10setToolTipERK7QString@Qt_5 5.6.0~beta
 _ZN18qdesigner_internal18WidgetDataBaseItem11setPromotedEb@Qt_5 5.6.0~beta
 _ZN18qdesigner_internal18WidgetDataBaseItem12setContainerEb@Qt_5 5.6.0~beta
 _ZN18qdesigner_internal18WidgetDataBaseItem12setFakeSlotsERK11QStringList@Qt_5 5.6.0~beta
 _ZN18qdesigner_internal18WidgetDataBaseItem12setWhatsThisERK7QString@Qt_5 5.6.0~beta
 _ZN18qdesigner_internal18WidgetDataBaseItem13setPluginPathERK7QString@Qt_5 5.6.0~beta
 _ZN18qdesigner_internal18WidgetDataBaseItem14setFakeSignalsERK11QStringList@Qt_5 5.6.0~beta
 _ZN18qdesigner_internal18WidgetDataBaseItem14setIncludeFileERK7QString@Qt_5 5.6.0~beta
 _ZN18qdesigner_internal18WidgetDataBaseItem16setAddPageMethodERK7QString@Qt_5 5.6.0~beta
 _ZN18qdesigner_internal18WidgetDataBaseItem24setDefaultPropertyValuesERK5QListI8QVariantE@Qt_5 5.6.0~beta
 _ZN18qdesigner_internal18WidgetDataBaseItem5cloneEPK36QDesignerWidgetDataBaseItemInterface@Qt_5 5.6.0~beta
 _ZN18qdesigner_internal18WidgetDataBaseItem7setIconERK5QIcon@Qt_5 5.6.0~beta
 _ZN18qdesigner_internal18WidgetDataBaseItem7setNameERK7QString@Qt_5 5.6.0~beta
 _ZN18qdesigner_internal18WidgetDataBaseItem8setGroupERK7QString@Qt_5 5.6.0~beta
 _ZN18qdesigner_internal18WidgetDataBaseItem9setCompatEb@Qt_5 5.6.0~beta
 _ZN18qdesigner_internal18WidgetDataBaseItem9setCustomEb@Qt_5 5.6.0~beta
 _ZN18qdesigner_internal18WidgetDataBaseItemC1ERK7QStringS3_@Qt_5 5.6.0~beta
 _ZN18qdesigner_internal18WidgetDataBaseItemC2ERK7QStringS3_@Qt_5 5.6.0~beta
 _ZN18qdesigner_internal19ChangeZOrderCommand4initEP7QWidget@Qt_5 5.6.0~beta
 _ZN18qdesigner_internal19ChangeZOrderCommand4redoEv@Qt_5 5.6.0~beta
 _ZN18qdesigner_internal19ChangeZOrderCommand4undoEv@Qt_5 5.6.0~beta
 _ZN18qdesigner_internal19ChangeZOrderCommandC1EP28QDesignerFormWindowInterface@Qt_5 5.6.0~beta
 _ZN18qdesigner_internal19ChangeZOrderCommandC2EP28QDesignerFormWindowInterface@Qt_5 5.6.0~beta
 _ZN18qdesigner_internal19DeleteWidgetCommand4initEP7QWidgetj@Qt_5 5.6.0~beta
 _ZN18qdesigner_internal19DeleteWidgetCommand4redoEv@Qt_5 5.6.0~beta
 _ZN18qdesigner_internal19DeleteWidgetCommand4undoEv@Qt_5 5.6.0~beta
 _ZN18qdesigner_internal19DeleteWidgetCommandC1EP28QDesignerFormWindowInterface@Qt_5 5.6.0~beta
 _ZN18qdesigner_internal19DeleteWidgetCommandC2EP28QDesignerFormWindowInterface@Qt_5 5.6.0~beta
 _ZN18qdesigner_internal19DeleteWidgetCommandD0Ev@Qt_5 5.6.0~beta
 _ZN18qdesigner_internal19DeleteWidgetCommandD1Ev@Qt_5 5.6.0~beta
 _ZN18qdesigner_internal19DeleteWidgetCommandD2Ev@Qt_5 5.6.0~beta
 _ZN18qdesigner_internal19DesignerPixmapCache11qt_metacallEN11QMetaObject4CallEiPPv@Qt_5 5.6.0~beta
 _ZN18qdesigner_internal19DesignerPixmapCache11qt_metacastEPKc@Qt_5 5.6.0~beta
 _ZN18qdesigner_internal19DesignerPixmapCache16staticMetaObjectE@Qt_5 5.6.0~beta
 _ZN18qdesigner_internal19DesignerPixmapCache5clearEv@Qt_5 5.6.0~beta
 _ZN18qdesigner_internal19DesignerPixmapCache8reloadedEv@Qt_5 5.6.0~beta
 _ZN18qdesigner_internal19DesignerPixmapCacheC1EP7QObject@Qt_5 5.6.0~beta
 _ZN18qdesigner_internal19DesignerPixmapCacheC2EP7QObject@Qt_5 5.6.0~beta
 _ZN18qdesigner_internal19InsertWidgetCommand18refreshBuddyLabelsEv@Qt_5 5.6.0~beta
 _ZN18qdesigner_internal19InsertWidgetCommand4initEP7QWidgetbii@Qt_5 5.6.0~beta
 _ZN18qdesigner_internal19InsertWidgetCommand4redoEv@Qt_5 5.6.0~beta
 _ZN18qdesigner_internal19InsertWidgetCommand4undoEv@Qt_5 5.6.0~beta
 _ZN18qdesigner_internal19InsertWidgetCommandC1EP28QDesignerFormWindowInterface@Qt_5 5.6.0~beta
 _ZN18qdesigner_internal19InsertWidgetCommandC2EP28QDesignerFormWindowInterface@Qt_5 5.6.0~beta
 _ZN18qdesigner_internal19InsertWidgetCommandD0Ev@Qt_5 5.6.0~beta
 _ZN18qdesigner_internal19InsertWidgetCommandD1Ev@Qt_5 5.6.0~beta
 _ZN18qdesigner_internal19InsertWidgetCommandD2Ev@Qt_5 5.6.0~beta
 _ZN18qdesigner_internal19PropertyListCommand11setOldValueERK8QVarianti@Qt_5 5.6.0~beta
 _ZN18qdesigner_internal19PropertyListCommand15restoreOldValueEv@Qt_5 5.6.0~beta
 _ZN18qdesigner_internal19PropertyListCommand19PropertyDescriptionC1ERK7QStringP31QDesignerPropertySheetExtensioni@Qt_5 5.6.0~beta
 _ZN18qdesigner_internal19PropertyListCommand19PropertyDescriptionC1Ev@Qt_5 5.6.0~beta
 _ZN18qdesigner_internal19PropertyListCommand19PropertyDescriptionC2ERK7QStringP31QDesignerPropertySheetExtensioni@Qt_5 5.6.0~beta
 _ZN18qdesigner_internal19PropertyListCommand19PropertyDescriptionC2Ev@Qt_5 5.6.0~beta
 _ZN18qdesigner_internal19PropertyListCommand19restoreDefaultValueEv@Qt_5 5.6.0~beta
 _ZN18qdesigner_internal19PropertyListCommand3addEP7QObjectRK7QString@Qt_5 5.6.0~beta
 _ZN18qdesigner_internal19PropertyListCommand4undoEv@Qt_5 5.6.0~beta
 _ZN18qdesigner_internal19PropertyListCommand6updateEj@Qt_5 5.6.0~beta
 _ZN18qdesigner_internal19PropertyListCommand8initListERK5QListIP7QObjectERK7QStringS3_@Qt_5 5.6.0~beta
 _ZN18qdesigner_internal19PropertyListCommand8setValueE8QVariantbj@Qt_5 5.6.0~beta
 _ZN18qdesigner_internal19PropertyListCommandC1EP28QDesignerFormWindowInterfaceP12QUndoCommand@Qt_5 5.6.0~beta
 _ZN18qdesigner_internal19PropertyListCommandC2EP28QDesignerFormWindowInterfaceP12QUndoCommand@Qt_5 5.6.0~beta
 _ZN18qdesigner_internal19QDesignerWidgetItem11eventFilterEP7QObjectP6QEvent@Qt_5 5.6.0~beta
 _ZN18qdesigner_internal19QDesignerWidgetItem11isContainerEPK28QDesignerFormEditorInterfaceP7QWidget@Qt_5 5.6.0~beta
 _ZN18qdesigner_internal19QDesignerWidgetItem11qt_metacallEN11QMetaObject4CallEiPPv@Qt_5 5.6.0~beta
 _ZN18qdesigner_internal19QDesignerWidgetItem11qt_metacastEPKc@Qt_5 5.6.0~beta
 _ZN18qdesigner_internal19QDesignerWidgetItem13layoutChangedEv@Qt_5 5.6.0~beta
 _ZN18qdesigner_internal19QDesignerWidgetItem16staticMetaObjectE@Qt_5 5.6.0~beta
 _ZN18qdesigner_internal19QDesignerWidgetItem16subjectToStretchEPK7QLayoutP7QWidget@Qt_5 5.6.0~beta
 _ZN18qdesigner_internal19QDesignerWidgetItem20setNonLaidOutMinSizeERK5QSize@Qt_5 5.6.0~beta
 _ZN18qdesigner_internal19QDesignerWidgetItem21setNonLaidOutSizeHintERK5QSize@Qt_5 5.6.0~beta
 _ZN18qdesigner_internal19QDesignerWidgetItem5checkEPK7QLayoutP7QWidgetP6QFlagsIN2Qt11OrientationEE@Qt_5 5.6.0~beta
 _ZN18qdesigner_internal19QDesignerWidgetItem7installEv@Qt_5 5.6.0~beta
 _ZN18qdesigner_internal19QDesignerWidgetItem9deinstallEv@Qt_5 5.6.0~beta
 _ZN18qdesigner_internal19QDesignerWidgetItemC1EPK7QLayoutP7QWidget6QFlagsIN2Qt11OrientationEE@Qt_5 5.6.0~beta
 _ZN18qdesigner_internal19QDesignerWidgetItemC2EPK7QLayoutP7QWidget6QFlagsIN2Qt11OrientationEE@Qt_5 5.6.0~beta
 _ZN18qdesigner_internal19RemoveActionCommand4initEP7QAction@Qt_5 5.6.0~beta
 _ZN18qdesigner_internal19RemoveActionCommand4redoEv@Qt_5 5.6.0~beta
 _ZN18qdesigner_internal19RemoveActionCommand4undoEv@Qt_5 5.6.0~beta
 _ZN18qdesigner_internal19RemoveActionCommandC1EP28QDesignerFormWindowInterface@Qt_5 5.6.0~beta
 _ZN18qdesigner_internal19RemoveActionCommandC2EP28QDesignerFormWindowInterface@Qt_5 5.6.0~beta
 _ZN18qdesigner_internal19TableWidgetContents15fromTableWidgetEPK12QTableWidgetb@Qt_5 5.6.0~beta
 _ZN18qdesigner_internal19TableWidgetContents16insertHeaderItemEPK16QTableWidgetItemiPNS_12ListContentsEb@Qt_5 5.6.0~beta
 _ZN18qdesigner_internal19TableWidgetContents17defaultHeaderTextEi@Qt_5 5.6.0~beta
 _ZN18qdesigner_internal19TableWidgetContents5clearEv@Qt_5 5.6.0~beta
 _ZN18qdesigner_internal19TableWidgetContents8nonEmptyEPK16QTableWidgetItemi@Qt_5 5.6.0~beta
 _ZN18qdesigner_internal19TableWidgetContentsC1Ev@Qt_5 5.6.0~beta
 _ZN18qdesigner_internal19TableWidgetContentsC2Ev@Qt_5 5.6.0~beta
 _ZN18qdesigner_internal19formLayoutAddWidgetEP11QFormLayoutP7QWidgetRK5QRectb@Qt_5 5.6.0~beta
 _ZN18qdesigner_internal19preferredEditActionEP28QDesignerFormEditorInterfaceP7QWidget@Qt_5 5.6.0~beta
 _ZN18qdesigner_internal19promotionCandidatesEPK32QDesignerWidgetDataBaseInterfaceRK7QString@Qt_5 5.6.0~beta
 _ZN18qdesigner_internal19reloadIconResourcesEPNS_17DesignerIconCacheEP7QObject@Qt_5 5.6.0~beta
 _ZN18qdesigner_internal20AddConnectionCommand4redoEv@Qt_5 5.6.0~beta
 _ZN18qdesigner_internal20AddConnectionCommand4undoEv@Qt_5 5.6.0~beta
 _ZN18qdesigner_internal20AddConnectionCommandC1EPNS_14ConnectionEditEPNS_10ConnectionE@Qt_5 5.6.0~beta
 _ZN18qdesigner_internal20AddConnectionCommandC2EPNS_14ConnectionEditEPNS_10ConnectionE@Qt_5 5.6.0~beta
 _ZN18qdesigner_internal20AddDockWidgetCommand4initEP11QMainWindow@Qt_5 5.6.0~beta
 _ZN18qdesigner_internal20AddDockWidgetCommand4initEP11QMainWindowP11QDockWidget@Qt_5 5.6.0~beta
 _ZN18qdesigner_internal20AddDockWidgetCommand4redoEv@Qt_5 5.6.0~beta
 _ZN18qdesigner_internal20AddDockWidgetCommand4undoEv@Qt_5 5.6.0~beta
 _ZN18qdesigner_internal20AddDockWidgetCommandC1EP28QDesignerFormWindowInterface@Qt_5 5.6.0~beta
 _ZN18qdesigner_internal20AddDockWidgetCommandC2EP28QDesignerFormWindowInterface@Qt_5 5.6.0~beta
 _ZN18qdesigner_internal20AddMenuActionCommandC1EP28QDesignerFormWindowInterface@Qt_5 5.6.0~beta
 _ZN18qdesigner_internal20AddMenuActionCommandC2EP28QDesignerFormWindowInterface@Qt_5 5.6.0~beta
 _ZN18qdesigner_internal20CreateMenuBarCommand4initEP11QMainWindow@Qt_5 5.6.0~beta
 _ZN18qdesigner_internal20CreateMenuBarCommand4redoEv@Qt_5 5.6.0~beta
 _ZN18qdesigner_internal20CreateMenuBarCommand4undoEv@Qt_5 5.6.0~beta
 _ZN18qdesigner_internal20CreateMenuBarCommandC1EP28QDesignerFormWindowInterface@Qt_5 5.6.0~beta
 _ZN18qdesigner_internal20CreateMenuBarCommandC2EP28QDesignerFormWindowInterface@Qt_5 5.6.0~beta
 _ZN18qdesigner_internal20CreateSubmenuCommand4initEP13QDesignerMenuP7QActionP7QObject@Qt_5 5.6.0~beta
 _ZN18qdesigner_internal20CreateSubmenuCommand4redoEv@Qt_5 5.6.0~beta
 _ZN18qdesigner_internal20CreateSubmenuCommand4undoEv@Qt_5 5.6.0~beta
 _ZN18qdesigner_internal20CreateSubmenuCommandC1EP28QDesignerFormWindowInterface@Qt_5 5.6.0~beta
 _ZN18qdesigner_internal20CreateSubmenuCommandC2EP28QDesignerFormWindowInterface@Qt_5 5.6.0~beta
 _ZN18qdesigner_internal20CursorSelectionState4saveEPK28QDesignerFormWindowInterface@Qt_5 5.6.0~beta
 _ZN18qdesigner_internal20CursorSelectionStateC1Ev@Qt_5 5.6.0~beta
 _ZN18qdesigner_internal20CursorSelectionStateC2Ev@Qt_5 5.6.0~beta
 _ZN18qdesigner_internal20DeleteMenuBarCommand4initEP8QMenuBar@Qt_5 5.6.0~beta
 _ZN18qdesigner_internal20DeleteMenuBarCommand4redoEv@Qt_5 5.6.0~beta
 _ZN18qdesigner_internal20DeleteMenuBarCommand4undoEv@Qt_5 5.6.0~beta
 _ZN18qdesigner_internal20DeleteMenuBarCommandC1EP28QDesignerFormWindowInterface@Qt_5 5.6.0~beta
 _ZN18qdesigner_internal20DeleteMenuBarCommandC2EP28QDesignerFormWindowInterface@Qt_5 5.6.0~beta
 _ZN18qdesigner_internal20DeleteTabPageCommand4initEP10QTabWidget@Qt_5 5.6.0~beta
 _ZN18qdesigner_internal20DeleteTabPageCommand4redoEv@Qt_5 5.6.0~beta
 _ZN18qdesigner_internal20DeleteTabPageCommand4undoEv@Qt_5 5.6.0~beta
 _ZN18qdesigner_internal20DeleteTabPageCommandC1EP28QDesignerFormWindowInterface@Qt_5 5.6.0~beta
 _ZN18qdesigner_internal20DeleteTabPageCommandC2EP28QDesignerFormWindowInterface@Qt_5 5.6.0~beta
 _ZN18qdesigner_internal20DeleteTabPageCommandD0Ev@Qt_5 5.6.0~beta
 _ZN18qdesigner_internal20DeleteTabPageCommandD1Ev@Qt_5 5.6.0~beta
 _ZN18qdesigner_internal20DeleteTabPageCommandD2Ev@Qt_5 5.6.0~beta
 _ZN18qdesigner_internal20DeleteToolBarCommand4initEP8QToolBar@Qt_5 5.6.0~beta
 _ZN18qdesigner_internal20DeleteToolBarCommand4redoEv@Qt_5 5.6.0~beta
 _ZN18qdesigner_internal20DeleteToolBarCommand4undoEv@Qt_5 5.6.0~beta
 _ZN18qdesigner_internal20DeleteToolBarCommandC1EP28QDesignerFormWindowInterface@Qt_5 5.6.0~beta
 _ZN18qdesigner_internal20DeleteToolBarCommandC2EP28QDesignerFormWindowInterface@Qt_5 5.6.0~beta
 _ZN18qdesigner_internal20FormBuilderClipboardC1EP7QWidget@Qt_5 5.6.0~beta
 _ZN18qdesigner_internal20FormBuilderClipboardC2EP7QWidget@Qt_5 5.6.0~beta
 _ZN18qdesigner_internal20PreviewConfiguration12fromSettingsERK7QStringPK26QDesignerSettingsInterface@Qt_5 5.6.0~beta
 _ZN18qdesigner_internal20PreviewConfiguration13setDeviceSkinERK7QString@Qt_5 5.6.0~beta
 _ZN18qdesigner_internal20PreviewConfiguration24setApplicationStyleSheetERK7QString@Qt_5 5.6.0~beta
 _ZN18qdesigner_internal20PreviewConfiguration5clearEv@Qt_5 5.6.0~beta
 _ZN18qdesigner_internal20PreviewConfiguration8setStyleERK7QString@Qt_5 5.6.0~beta
 _ZN18qdesigner_internal20PreviewConfigurationC1ERK7QStringS3_S3_@Qt_5 5.6.0~beta
 _ZN18qdesigner_internal20PreviewConfigurationC1ERKS0_@Qt_5 5.6.0~beta
 _ZN18qdesigner_internal20PreviewConfigurationC1Ev@Qt_5 5.6.0~beta
 _ZN18qdesigner_internal20PreviewConfigurationC2ERK7QStringS3_S3_@Qt_5 5.6.0~beta
 _ZN18qdesigner_internal20PreviewConfigurationC2ERKS0_@Qt_5 5.6.0~beta
 _ZN18qdesigner_internal20PreviewConfigurationC2Ev@Qt_5 5.6.0~beta
 _ZN18qdesigner_internal20PreviewConfigurationD1Ev@Qt_5 5.6.0~beta
 _ZN18qdesigner_internal20PreviewConfigurationD2Ev@Qt_5 5.6.0~beta
 _ZN18qdesigner_internal20PreviewConfigurationaSERKS0_@Qt_5 5.6.0~beta
 _ZN18qdesigner_internal20QDesignerFormBuilder10nameToIconERK7QStringS3_@Qt_5 5.6.0~beta
 _ZN18qdesigner_internal20QDesignerFormBuilder12createWidgetERK7QStringP7QWidgetS3_@Qt_5 5.6.0~beta
 _ZN18qdesigner_internal20QDesignerFormBuilder12nameToPixmapERK7QStringS3_@Qt_5 5.6.0~beta
 _ZN18qdesigner_internal20QDesignerFormBuilder13createPreviewEPK28QDesignerFormWindowInterfaceRK7QString@Qt_5 5.6.0~beta
 _ZN18qdesigner_internal20QDesignerFormBuilder13createPreviewEPK28QDesignerFormWindowInterfaceRK7QStringS6_@Qt_5 5.6.0~beta
 _ZN18qdesigner_internal20QDesignerFormBuilder13createPreviewEPK28QDesignerFormWindowInterfaceRK7QStringS6_PS4_@Qt_5 5.6.0~beta
 _ZN18qdesigner_internal20QDesignerFormBuilder13createPreviewEPK28QDesignerFormWindowInterfaceRK7QStringS6_RKNS_13DeviceProfileEPS4_@Qt_5 5.6.0~beta
 _ZN18qdesigner_internal20QDesignerFormBuilder13loadExtraInfoEP9DomWidgetP7QWidgetS4_@Qt_5 5.6.0~beta
 _ZN18qdesigner_internal20QDesignerFormBuilder15applyPropertiesEP7QObjectRK5QListIP11DomPropertyE@Qt_5 5.6.0~beta
 _ZN18qdesigner_internal20QDesignerFormBuilder15createResourcesEP12DomResources@Qt_5 5.6.0~beta
 _ZN18qdesigner_internal20QDesignerFormBuilder19createPreviewPixmapEPK28QDesignerFormWindowInterfaceRK7QStringS6_@Qt_5 5.6.0~beta
 _ZN18qdesigner_internal20QDesignerFormBuilder6createEP5DomUIP7QWidget@Qt_5 5.6.0~beta
 _ZN18qdesigner_internal20QDesignerFormBuilder6createEP9DomLayoutP7QLayoutP7QWidget@Qt_5 5.6.0~beta
 _ZN18qdesigner_internal20QDesignerFormBuilder6createEP9DomWidgetP7QWidget@Qt_5 5.6.0~beta
 _ZN18qdesigner_internal20QDesignerFormBuilder7addItemEP13DomLayoutItemP11QLayoutItemP7QLayout@Qt_5 5.6.0~beta
 _ZN18qdesigner_internal20QDesignerFormBuilder7addItemEP9DomWidgetP7QWidgetS4_@Qt_5 5.6.0~beta
 _ZN18qdesigner_internal20QDesignerFormBuilder9createDomEP7QWidgetP9DomWidgetb@Qt_5 5.6.0~beta
 _ZN18qdesigner_internal20QDesignerFormBuilderC1EP28QDesignerFormEditorInterfaceRKNS_13DeviceProfileE@Qt_5 5.6.0~beta
 _ZN18qdesigner_internal20QDesignerFormBuilderC2EP28QDesignerFormEditorInterfaceRKNS_13DeviceProfileE@Qt_5 5.6.0~beta
 _ZN18qdesigner_internal20ResetPropertyCommand14setDescriptionEv@Qt_5 5.6.0~beta
 _ZN18qdesigner_internal20ResetPropertyCommand4initEP7QObjectRK7QString@Qt_5 5.6.0~beta
 _ZN18qdesigner_internal20ResetPropertyCommand4initERK5QListIP7QObjectERK7QStringS3_@Qt_5 5.6.0~beta
 _ZN18qdesigner_internal20ResetPropertyCommand4redoEv@Qt_5 5.6.0~beta
 _ZN18qdesigner_internal20ResetPropertyCommandC1EP28QDesignerFormWindowInterface@Qt_5 5.6.0~beta
 _ZN18qdesigner_internal20ResetPropertyCommandC2EP28QDesignerFormWindowInterface@Qt_5 5.6.0~beta
 _ZN18qdesigner_internal20RichTextEditorDialog10showDialogEv@Qt_5 5.6.0~beta
 _ZN18qdesigner_internal20RichTextEditorDialog11qt_metacallEN11QMetaObject4CallEiPPv@Qt_5 5.6.0~beta
 _ZN18qdesigner_internal20RichTextEditorDialog11qt_metacastEPKc@Qt_5 5.6.0~beta
 _ZN18qdesigner_internal20RichTextEditorDialog13sourceChangedEv@Qt_5 5.6.0~beta
 _ZN18qdesigner_internal20RichTextEditorDialog14setDefaultFontERK5QFont@Qt_5 5.6.0~beta
 _ZN18qdesigner_internal20RichTextEditorDialog15richTextChangedEv@Qt_5 5.6.0~beta
 _ZN18qdesigner_internal20RichTextEditorDialog15tabIndexChangedEi@Qt_5 5.6.0~beta
 _ZN18qdesigner_internal20RichTextEditorDialog16staticMetaObjectE@Qt_5 5.6.0~beta
 _ZN18qdesigner_internal20RichTextEditorDialog7setTextERK7QString@Qt_5 5.6.0~beta
 _ZN18qdesigner_internal20RichTextEditorDialogC1EP28QDesignerFormEditorInterfaceP7QWidget@Qt_5 5.6.0~beta
 _ZN18qdesigner_internal20RichTextEditorDialogC2EP28QDesignerFormEditorInterfaceP7QWidget@Qt_5 5.6.0~beta
 _ZN18qdesigner_internal20RichTextEditorDialogD0Ev@Qt_5 5.6.0~beta
 _ZN18qdesigner_internal20RichTextEditorDialogD1Ev@Qt_5 5.6.0~beta
 _ZN18qdesigner_internal20RichTextEditorDialogD2Ev@Qt_5 5.6.0~beta
 _ZN18qdesigner_internal20StackedWidgetCommand10removePageEv@Qt_5 5.6.0~beta
 _ZN18qdesigner_internal20StackedWidgetCommand4initEP14QStackedWidget@Qt_5 5.6.0~beta
 _ZN18qdesigner_internal20StackedWidgetCommand7addPageEv@Qt_5 5.6.0~beta
 _ZN18qdesigner_internal20StackedWidgetCommandC1EP28QDesignerFormWindowInterface@Qt_5 5.6.0~beta
 _ZN18qdesigner_internal20StackedWidgetCommandC2EP28QDesignerFormWindowInterface@Qt_5 5.6.0~beta
 _ZN18qdesigner_internal20StackedWidgetCommandD0Ev@Qt_5 5.6.0~beta
 _ZN18qdesigner_internal20StackedWidgetCommandD1Ev@Qt_5 5.6.0~beta
 _ZN18qdesigner_internal20StackedWidgetCommandD2Ev@Qt_5 5.6.0~beta
 _ZN18qdesigner_internal20includeSpecificationE7QString@Qt_5 5.6.0~beta
 _ZN18qdesigner_internal21AddToolBoxPageCommand4initEP8QToolBox@Qt_5 5.6.0~beta
 _ZN18qdesigner_internal21AddToolBoxPageCommand4initEP8QToolBoxNS0_13InsertionModeE@Qt_5 5.6.0~beta
 _ZN18qdesigner_internal21AddToolBoxPageCommand4redoEv@Qt_5 5.6.0~beta
 _ZN18qdesigner_internal21AddToolBoxPageCommand4undoEv@Qt_5 5.6.0~beta
 _ZN18qdesigner_internal21AddToolBoxPageCommandC1EP28QDesignerFormWindowInterface@Qt_5 5.6.0~beta
 _ZN18qdesigner_internal21AddToolBoxPageCommandC2EP28QDesignerFormWindowInterface@Qt_5 5.6.0~beta
 _ZN18qdesigner_internal21AddToolBoxPageCommandD0Ev@Qt_5 5.6.0~beta
 _ZN18qdesigner_internal21AddToolBoxPageCommandD1Ev@Qt_5 5.6.0~beta
 _ZN18qdesigner_internal21AddToolBoxPageCommandD2Ev@Qt_5 5.6.0~beta
 _ZN18qdesigner_internal21PlainTextEditorDialog10showDialogEv@Qt_5 5.6.0~beta
 _ZN18qdesigner_internal21PlainTextEditorDialog11qt_metacallEN11QMetaObject4CallEiPPv@Qt_5 5.6.0~beta
 _ZN18qdesigner_internal21PlainTextEditorDialog11qt_metacastEPKc@Qt_5 5.6.0~beta
 _ZN18qdesigner_internal21PlainTextEditorDialog14setDefaultFontERK5QFont@Qt_5 5.6.0~beta
 _ZN18qdesigner_internal21PlainTextEditorDialog16staticMetaObjectE@Qt_5 5.6.0~beta
 _ZN18qdesigner_internal21PlainTextEditorDialog7setTextERK7QString@Qt_5 5.6.0~beta
 _ZN18qdesigner_internal21PlainTextEditorDialogC1EP28QDesignerFormEditorInterfaceP7QWidget@Qt_5 5.6.0~beta
 _ZN18qdesigner_internal21PlainTextEditorDialogC2EP28QDesignerFormEditorInterfaceP7QWidget@Qt_5 5.6.0~beta
 _ZN18qdesigner_internal21PlainTextEditorDialogD0Ev@Qt_5 5.6.0~beta
 _ZN18qdesigner_internal21PlainTextEditorDialogD1Ev@Qt_5 5.6.0~beta
 _ZN18qdesigner_internal21PlainTextEditorDialogD2Ev@Qt_5 5.6.0~beta
 _ZN18qdesigner_internal21ReparentWidgetCommand4initEP7QWidgetS2_@Qt_5 5.6.0~beta
 _ZN18qdesigner_internal21ReparentWidgetCommand4redoEv@Qt_5 5.6.0~beta
 _ZN18qdesigner_internal21ReparentWidgetCommand4undoEv@Qt_5 5.6.0~beta
 _ZN18qdesigner_internal21ReparentWidgetCommandC1EP28QDesignerFormWindowInterface@Qt_5 5.6.0~beta
 _ZN18qdesigner_internal21ReparentWidgetCommandC2EP28QDesignerFormWindowInterface@Qt_5 5.6.0~beta
 _ZN18qdesigner_internal21SimplifyLayoutCommand11canSimplifyEP28QDesignerFormEditorInterfacePK7QWidgetPi@Qt_5 5.6.0~beta
 _ZN18qdesigner_internal21SimplifyLayoutCommand4initEP7QWidget@Qt_5 5.6.0~beta
 _ZN18qdesigner_internal21SimplifyLayoutCommand4redoEv@Qt_5 5.6.0~beta
 _ZN18qdesigner_internal21SimplifyLayoutCommand4undoEv@Qt_5 5.6.0~beta
 _ZN18qdesigner_internal21SimplifyLayoutCommandC1EP28QDesignerFormWindowInterface@Qt_5 5.6.0~beta
 _ZN18qdesigner_internal21SimplifyLayoutCommandC2EP28QDesignerFormWindowInterface@Qt_5 5.6.0~beta
 _ZN18qdesigner_internal21SimplifyLayoutCommandD0Ev@Qt_5 5.6.0~beta
 _ZN18qdesigner_internal21SimplifyLayoutCommandD1Ev@Qt_5 5.6.0~beta
 _ZN18qdesigner_internal21SimplifyLayoutCommandD2Ev@Qt_5 5.6.0~beta
 _ZN18qdesigner_internal22ActionInsertionCommand12insertActionEv@Qt_5 5.6.0~beta
 _ZN18qdesigner_internal22ActionInsertionCommand12removeActionEv@Qt_5 5.6.0~beta
 _ZN18qdesigner_internal22ActionInsertionCommand4initEP7QWidgetP7QActionS4_b@Qt_5 5.6.0~beta
 _ZN18qdesigner_internal22ActionInsertionCommandC1ERK7QStringP28QDesignerFormWindowInterface@Qt_5 5.6.0~beta
 _ZN18qdesigner_internal22ActionInsertionCommandC2ERK7QStringP28QDesignerFormWindowInterface@Qt_5 5.6.0~beta
 _ZN18qdesigner_internal22ContainerWidgetCommand10removePageEv@Qt_5 5.6.0~beta
 _ZN18qdesigner_internal22ContainerWidgetCommand4initEP7QWidget@Qt_5 5.6.0~beta
 _ZN18qdesigner_internal22ContainerWidgetCommand7addPageEv@Qt_5 5.6.0~beta
 _ZN18qdesigner_internal22ContainerWidgetCommandC1EP28QDesignerFormWindowInterface@Qt_5 5.6.0~beta
 _ZN18qdesigner_internal22ContainerWidgetCommandC2EP28QDesignerFormWindowInterface@Qt_5 5.6.0~beta
 _ZN18qdesigner_internal22ContainerWidgetCommandD0Ev@Qt_5 5.6.0~beta
 _ZN18qdesigner_internal22ContainerWidgetCommandD1Ev@Qt_5 5.6.0~beta
 _ZN18qdesigner_internal22ContainerWidgetCommandD2Ev@Qt_5 5.6.0~beta
 _ZN18qdesigner_internal22CreateStatusBarCommand4initEP11QMainWindow@Qt_5 5.6.0~beta
 _ZN18qdesigner_internal22CreateStatusBarCommand4redoEv@Qt_5 5.6.0~beta
 _ZN18qdesigner_internal22CreateStatusBarCommand4undoEv@Qt_5 5.6.0~beta
 _ZN18qdesigner_internal22CreateStatusBarCommandC1EP28QDesignerFormWindowInterface@Qt_5 5.6.0~beta
 _ZN18qdesigner_internal22CreateStatusBarCommandC2EP28QDesignerFormWindowInterface@Qt_5 5.6.0~beta
 _ZN18qdesigner_internal22DeleteStatusBarCommand4initEP10QStatusBar@Qt_5 5.6.0~beta
 _ZN18qdesigner_internal22DeleteStatusBarCommand4redoEv@Qt_5 5.6.0~beta
 _ZN18qdesigner_internal22DeleteStatusBarCommand4undoEv@Qt_5 5.6.0~beta
 _ZN18qdesigner_internal22DeleteStatusBarCommandC1EP28QDesignerFormWindowInterface@Qt_5 5.6.0~beta
 _ZN18qdesigner_internal22DeleteStatusBarCommandC2EP28QDesignerFormWindowInterface@Qt_5 5.6.0~beta
 _ZN18qdesigner_internal22LanguageResourceDialog11qt_metacallEN11QMetaObject4CallEiPPv@Qt_5 5.6.0~beta
 _ZN18qdesigner_internal22LanguageResourceDialog11qt_metacastEPKc@Qt_5 5.6.0~beta
 _ZN18qdesigner_internal22LanguageResourceDialog14setCurrentPathERK7QString@Qt_5 5.6.0~beta
 _ZN18qdesigner_internal22LanguageResourceDialog16staticMetaObjectE@Qt_5 5.6.0~beta
 _ZN18qdesigner_internal22LanguageResourceDialog6createEP28QDesignerFormEditorInterfaceP7QWidget@Qt_5 5.6.0~beta
 _ZN18qdesigner_internal22LanguageResourceDialogC1EP33QDesignerResourceBrowserInterfaceP7QWidget@Qt_5 5.6.0~beta
 _ZN18qdesigner_internal22LanguageResourceDialogC2EP33QDesignerResourceBrowserInterfaceP7QWidget@Qt_5 5.6.0~beta
 _ZN18qdesigner_internal22LanguageResourceDialogD0Ev@Qt_5 5.6.0~beta
 _ZN18qdesigner_internal22LanguageResourceDialogD1Ev@Qt_5 5.6.0~beta
 _ZN18qdesigner_internal22LanguageResourceDialogD2Ev@Qt_5 5.6.0~beta
 _ZN18qdesigner_internal22MoveToolBoxPageCommand4initEP8QToolBoxP7QWidgeti@Qt_5 5.6.0~beta
 _ZN18qdesigner_internal22MoveToolBoxPageCommand4redoEv@Qt_5 5.6.0~beta
 _ZN18qdesigner_internal22MoveToolBoxPageCommand4undoEv@Qt_5 5.6.0~beta
 _ZN18qdesigner_internal22MoveToolBoxPageCommandC1EP28QDesignerFormWindowInterface@Qt_5 5.6.0~beta
 _ZN18qdesigner_internal22MoveToolBoxPageCommandC2EP28QDesignerFormWindowInterface@Qt_5 5.6.0~beta
 _ZN18qdesigner_internal22MoveToolBoxPageCommandD0Ev@Qt_5 5.6.0~beta
 _ZN18qdesigner_internal22MoveToolBoxPageCommandD1Ev@Qt_5 5.6.0~beta
 _ZN18qdesigner_internal22MoveToolBoxPageCommandD2Ev@Qt_5 5.6.0~beta
 _ZN18qdesigner_internal22PropertySheetEnumValueC1EiRKNS_16DesignerMetaEnumE@Qt_5 5.6.0~beta
 _ZN18qdesigner_internal22PropertySheetEnumValueC1Ev@Qt_5 5.6.0~beta
 _ZN18qdesigner_internal22PropertySheetEnumValueC2EiRKNS_16DesignerMetaEnumE@Qt_5 5.6.0~beta
 _ZN18qdesigner_internal22PropertySheetEnumValueC2Ev@Qt_5 5.6.0~beta
 _ZN18qdesigner_internal22PropertySheetFlagValueC1EiRKNS_17DesignerMetaFlagsE@Qt_5 5.6.0~beta
 _ZN18qdesigner_internal22PropertySheetFlagValueC1Ev@Qt_5 5.6.0~beta
 _ZN18qdesigner_internal22PropertySheetFlagValueC2EiRKNS_17DesignerMetaFlagsE@Qt_5 5.6.0~beta
 _ZN18qdesigner_internal22PropertySheetFlagValueC2Ev@Qt_5 5.6.0~beta
 _ZN18qdesigner_internal22PropertySheetIconValue6assignERKS0_j@Qt_5 5.6.0~beta
 _ZN18qdesigner_internal22PropertySheetIconValue8setThemeERK7QString@Qt_5 5.6.0~beta
 _ZN18qdesigner_internal22PropertySheetIconValue9setPixmapEN5QIcon4ModeENS1_5StateERKNS_24PropertySheetPixmapValueE@Qt_5 5.6.0~beta
 _ZN18qdesigner_internal22PropertySheetIconValueC1ERKNS_24PropertySheetPixmapValueE@Qt_5 5.6.0~beta
 _ZN18qdesigner_internal22PropertySheetIconValueC1ERKS0_@Qt_5 5.6.0~beta
 _ZN18qdesigner_internal22PropertySheetIconValueC1Ev@Qt_5 5.6.0~beta
 _ZN18qdesigner_internal22PropertySheetIconValueC2ERKNS_24PropertySheetPixmapValueE@Qt_5 5.6.0~beta
 _ZN18qdesigner_internal22PropertySheetIconValueC2ERKS0_@Qt_5 5.6.0~beta
 _ZN18qdesigner_internal22PropertySheetIconValueC2Ev@Qt_5 5.6.0~beta
 _ZN18qdesigner_internal22PropertySheetIconValueD1Ev@Qt_5 5.6.0~beta
 _ZN18qdesigner_internal22PropertySheetIconValueD2Ev@Qt_5 5.6.0~beta
 _ZN18qdesigner_internal22PropertySheetIconValueaSERKS0_@Qt_5 5.6.0~beta
 _ZN18qdesigner_internal22QDesignerIntrospectionC1Ev@Qt_5 5.6.0~beta
 _ZN18qdesigner_internal22QDesignerIntrospectionC2Ev@Qt_5 5.6.0~beta
 _ZN18qdesigner_internal22QDesignerIntrospectionD0Ev@Qt_5 5.6.0~beta
 _ZN18qdesigner_internal22QDesignerIntrospectionD1Ev@Qt_5 5.6.0~beta
 _ZN18qdesigner_internal22QDesignerIntrospectionD2Ev@Qt_5 5.6.0~beta
 _ZN18qdesigner_internal22StyleSheetEditorDialog11qt_metacallEN11QMetaObject4CallEiPPv@Qt_5 5.6.0~beta
 _ZN18qdesigner_internal22StyleSheetEditorDialog11qt_metacastEPKc@Qt_5 5.6.0~beta
 _ZN18qdesigner_internal22StyleSheetEditorDialog11slotAddFontEv@Qt_5 5.6.0~beta
 _ZN18qdesigner_internal22StyleSheetEditorDialog12slotAddColorERK7QString@Qt_5 5.6.0~beta
 _ZN18qdesigner_internal22StyleSheetEditorDialog15slotAddGradientERK7QString@Qt_5 5.6.0~beta
 _ZN18qdesigner_internal22StyleSheetEditorDialog15slotAddResourceERK7QString@Qt_5 5.6.0~beta
 _ZN18qdesigner_internal22StyleSheetEditorDialog15slotRequestHelpEv@Qt_5 5.6.0~beta
 _ZN18qdesigner_internal22StyleSheetEditorDialog16staticMetaObjectE@Qt_5 5.6.0~beta
 _ZN18qdesigner_internal22StyleSheetEditorDialog17insertCssPropertyERK7QStringS3_@Qt_5 5.6.0~beta
 _ZN18qdesigner_internal22StyleSheetEditorDialog17isStyleSheetValidERK7QString@Qt_5 5.6.0~beta
 _ZN18qdesigner_internal22StyleSheetEditorDialog18setOkButtonEnabledEb@Qt_5 5.6.0~beta
 _ZN18qdesigner_internal22StyleSheetEditorDialog18validateStyleSheetEv@Qt_5 5.6.0~beta
 _ZN18qdesigner_internal22StyleSheetEditorDialog24slotContextMenuRequestedERK6QPoint@Qt_5 5.6.0~beta
 _ZN18qdesigner_internal22StyleSheetEditorDialog7setTextERK7QString@Qt_5 5.6.0~beta
 _ZN18qdesigner_internal22StyleSheetEditorDialogC1EP28QDesignerFormEditorInterfaceP7QWidgetNS0_4ModeE@Qt_5 5.6.0~beta
 _ZN18qdesigner_internal22StyleSheetEditorDialogC2EP28QDesignerFormEditorInterfaceP7QWidgetNS0_4ModeE@Qt_5 5.6.0~beta
 _ZN18qdesigner_internal22StyleSheetEditorDialogD0Ev@Qt_5 5.6.0~beta
 _ZN18qdesigner_internal22StyleSheetEditorDialogD1Ev@Qt_5 5.6.0~beta
 _ZN18qdesigner_internal22StyleSheetEditorDialogD2Ev@Qt_5 5.6.0~beta
 _ZN18qdesigner_internal23AdjustWidgetSizeCommand4initEP7QWidget@Qt_5 5.6.0~beta
 _ZN18qdesigner_internal23AdjustWidgetSizeCommand4redoEv@Qt_5 5.6.0~beta
 _ZN18qdesigner_internal23AdjustWidgetSizeCommand4undoEv@Qt_5 5.6.0~beta
 _ZN18qdesigner_internal23AdjustWidgetSizeCommandC1EP28QDesignerFormWindowInterface@Qt_5 5.6.0~beta
 _ZN18qdesigner_internal23AdjustWidgetSizeCommandC2EP28QDesignerFormWindowInterface@Qt_5 5.6.0~beta
 _ZN18qdesigner_internal23InsertActionIntoCommandC1EP28QDesignerFormWindowInterface@Qt_5 5.6.0~beta
 _ZN18qdesigner_internal23InsertActionIntoCommandC2EP28QDesignerFormWindowInterface@Qt_5 5.6.0~beta
 _ZN18qdesigner_internal23QDesignerPropertyEditor11qt_metacallEN11QMetaObject4CallEiPPv@Qt_5 5.6.0~beta
 _ZN18qdesigner_internal23QDesignerPropertyEditor11qt_metacastEPKc@Qt_5 5.6.0~beta
 _ZN18qdesigner_internal23QDesignerPropertyEditor12editorClosedEv@Qt_5 5.6.0~beta
 _ZN18qdesigner_internal23QDesignerPropertyEditor12editorOpenedEv@Qt_5 5.6.0~beta
 _ZN18qdesigner_internal23QDesignerPropertyEditor13resetPropertyERK7QString@Qt_5 5.6.0~beta
 _ZN18qdesigner_internal23QDesignerPropertyEditor16staticMetaObjectE@Qt_5 5.6.0~beta
 _ZN18qdesigner_internal23QDesignerPropertyEditor18addDynamicPropertyERK7QStringRK8QVariant@Qt_5 5.6.0~beta
 _ZN18qdesigner_internal23QDesignerPropertyEditor19slotPropertyChangedERK7QStringRK8QVariant@Qt_5 5.6.0~beta
 _ZN18qdesigner_internal23QDesignerPropertyEditor20propertyValueChangedERK7QStringRK8QVariantb@Qt_5 5.6.0~beta
 _ZN18qdesigner_internal23QDesignerPropertyEditor21removeDynamicPropertyERK7QString@Qt_5 5.6.0~beta
 _ZN18qdesigner_internal23QDesignerPropertyEditor24emitPropertyValueChangedERK7QStringRK8QVariantb@Qt_5 5.6.0~beta
 _ZN18qdesigner_internal23QDesignerPropertyEditor26textPropertyValidationModeEP28QDesignerFormEditorInterfacePK7QObjectRK7QStringb@Qt_5 5.6.0~beta
 _ZN18qdesigner_internal23QDesignerPropertyEditorC1EP7QWidget6QFlagsIN2Qt10WindowTypeEE@Qt_5 5.6.0~beta
 _ZN18qdesigner_internal23QDesignerPropertyEditorC2EP7QWidget6QFlagsIN2Qt10WindowTypeEE@Qt_5 5.6.0~beta
 _ZN18qdesigner_internal23QDesignerSharedSettings14setDefaultGridERKNS_4GridE@Qt_5 5.6.0~beta
 _ZN18qdesigner_internal23QDesignerSharedSettings14setNewFormSizeERK5QSize@Qt_5 5.6.0~beta
 _ZN18qdesigner_internal23QDesignerSharedSettings14setZoomEnabledEb@Qt_5 5.6.0~beta
 _ZN18qdesigner_internal23QDesignerSharedSettings15setFormTemplateERK7QString@Qt_5 5.6.0~beta
 _ZN18qdesigner_internal23QDesignerSharedSettings17setDeviceProfilesERK5QListINS_13DeviceProfileEE@Qt_5 5.6.0~beta
 _ZN18qdesigner_internal23QDesignerSharedSettings18setUserDeviceSkinsERK11QStringList@Qt_5 5.6.0~beta
 _ZN18qdesigner_internal23QDesignerSharedSettings20setFormTemplatePathsERK11QStringList@Qt_5 5.6.0~beta
 _ZN18qdesigner_internal23QDesignerSharedSettings24defaultFormTemplatePathsEv@Qt_5 5.6.0~beta
 _ZN18qdesigner_internal23QDesignerSharedSettings28setCurrentDeviceProfileIndexEi@Qt_5 5.6.0~beta
 _ZN18qdesigner_internal23QDesignerSharedSettings29setCustomPreviewConfigurationERKNS_20PreviewConfigurationE@Qt_5 5.6.0~beta
 _ZN18qdesigner_internal23QDesignerSharedSettings30setAdditionalFormTemplatePathsERK11QStringList@Qt_5 5.6.0~beta
 _ZN18qdesigner_internal23QDesignerSharedSettings36setCustomPreviewConfigurationEnabledEb@Qt_5 5.6.0~beta
 _ZN18qdesigner_internal23QDesignerSharedSettings7setZoomEi@Qt_5 5.6.0~beta
 _ZN18qdesigner_internal23QDesignerSharedSettingsC1EP28QDesignerFormEditorInterface@Qt_5 5.6.0~beta
 _ZN18qdesigner_internal23QDesignerSharedSettingsC2EP28QDesignerFormEditorInterface@Qt_5 5.6.0~beta
 _ZN18qdesigner_internal23RemoveActionFromCommandC1EP28QDesignerFormWindowInterface@Qt_5 5.6.0~beta
 _ZN18qdesigner_internal23RemoveActionFromCommandC2EP28QDesignerFormWindowInterface@Qt_5 5.6.0~beta
 _ZN18qdesigner_internal23RemoveMenuActionCommandC1EP28QDesignerFormWindowInterface@Qt_5 5.6.0~beta
 _ZN18qdesigner_internal23RemoveMenuActionCommandC2EP28QDesignerFormWindowInterface@Qt_5 5.6.0~beta
 _ZN18qdesigner_internal23promotedCustomClassNameEP28QDesignerFormEditorInterfaceP7QWidget@Qt_5 5.6.0~beta
 _ZN18qdesigner_internal24ActionRepositoryMimeData11qt_metacallEN11QMetaObject4CallEiPPv@Qt_5 5.6.0~beta
 _ZN18qdesigner_internal24ActionRepositoryMimeData11qt_metacastEPKc@Qt_5 5.6.0~beta
 _ZN18qdesigner_internal24ActionRepositoryMimeData16actionDragPixmapEPK7QAction@Qt_5 5.6.0~beta
 _ZN18qdesigner_internal24ActionRepositoryMimeData16staticMetaObjectE@Qt_5 5.6.0~beta
 _ZN18qdesigner_internal24ActionRepositoryMimeDataC1EP7QActionN2Qt10DropActionE@Qt_5 5.6.0~beta
 _ZN18qdesigner_internal24ActionRepositoryMimeDataC1ERK5QListIP7QActionEN2Qt10DropActionE@Qt_5 5.6.0~beta
 _ZN18qdesigner_internal24ActionRepositoryMimeDataC2EP7QActionN2Qt10DropActionE@Qt_5 5.6.0~beta
 _ZN18qdesigner_internal24ActionRepositoryMimeDataC2ERK5QListIP7QActionEN2Qt10DropActionE@Qt_5 5.6.0~beta
 _ZN18qdesigner_internal24ChangeCurrentPageCommand4initEP7QWidgeti@Qt_5 5.6.0~beta
 _ZN18qdesigner_internal24ChangeCurrentPageCommand4redoEv@Qt_5 5.6.0~beta
 _ZN18qdesigner_internal24ChangeCurrentPageCommand4undoEv@Qt_5 5.6.0~beta
 _ZN18qdesigner_internal24ChangeCurrentPageCommandC1EP28QDesignerFormWindowInterface@Qt_5 5.6.0~beta
 _ZN18qdesigner_internal24ChangeCurrentPageCommandC2EP28QDesignerFormWindowInterface@Qt_5 5.6.0~beta
 _ZN18qdesigner_internal24ChangeCurrentPageCommandD0Ev@Qt_5 5.6.0~beta
 _ZN18qdesigner_internal24ChangeCurrentPageCommandD1Ev@Qt_5 5.6.0~beta
 _ZN18qdesigner_internal24ChangeCurrentPageCommandD2Ev@Qt_5 5.6.0~beta
 _ZN18qdesigner_internal24ChangeLayoutItemGeometry18changeItemPositionERK5QRect@Qt_5 5.6.0~beta
 _ZN18qdesigner_internal24ChangeLayoutItemGeometry4initEP7QWidgetiiii@Qt_5 5.6.0~beta
 _ZN18qdesigner_internal24ChangeLayoutItemGeometry4redoEv@Qt_5 5.6.0~beta
 _ZN18qdesigner_internal24ChangeLayoutItemGeometry4undoEv@Qt_5 5.6.0~beta
 _ZN18qdesigner_internal24ChangeLayoutItemGeometryC1EP28QDesignerFormWindowInterface@Qt_5 5.6.0~beta
 _ZN18qdesigner_internal24ChangeLayoutItemGeometryC2EP28QDesignerFormWindowInterface@Qt_5 5.6.0~beta
 _ZN18qdesigner_internal24DeleteConnectionsCommand4redoEv@Qt_5 5.6.0~beta
 _ZN18qdesigner_internal24DeleteConnectionsCommand4undoEv@Qt_5 5.6.0~beta
 _ZN18qdesigner_internal24DeleteConnectionsCommandC1EPNS_14ConnectionEditERK5QListIPNS_10ConnectionEE@Qt_5 5.6.0~beta
 _ZN18qdesigner_internal24DeleteConnectionsCommandC2EPNS_14ConnectionEditERK5QListIPNS_10ConnectionEE@Qt_5 5.6.0~beta
 _ZN18qdesigner_internal24DeleteToolBoxPageCommand4initEP8QToolBox@Qt_5 5.6.0~beta
 _ZN18qdesigner_internal24DeleteToolBoxPageCommand4redoEv@Qt_5 5.6.0~beta
 _ZN18qdesigner_internal24DeleteToolBoxPageCommand4undoEv@Qt_5 5.6.0~beta
 _ZN18qdesigner_internal24DeleteToolBoxPageCommandC1EP28QDesignerFormWindowInterface@Qt_5 5.6.0~beta
 _ZN18qdesigner_internal24DeleteToolBoxPageCommandC2EP28QDesignerFormWindowInterface@Qt_5 5.6.0~beta
 _ZN18qdesigner_internal24DeleteToolBoxPageCommandD0Ev@Qt_5 5.6.0~beta
 _ZN18qdesigner_internal24DeleteToolBoxPageCommandD1Ev@Qt_5 5.6.0~beta
 _ZN18qdesigner_internal24DeleteToolBoxPageCommandD2Ev@Qt_5 5.6.0~beta
 _ZN18qdesigner_internal24MoveStackedWidgetCommand4initEP14QStackedWidgetP7QWidgeti@Qt_5 5.6.0~beta
 _ZN18qdesigner_internal24MoveStackedWidgetCommand4redoEv@Qt_5 5.6.0~beta
 _ZN18qdesigner_internal24MoveStackedWidgetCommand4undoEv@Qt_5 5.6.0~beta
 _ZN18qdesigner_internal24MoveStackedWidgetCommandC1EP28QDesignerFormWindowInterface@Qt_5 5.6.0~beta
 _ZN18qdesigner_internal24MoveStackedWidgetCommandC2EP28QDesignerFormWindowInterface@Qt_5 5.6.0~beta
 _ZN18qdesigner_internal24MoveStackedWidgetCommandD0Ev@Qt_5 5.6.0~beta
 _ZN18qdesigner_internal24MoveStackedWidgetCommandD1Ev@Qt_5 5.6.0~beta
 _ZN18qdesigner_internal24MoveStackedWidgetCommandD2Ev@Qt_5 5.6.0~beta
 _ZN18qdesigner_internal24NewFormWidgetFormBuilder19createCustomWidgetsEP16DomCustomWidgets@Qt_5 5.6.0~beta
 _ZN18qdesigner_internal24NewFormWidgetFormBuilderC1EP28QDesignerFormEditorInterfaceRKNS_13DeviceProfileE@Qt_5 5.6.0~beta
 _ZN18qdesigner_internal24NewFormWidgetFormBuilderC2EP28QDesignerFormEditorInterfaceRKNS_13DeviceProfileE@Qt_5 5.6.0~beta
 _ZN18qdesigner_internal24PropertySheetPixmapValue15getPixmapSourceEP28QDesignerFormEditorInterfaceRK7QString@Qt_5 5.6.0~beta
 _ZN18qdesigner_internal24PropertySheetPixmapValue7setPathERK7QString@Qt_5 5.6.0~beta
 _ZN18qdesigner_internal24PropertySheetPixmapValueC1ERK7QString@Qt_5 5.6.0~beta
 _ZN18qdesigner_internal24PropertySheetPixmapValueC1Ev@Qt_5 5.6.0~beta
 _ZN18qdesigner_internal24PropertySheetPixmapValueC2ERK7QString@Qt_5 5.6.0~beta
 _ZN18qdesigner_internal24PropertySheetPixmapValueC2Ev@Qt_5 5.6.0~beta
 _ZN18qdesigner_internal24PropertySheetStringValue8setValueERK7QString@Qt_5 5.6.0~beta
 _ZN18qdesigner_internal24PropertySheetStringValueC1ERK7QStringbS3_S3_@Qt_5 5.6.0~beta
 _ZN18qdesigner_internal24PropertySheetStringValueC2ERK7QStringbS3_S3_@Qt_5 5.6.0~beta
 _ZN18qdesigner_internal24QDesignerObjectInspector11qt_metacallEN11QMetaObject4CallEiPPv@Qt_5 5.6.0~beta
 _ZN18qdesigner_internal24QDesignerObjectInspector11qt_metacastEPKc@Qt_5 5.6.0~beta
 _ZN18qdesigner_internal24QDesignerObjectInspector16staticMetaObjectE@Qt_5 5.6.0~beta
 _ZN18qdesigner_internal24QDesignerObjectInspector20mainContainerChangedEv@Qt_5 5.6.0~beta
 _ZN18qdesigner_internal24QDesignerObjectInspectorC1EP7QWidget6QFlagsIN2Qt10WindowTypeEE@Qt_5 5.6.0~beta
 _ZN18qdesigner_internal24QDesignerObjectInspectorC2EP7QWidget6QFlagsIN2Qt10WindowTypeEE@Qt_5 5.6.0~beta
 _ZN18qdesigner_internal25AddDynamicPropertyCommand14setDescriptionEv@Qt_5 5.6.0~beta
 _ZN18qdesigner_internal25AddDynamicPropertyCommand4initERK5QListIP7QObjectES3_RK7QStringRK8QVariant@Qt_5 5.6.0~beta
 _ZN18qdesigner_internal25AddDynamicPropertyCommand4redoEv@Qt_5 5.6.0~beta
 _ZN18qdesigner_internal25AddDynamicPropertyCommand4undoEv@Qt_5 5.6.0~beta
 _ZN18qdesigner_internal25AddDynamicPropertyCommandC1EP28QDesignerFormWindowInterface@Qt_5 5.6.0~beta
 _ZN18qdesigner_internal25AddDynamicPropertyCommandC2EP28QDesignerFormWindowInterface@Qt_5 5.6.0~beta
 _ZN18qdesigner_internal25ChangeListContentsCommand4initEP11QListWidgetRKNS_12ListContentsES5_@Qt_5 5.6.0~beta
 _ZN18qdesigner_internal25ChangeListContentsCommand4initEP9QComboBoxRKNS_12ListContentsES5_@Qt_5 5.6.0~beta
 _ZN18qdesigner_internal25ChangeListContentsCommand4redoEv@Qt_5 5.6.0~beta
 _ZN18qdesigner_internal25ChangeListContentsCommand4undoEv@Qt_5 5.6.0~beta
 _ZN18qdesigner_internal25ChangeListContentsCommandC1EP28QDesignerFormWindowInterface@Qt_5 5.6.0~beta
 _ZN18qdesigner_internal25ChangeListContentsCommandC2EP28QDesignerFormWindowInterface@Qt_5 5.6.0~beta
 _ZN18qdesigner_internal25ChangeTreeContentsCommand4initEP11QTreeWidgetRKNS_18TreeWidgetContentsES5_@Qt_5 5.6.0~beta
 _ZN18qdesigner_internal25ChangeTreeContentsCommand4redoEv@Qt_5 5.6.0~beta
 _ZN18qdesigner_internal25ChangeTreeContentsCommand4undoEv@Qt_5 5.6.0~beta
 _ZN18qdesigner_internal25ChangeTreeContentsCommandC1EP28QDesignerFormWindowInterface@Qt_5 5.6.0~beta
 _ZN18qdesigner_internal25ChangeTreeContentsCommandC2EP28QDesignerFormWindowInterface@Qt_5 5.6.0~beta
 _ZN18qdesigner_internal25ManageWidgetCommandHelper4initEP7QWidgetRK7QVectorIS2_E@Qt_5 5.6.0~beta
 _ZN18qdesigner_internal25ManageWidgetCommandHelper4initEPK28QDesignerFormWindowInterfaceP7QWidget@Qt_5 5.6.0~beta
 _ZN18qdesigner_internal25ManageWidgetCommandHelper6manageEP28QDesignerFormWindowInterface@Qt_5 5.6.0~beta
 _ZN18qdesigner_internal25ManageWidgetCommandHelper8unmanageEP28QDesignerFormWindowInterface@Qt_5 5.6.0~beta
 _ZN18qdesigner_internal25ManageWidgetCommandHelperC1Ev@Qt_5 5.6.0~beta
 _ZN18qdesigner_internal25ManageWidgetCommandHelperC2Ev@Qt_5 5.6.0~beta
 _ZN18qdesigner_internal25createTextPropertyCommandERK7QStringS2_P7QObjectP28QDesignerFormWindowInterface@Qt_5 5.6.0~beta
 _ZN18qdesigner_internal25getFormLayoutItemPositionEPK11QFormLayoutiPiS3_S3_S3_@Qt_5 5.6.0~beta
 _ZN18qdesigner_internal26ChangeTableContentsCommand4initEP12QTableWidgetRKNS_19TableWidgetContentsES5_@Qt_5 5.6.0~beta
 _ZN18qdesigner_internal26ChangeTableContentsCommand4redoEv@Qt_5 5.6.0~beta
 _ZN18qdesigner_internal26ChangeTableContentsCommand4undoEv@Qt_5 5.6.0~beta
 _ZN18qdesigner_internal26ChangeTableContentsCommandC1EP28QDesignerFormWindowInterface@Qt_5 5.6.0~beta
 _ZN18qdesigner_internal26ChangeTableContentsCommandC2EP28QDesignerFormWindowInterface@Qt_5 5.6.0~beta
 _ZN18qdesigner_internal26PreviewConfigurationWidget11qt_metacallEN11QMetaObject4CallEiPPv@Qt_5 5.6.0~beta
 _ZN18qdesigner_internal26PreviewConfigurationWidget11qt_metacastEPKc@Qt_5 5.6.0~beta
 _ZN18qdesigner_internal26PreviewConfigurationWidget15slotSkinChangedEi@Qt_5 5.6.0~beta
 _ZN18qdesigner_internal26PreviewConfigurationWidget16staticMetaObjectE@Qt_5 5.6.0~beta
 _ZN18qdesigner_internal26PreviewConfigurationWidget19slotDeleteSkinEntryEv@Qt_5 5.6.0~beta
 _ZN18qdesigner_internal26PreviewConfigurationWidget21slotEditAppStyleSheetEv@Qt_5 5.6.0~beta
 _ZN18qdesigner_internal26PreviewConfigurationWidget33PreviewConfigurationWidgetPrivate10browseSkinEv@Qt_5 5.6.0~beta
 _ZN18qdesigner_internal26PreviewConfigurationWidget33PreviewConfigurationWidgetPrivate12addUserSkinsERK11QStringList@Qt_5 5.6.0~beta
 _ZN18qdesigner_internal26PreviewConfigurationWidget33PreviewConfigurationWidgetPrivate15slotSkinChangedEi@Qt_5 5.6.0~beta
 _ZN18qdesigner_internal26PreviewConfigurationWidget33PreviewConfigurationWidgetPrivate16retrieveSettingsEv@Qt_5 5.6.0~beta
 _ZN18qdesigner_internal26PreviewConfigurationWidget33PreviewConfigurationWidgetPrivate19slotDeleteSkinEntryEv@Qt_5 5.6.0~beta
 _ZN18qdesigner_internal26PreviewConfigurationWidget33PreviewConfigurationWidgetPrivate21slotEditAppStyleSheetEv@Qt_5 5.6.0~beta
 _ZN18qdesigner_internal26PreviewConfigurationWidget33PreviewConfigurationWidgetPrivate23setPreviewConfigurationERKNS_20PreviewConfigurationE@Qt_5 5.6.0~beta
 _ZN18qdesigner_internal26PreviewConfigurationWidget33PreviewConfigurationWidgetPrivateC1EP28QDesignerFormEditorInterfaceP9QGroupBox@Qt_5 5.6.0~beta
 _ZN18qdesigner_internal26PreviewConfigurationWidget33PreviewConfigurationWidgetPrivateC2EP28QDesignerFormEditorInterfaceP9QGroupBox@Qt_5 5.6.0~beta
 _ZN18qdesigner_internal26PreviewConfigurationWidget9saveStateEv@Qt_5 5.6.0~beta
 _ZN18qdesigner_internal26PreviewConfigurationWidgetC1EP28QDesignerFormEditorInterfaceP7QWidget@Qt_5 5.6.0~beta
 _ZN18qdesigner_internal26PreviewConfigurationWidgetC2EP28QDesignerFormEditorInterfaceP7QWidget@Qt_5 5.6.0~beta
 _ZN18qdesigner_internal26PreviewConfigurationWidgetD0Ev@Qt_5 5.6.0~beta
 _ZN18qdesigner_internal26PreviewConfigurationWidgetD1Ev@Qt_5 5.6.0~beta
 _ZN18qdesigner_internal26PreviewConfigurationWidgetD2Ev@Qt_5 5.6.0~beta
 _ZN18qdesigner_internal26QDesignerFormEditorCommandC1ERK7QStringP28QDesignerFormEditorInterface@Qt_5 5.6.0~beta
 _ZN18qdesigner_internal26QDesignerFormEditorCommandC2ERK7QStringP28QDesignerFormEditorInterface@Qt_5 5.6.0~beta
 _ZN18qdesigner_internal26QDesignerFormWindowCommand11cheapUpdateEv@Qt_5 5.6.0~beta
 _ZN18qdesigner_internal26QDesignerFormWindowCommand13updateBuddiesEP28QDesignerFormWindowInterfaceRK7QStringS5_@Qt_5 5.6.0~beta
 _ZN18qdesigner_internal26QDesignerFormWindowCommand21selectUnmanagedObjectEP7QObject@Qt_5 5.6.0~beta
 _ZN18qdesigner_internal26QDesignerFormWindowCommand4redoEv@Qt_5 5.6.0~beta
 _ZN18qdesigner_internal26QDesignerFormWindowCommand4undoEv@Qt_5 5.6.0~beta
 _ZN18qdesigner_internal26QDesignerFormWindowCommandC1ERK7QStringP28QDesignerFormWindowInterfaceP12QUndoCommand@Qt_5 5.6.0~beta
 _ZN18qdesigner_internal26QDesignerFormWindowCommandC2ERK7QStringP28QDesignerFormWindowInterfaceP12QUndoCommand@Qt_5 5.6.0~beta
 _ZN18qdesigner_internal26QDesignerFormWindowManager11qt_metacallEN11QMetaObject4CallEiPPv@Qt_5 5.6.0~beta
 _ZN18qdesigner_internal26QDesignerFormWindowManager11qt_metacastEPKc@Qt_5 5.6.0~beta
 _ZN18qdesigner_internal26QDesignerFormWindowManager16showPluginDialogEv@Qt_5 5.6.0~beta
 _ZN18qdesigner_internal26QDesignerFormWindowManager16staticMetaObjectE@Qt_5 5.6.0~beta
 _ZN18qdesigner_internal26QDesignerFormWindowManagerC1EP7QObject@Qt_5 5.6.0~beta
 _ZN18qdesigner_internal26QDesignerFormWindowManagerC2EP7QObject@Qt_5 5.6.0~beta
 _ZN18qdesigner_internal26QDesignerFormWindowManagerD0Ev@Qt_5 5.6.0~beta
 _ZN18qdesigner_internal26QDesignerFormWindowManagerD1Ev@Qt_5 5.6.0~beta
 _ZN18qdesigner_internal26QDesignerFormWindowManagerD2Ev@Qt_5 5.6.0~beta
 _ZN18qdesigner_internal27AddStackedWidgetPageCommand4initEP14QStackedWidget@Qt_5 5.6.0~beta
 _ZN18qdesigner_internal27AddStackedWidgetPageCommand4initEP14QStackedWidgetNS0_13InsertionModeE@Qt_5 5.6.0~beta
 _ZN18qdesigner_internal27AddStackedWidgetPageCommand4redoEv@Qt_5 5.6.0~beta
 _ZN18qdesigner_internal27AddStackedWidgetPageCommand4undoEv@Qt_5 5.6.0~beta
 _ZN18qdesigner_internal27AddStackedWidgetPageCommandC1EP28QDesignerFormWindowInterface@Qt_5 5.6.0~beta
 _ZN18qdesigner_internal27AddStackedWidgetPageCommandC2EP28QDesignerFormWindowInterface@Qt_5 5.6.0~beta
 _ZN18qdesigner_internal27AddStackedWidgetPageCommandD0Ev@Qt_5 5.6.0~beta
 _ZN18qdesigner_internal27AddStackedWidgetPageCommandD1Ev@Qt_5 5.6.0~beta
 _ZN18qdesigner_internal27AddStackedWidgetPageCommandD2Ev@Qt_5 5.6.0~beta
 _ZN18qdesigner_internal28PromoteToCustomWidgetCommand15updateSelectionEv@Qt_5 5.6.0~beta
 _ZN18qdesigner_internal28PromoteToCustomWidgetCommand4initERK5QListI8QPointerI7QWidgetEERK7QString@Qt_5 5.6.0~beta
 _ZN18qdesigner_internal28PromoteToCustomWidgetCommand4redoEv@Qt_5 5.6.0~beta
 _ZN18qdesigner_internal28PromoteToCustomWidgetCommand4undoEv@Qt_5 5.6.0~beta
 _ZN18qdesigner_internal28PromoteToCustomWidgetCommandC1EP28QDesignerFormWindowInterface@Qt_5 5.6.0~beta
 _ZN18qdesigner_internal28PromoteToCustomWidgetCommandC2EP28QDesignerFormWindowInterface@Qt_5 5.6.0~beta
 _ZN18qdesigner_internal28PropertySheetStringListValue8setValueERK11QStringList@Qt_5 5.6.0~beta
 _ZN18qdesigner_internal28PropertySheetStringListValueC1ERK11QStringListbRK7QStringS6_@Qt_5 5.6.0~beta
 _ZN18qdesigner_internal28PropertySheetStringListValueC2ERK11QStringListbRK7QStringS6_@Qt_5 5.6.0~beta
 _ZN18qdesigner_internal28QDesignerWidgetItemInstaller15m_instanceCountE@Qt_5 5.6.0~beta
 _ZN18qdesigner_internal28QDesignerWidgetItemInstallerC1Ev@Qt_5 5.6.0~beta
 _ZN18qdesigner_internal28QDesignerWidgetItemInstallerC2Ev@Qt_5 5.6.0~beta
 _ZN18qdesigner_internal28QDesignerWidgetItemInstallerD1Ev@Qt_5 5.6.0~beta
 _ZN18qdesigner_internal28QDesignerWidgetItemInstallerD2Ev@Qt_5 5.6.0~beta
 _ZN18qdesigner_internal28RemoveDynamicPropertyCommand14setDescriptionEv@Qt_5 5.6.0~beta
 _ZN18qdesigner_internal28RemoveDynamicPropertyCommand4initERK5QListIP7QObjectES3_RK7QString@Qt_5 5.6.0~beta
 _ZN18qdesigner_internal28RemoveDynamicPropertyCommand4redoEv@Qt_5 5.6.0~beta
 _ZN18qdesigner_internal28RemoveDynamicPropertyCommand4undoEv@Qt_5 5.6.0~beta
 _ZN18qdesigner_internal28RemoveDynamicPropertyCommandC1EP28QDesignerFormWindowInterface@Qt_5 5.6.0~beta
 _ZN18qdesigner_internal28RemoveDynamicPropertyCommandC2EP28QDesignerFormWindowInterface@Qt_5 5.6.0~beta
 _ZN18qdesigner_internal29AddContainerWidgetPageCommand4initEP7QWidgetNS_13ContainerTypeENS0_13InsertionModeE@Qt_5 5.6.0~beta
 _ZN18qdesigner_internal29AddContainerWidgetPageCommand4redoEv@Qt_5 5.6.0~beta
 _ZN18qdesigner_internal29AddContainerWidgetPageCommand4undoEv@Qt_5 5.6.0~beta
 _ZN18qdesigner_internal29AddContainerWidgetPageCommandC1EP28QDesignerFormWindowInterface@Qt_5 5.6.0~beta
 _ZN18qdesigner_internal29AddContainerWidgetPageCommandC2EP28QDesignerFormWindowInterface@Qt_5 5.6.0~beta
 _ZN18qdesigner_internal29AddContainerWidgetPageCommandD0Ev@Qt_5 5.6.0~beta
 _ZN18qdesigner_internal29AddContainerWidgetPageCommandD1Ev@Qt_5 5.6.0~beta
 _ZN18qdesigner_internal29AddContainerWidgetPageCommandD2Ev@Qt_5 5.6.0~beta
 _ZN18qdesigner_internal29DemoteFromCustomWidgetCommand4initERK5QListI8QPointerI7QWidgetEE@Qt_5 5.6.0~beta
 _ZN18qdesigner_internal29DemoteFromCustomWidgetCommand4redoEv@Qt_5 5.6.0~beta
 _ZN18qdesigner_internal29DemoteFromCustomWidgetCommand4undoEv@Qt_5 5.6.0~beta
 _ZN18qdesigner_internal29DemoteFromCustomWidgetCommandC1EP28QDesignerFormWindowInterface@Qt_5 5.6.0~beta
 _ZN18qdesigner_internal29DemoteFromCustomWidgetCommandC2EP28QDesignerFormWindowInterface@Qt_5 5.6.0~beta
 _ZN18qdesigner_internal29PropertySheetKeySequenceValue14setStandardKeyERKN12QKeySequence11StandardKeyE@Qt_5 5.6.0~beta
 _ZN18qdesigner_internal29PropertySheetKeySequenceValue8setValueERK12QKeySequence@Qt_5 5.6.0~beta
 _ZN18qdesigner_internal29PropertySheetKeySequenceValueC1ERK12QKeySequencebRK7QStringS6_@Qt_5 5.6.0~beta
 _ZN18qdesigner_internal29PropertySheetKeySequenceValueC1ERKN12QKeySequence11StandardKeyEbRK7QStringS7_@Qt_5 5.6.0~beta
 _ZN18qdesigner_internal29PropertySheetKeySequenceValueC2ERK12QKeySequencebRK7QStringS6_@Qt_5 5.6.0~beta
 _ZN18qdesigner_internal29PropertySheetKeySequenceValueC2ERKN12QKeySequence11StandardKeyEbRK7QStringS7_@Qt_5 5.6.0~beta
 _ZN18qdesigner_internal29PropertySheetTranslatableDataC1EbRK7QStringS3_@Qt_5 5.6.0~beta
 _ZN18qdesigner_internal29PropertySheetTranslatableDataC2EbRK7QStringS3_@Qt_5 5.6.0~beta
 _ZN18qdesigner_internal30DeleteStackedWidgetPageCommand4initEP14QStackedWidget@Qt_5 5.6.0~beta
 _ZN18qdesigner_internal30DeleteStackedWidgetPageCommand4redoEv@Qt_5 5.6.0~beta
 _ZN18qdesigner_internal30DeleteStackedWidgetPageCommand4undoEv@Qt_5 5.6.0~beta
 _ZN18qdesigner_internal30DeleteStackedWidgetPageCommandC1EP28QDesignerFormWindowInterface@Qt_5 5.6.0~beta
 _ZN18qdesigner_internal30DeleteStackedWidgetPageCommandC2EP28QDesignerFormWindowInterface@Qt_5 5.6.0~beta
 _ZN18qdesigner_internal30DeleteStackedWidgetPageCommandD0Ev@Qt_5 5.6.0~beta
 _ZN18qdesigner_internal30DeleteStackedWidgetPageCommandD1Ev@Qt_5 5.6.0~beta
 _ZN18qdesigner_internal30DeleteStackedWidgetPageCommandD2Ev@Qt_5 5.6.0~beta
 _ZN18qdesigner_internal30StyleSheetPropertyEditorDialog11qt_metacallEN11QMetaObject4CallEiPPv@Qt_5 5.6.0~beta
 _ZN18qdesigner_internal30StyleSheetPropertyEditorDialog11qt_metacastEPKc@Qt_5 5.6.0~beta
 _ZN18qdesigner_internal30StyleSheetPropertyEditorDialog15applyStyleSheetEv@Qt_5 5.6.0~beta
 _ZN18qdesigner_internal30StyleSheetPropertyEditorDialog16staticMetaObjectE@Qt_5 5.6.0~beta
 _ZN18qdesigner_internal30StyleSheetPropertyEditorDialogC1EP7QWidgetP28QDesignerFormWindowInterfaceS2_@Qt_5 5.6.0~beta
 _ZN18qdesigner_internal30StyleSheetPropertyEditorDialogC2EP7QWidgetP28QDesignerFormWindowInterfaceS2_@Qt_5 5.6.0~beta
 _ZN18qdesigner_internal31ChangeFormLayoutItemRoleCommand11doOperationENS0_9OperationE@Qt_5 5.6.0~beta
 _ZN18qdesigner_internal31ChangeFormLayoutItemRoleCommand16reverseOperationENS0_9OperationE@Qt_5 5.6.0~beta
 _ZN18qdesigner_internal31ChangeFormLayoutItemRoleCommand18possibleOperationsEP28QDesignerFormEditorInterfaceP7QWidget@Qt_5 5.6.0~beta
 _ZN18qdesigner_internal31ChangeFormLayoutItemRoleCommand19managedFormLayoutOfEP28QDesignerFormEditorInterfaceP7QWidget@Qt_5 5.6.0~beta
 _ZN18qdesigner_internal31ChangeFormLayoutItemRoleCommand4initEP7QWidgetNS0_9OperationE@Qt_5 5.6.0~beta
 _ZN18qdesigner_internal31ChangeFormLayoutItemRoleCommand4redoEv@Qt_5 5.6.0~beta
 _ZN18qdesigner_internal31ChangeFormLayoutItemRoleCommand4undoEv@Qt_5 5.6.0~beta
 _ZN18qdesigner_internal31ChangeFormLayoutItemRoleCommandC1EP28QDesignerFormWindowInterface@Qt_5 5.6.0~beta
 _ZN18qdesigner_internal31ChangeFormLayoutItemRoleCommandC2EP28QDesignerFormWindowInterface@Qt_5 5.6.0~beta
 _ZN18qdesigner_internal32DeleteContainerWidgetPageCommand4initEP7QWidgetNS_13ContainerTypeE@Qt_5 5.6.0~beta
 _ZN18qdesigner_internal32DeleteContainerWidgetPageCommand4redoEv@Qt_5 5.6.0~beta
 _ZN18qdesigner_internal32DeleteContainerWidgetPageCommand4undoEv@Qt_5 5.6.0~beta
 _ZN18qdesigner_internal32DeleteContainerWidgetPageCommandC1EP28QDesignerFormWindowInterface@Qt_5 5.6.0~beta
 _ZN18qdesigner_internal32DeleteContainerWidgetPageCommandC2EP28QDesignerFormWindowInterface@Qt_5 5.6.0~beta
 _ZN18qdesigner_internal32DeleteContainerWidgetPageCommandD0Ev@Qt_5 5.6.0~beta
 _ZN18qdesigner_internal32DeleteContainerWidgetPageCommandD1Ev@Qt_5 5.6.0~beta
 _ZN18qdesigner_internal32DeleteContainerWidgetPageCommandD2Ev@Qt_5 5.6.0~beta
 _ZN18qdesigner_internal4Grid14fromVariantMapERK4QMapI7QString8QVariantE@Qt_5 5.6.0~beta
 _ZN18qdesigner_internal4GridC1Ev@Qt_5 5.6.0~beta
 _ZN18qdesigner_internal4GridC2Ev@Qt_5 5.6.0~beta
 _ZN18qdesigner_internal5qtifyERK7QString@Qt_5 5.6.0~beta
 _ZN18qdesigner_internal6Layout10undoLayoutEv@Qt_5 5.6.0~beta
 _ZN18qdesigner_internal6Layout11breakLayoutEv@Qt_5 5.6.0~beta
 _ZN18qdesigner_internal6Layout11qt_metacallEN11QMetaObject4CallEiPPv@Qt_5 5.6.0~beta
 _ZN18qdesigner_internal6Layout11qt_metacastEPKc@Qt_5 5.6.0~beta
 _ZN18qdesigner_internal6Layout12createLayoutERK5QListIP7QWidgetES3_P28QDesignerFormWindowInterfaceS3_NS_10LayoutInfo4TypeE@Qt_5 5.6.0~beta
 _ZN18qdesigner_internal6Layout12createLayoutEi@Qt_5 5.6.0~beta
 _ZN18qdesigner_internal6Layout12finishLayoutEbP7QLayout@Qt_5 5.6.0~beta
 _ZN18qdesigner_internal6Layout13prepareLayoutERbS1_@Qt_5 5.6.0~beta
 _ZN18qdesigner_internal6Layout15widgetDestroyedEv@Qt_5 5.6.0~beta
 _ZN18qdesigner_internal6Layout16staticMetaObjectE@Qt_5 5.6.0~beta
 _ZN18qdesigner_internal6Layout20reparentToLayoutBaseEP7QWidget@Qt_5 5.6.0~beta
 _ZN18qdesigner_internal6Layout5setupEv@Qt_5 5.6.0~beta
 _ZN18qdesigner_internal6LayoutC1ERK5QListIP7QWidgetES3_P28QDesignerFormWindowInterfaceS3_NS_10LayoutInfo4TypeE@Qt_5 5.6.0~beta
 _ZN18qdesigner_internal6LayoutC2ERK5QListIP7QWidgetES3_P28QDesignerFormWindowInterfaceS3_NS_10LayoutInfo4TypeE@Qt_5 5.6.0~beta
 _ZN18qdesigner_internal6LayoutD0Ev@Qt_5 5.6.0~beta
 _ZN18qdesigner_internal6LayoutD1Ev@Qt_5 5.6.0~beta
 _ZN18qdesigner_internal6LayoutD2Ev@Qt_5 5.6.0~beta
 _ZN18qdesigner_internal6runUICERK7QStringR10QByteArrayRS0_@Qt_5 5.6.0~beta
 _ZN18qdesigner_internal8ItemDataC1EPK15QListWidgetItemb@Qt_5 5.6.0~beta
 _ZN18qdesigner_internal8ItemDataC1EPK15QTreeWidgetItemi@Qt_5 5.6.0~beta
 _ZN18qdesigner_internal8ItemDataC1EPK16QTableWidgetItemb@Qt_5 5.6.0~beta
 _ZN18qdesigner_internal8ItemDataC2EPK15QListWidgetItemb@Qt_5 5.6.0~beta
 _ZN18qdesigner_internal8ItemDataC2EPK15QTreeWidgetItemi@Qt_5 5.6.0~beta
 _ZN18qdesigner_internal8ItemDataC2EPK16QTableWidgetItemb@Qt_5 5.6.0~beta
 _ZN18qdesigner_internal8ZoomMenu10addActionsEP5QMenu@Qt_5 5.6.0~beta
 _ZN18qdesigner_internal8ZoomMenu10zoomValuesEv@Qt_5 5.6.0~beta
 _ZN18qdesigner_internal8ZoomMenu11qt_metacallEN11QMetaObject4CallEiPPv@Qt_5 5.6.0~beta
 _ZN18qdesigner_internal8ZoomMenu11qt_metacastEPKc@Qt_5 5.6.0~beta
 _ZN18qdesigner_internal8ZoomMenu11zoomChangedEi@Qt_5 5.6.0~beta
 _ZN18qdesigner_internal8ZoomMenu12slotZoomMenuEP7QAction@Qt_5 5.6.0~beta
 _ZN18qdesigner_internal8ZoomMenu16staticMetaObjectE@Qt_5 5.6.0~beta
 _ZN18qdesigner_internal8ZoomMenu6zoomOfEPK7QAction@Qt_5 5.6.0~beta
 _ZN18qdesigner_internal8ZoomMenu7setZoomEi@Qt_5 5.6.0~beta
 _ZN18qdesigner_internal8ZoomMenuC1EP7QObject@Qt_5 5.6.0~beta
 _ZN18qdesigner_internal8ZoomMenuC2EP7QObject@Qt_5 5.6.0~beta
 _ZN18qdesigner_internal8ZoomView11qt_metacallEN11QMetaObject4CallEiPPv@Qt_5 5.6.0~beta
 _ZN18qdesigner_internal8ZoomView11qt_metacastEPKc@Qt_5 5.6.0~beta
 _ZN18qdesigner_internal8ZoomView14scrollToOriginEv@Qt_5 5.6.0~beta
 _ZN18qdesigner_internal8ZoomView15showContextMenuERK6QPoint@Qt_5 5.6.0~beta
 _ZN18qdesigner_internal8ZoomView16contextMenuEventEP17QContextMenuEvent@Qt_5 5.6.0~beta
 _ZN18qdesigner_internal8ZoomView16staticMetaObjectE@Qt_5 5.6.0~beta
 _ZN18qdesigner_internal8ZoomView17setScrollPositionERK6QPoint@Qt_5 5.6.0~beta
 _ZN18qdesigner_internal8ZoomView25setZoomContextMenuEnabledEb@Qt_5 5.6.0~beta
 _ZN18qdesigner_internal8ZoomView7setZoomEi@Qt_5 5.6.0~beta
 _ZN18qdesigner_internal8ZoomView8zoomMenuEv@Qt_5 5.6.0~beta
 _ZN18qdesigner_internal8ZoomView9applyZoomEv@Qt_5 5.6.0~beta
 _ZN18qdesigner_internal8ZoomViewC1EP7QWidget@Qt_5 5.6.0~beta
 _ZN18qdesigner_internal8ZoomViewC2EP7QWidget@Qt_5 5.6.0~beta
 _ZN18qdesigner_internal9DialogGui15getOpenFileNameEP7QWidgetRK7QStringS5_S5_PS3_6QFlagsIN11QFileDialog6OptionEE@Qt_5 5.6.0~beta
 _ZN18qdesigner_internal9DialogGui15getSaveFileNameEP7QWidgetRK7QStringS5_S5_PS3_6QFlagsIN11QFileDialog6OptionEE@Qt_5 5.6.0~beta
 _ZN18qdesigner_internal9DialogGui16getOpenFileNamesEP7QWidgetRK7QStringS5_S5_PS3_6QFlagsIN11QFileDialog6OptionEE@Qt_5 5.6.0~beta
 _ZN18qdesigner_internal9DialogGui18ensureIconProviderEv@Qt_5 5.6.0~beta
 _ZN18qdesigner_internal9DialogGui20getExistingDirectoryEP7QWidgetRK7QStringS5_6QFlagsIN11QFileDialog6OptionEE@Qt_5 5.6.0~beta
 _ZN18qdesigner_internal9DialogGui20getOpenImageFileNameEP7QWidgetRK7QStringS5_S5_PS3_6QFlagsIN11QFileDialog6OptionEE@Qt_5 5.6.0~beta
 _ZN18qdesigner_internal9DialogGui21getOpenImageFileNamesEP7QWidgetRK7QStringS5_S5_PS3_6QFlagsIN11QFileDialog6OptionEE@Qt_5 5.6.0~beta
 _ZN18qdesigner_internal9DialogGui25initializeImageFileDialogER11QFileDialog6QFlagsINS1_6OptionEENS1_8FileModeE@Qt_5 5.6.0~beta
 _ZN18qdesigner_internal9DialogGui7messageEP7QWidgetN27QDesignerDialogGuiInterface7MessageEN11QMessageBox4IconERK7QStringS9_6QFlagsINS5_14StandardButtonEESB_@Qt_5 5.6.0~beta
 _ZN18qdesigner_internal9DialogGui7messageEP7QWidgetN27QDesignerDialogGuiInterface7MessageEN11QMessageBox4IconERK7QStringS9_S9_6QFlagsINS5_14StandardButtonEESB_@Qt_5 5.6.0~beta
 _ZN18qdesigner_internal9DialogGui7messageEP7QWidgetN27QDesignerDialogGuiInterface7MessageEN11QMessageBox4IconERK7QStringS9_S9_S9_6QFlagsINS5_14StandardButtonEESB_@Qt_5 5.6.0~beta
 _ZN18qdesigner_internal9DialogGuiC1Ev@Qt_5 5.6.0~beta
 _ZN18qdesigner_internal9DialogGuiC2Ev@Qt_5 5.6.0~beta
 _ZN18qdesigner_internal9DialogGuiD0Ev@Qt_5 5.6.0~beta
 _ZN18qdesigner_internal9DialogGuiD1Ev@Qt_5 5.6.0~beta
 _ZN18qdesigner_internal9DialogGuiD2Ev@Qt_5 5.6.0~beta
 _ZN18qdesigner_internal9GridPanel10setCheckedEb@Qt_5 5.6.0~beta
 _ZN18qdesigner_internal9GridPanel11qt_metacallEN11QMetaObject4CallEiPPv@Qt_5 5.6.0~beta
 _ZN18qdesigner_internal9GridPanel11qt_metacastEPKc@Qt_5 5.6.0~beta
 _ZN18qdesigner_internal9GridPanel12setCheckableEb@Qt_5 5.6.0~beta
 _ZN18qdesigner_internal9GridPanel16staticMetaObjectE@Qt_5 5.6.0~beta
 _ZN18qdesigner_internal9GridPanel21setResetButtonVisibleEb@Qt_5 5.6.0~beta
 _ZN18qdesigner_internal9GridPanel5resetEv@Qt_5 5.6.0~beta
 _ZN18qdesigner_internal9GridPanel7setGridERKNS_4GridE@Qt_5 5.6.0~beta
 _ZN18qdesigner_internal9GridPanel8setTitleERK7QString@Qt_5 5.6.0~beta
 _ZN18qdesigner_internal9GridPanelC1EP7QWidget@Qt_5 5.6.0~beta
 _ZN18qdesigner_internal9GridPanelC2EP7QWidget@Qt_5 5.6.0~beta
 _ZN18qdesigner_internal9GridPanelD0Ev@Qt_5 5.6.0~beta
 _ZN18qdesigner_internal9GridPanelD1Ev@Qt_5 5.6.0~beta
 _ZN18qdesigner_internal9GridPanelD2Ev@Qt_5 5.6.0~beta
 _ZN18qdesigner_internal9MorphMenu11qt_metacallEN11QMetaObject4CallEiPPv@Qt_5 5.6.0~beta
 _ZN18qdesigner_internal9MorphMenu11qt_metacastEPKc@Qt_5 5.6.0~beta
 _ZN18qdesigner_internal9MorphMenu12populateMenuEP7QWidgetP28QDesignerFormWindowInterface@Qt_5 5.6.0~beta
 _ZN18qdesigner_internal9MorphMenu16staticMetaObjectE@Qt_5 5.6.0~beta
 _ZN18qdesigner_internal9MorphMenu8populateEP7QWidgetP28QDesignerFormWindowInterfaceR5QListIP7QActionE@Qt_5 5.6.0~beta
 _ZN18qdesigner_internal9MorphMenu8populateEP7QWidgetP28QDesignerFormWindowInterfaceR5QMenu@Qt_5 5.6.0~beta
 _ZN18qdesigner_internal9MorphMenu9slotMorphERK7QString@Qt_5 5.6.0~beta
 _ZN18qdesigner_internal9MorphMenuC1EP7QObject@Qt_5 5.6.0~beta
 _ZN18qdesigner_internal9MorphMenuC2EP7QObject@Qt_5 5.6.0~beta
 _ZN18qdesigner_internal9Selection5clearEv@Qt_5 5.6.0~beta
 _ZN18qdesigner_internal9emptyIconEv@Qt_5 5.6.0~beta
 _ZN18qdesigner_internaleqERKNS_20PreviewConfigurationES2_@Qt_5 5.6.0~beta
 _ZN18qdesigner_internallsE6QDebugRKNS_22PropertySheetIconValueE@Qt_5 5.6.0~beta
 _ZN18qdesigner_internalltERKNS_20PreviewConfigurationES2_@Qt_5 5.6.0~beta
 _ZN18qdesigner_internalneERKNS_20PreviewConfigurationES2_@Qt_5 5.6.0~beta
 _ZN19QDesignerDockWidget11qt_metacallEN11QMetaObject4CallEiPPv@Qt_5 5.6.0~beta
 _ZN19QDesignerDockWidget11qt_metacastEPKc@Qt_5 5.6.0~beta
 _ZN19QDesignerDockWidget16staticMetaObjectE@Qt_5 5.6.0~beta
 _ZN19QDesignerDockWidget17setDockWidgetAreaEN2Qt14DockWidgetAreaE@Qt_5 5.6.0~beta
 _ZN19QDesignerDockWidget9setDockedEb@Qt_5 5.6.0~beta
 _ZN19QDesignerDockWidgetC1EP7QWidget@Qt_5 5.6.0~beta
 _ZN19QDesignerDockWidgetC2EP7QWidget@Qt_5 5.6.0~beta
 _ZN19QDesignerDockWidgetD0Ev@Qt_5 5.6.0~beta
 _ZN19QDesignerDockWidgetD1Ev@Qt_5 5.6.0~beta
 _ZN19QDesignerDockWidgetD2Ev@Qt_5 5.6.0~beta
 _ZN19QFormBuilderStrings8instanceEv@Qt_5 5.6.0~beta
 _ZN19QFormBuilderStringsC1Ev@Qt_5 5.6.0~beta
 _ZN19QFormBuilderStringsC2Ev@Qt_5 5.6.0~beta
 _ZN20QAbstractFormBuilder10initializeEPK5DomUI@Qt_5 5.6.0~beta
 _ZN20QAbstractFormBuilder10layoutInfoEP9DomLayoutP7QObjectPiS4_@Qt_5 5.6.0~beta
 _ZN20QAbstractFormBuilder10setupBrushEP8DomBrush@Qt_5 5.6.0~beta
 _ZN20QAbstractFormBuilder11propertyMapERK5QListIP11DomPropertyE@Qt_5 5.6.0~beta
 _ZN20QAbstractFormBuilder12createActionEP7QObjectRK7QString@Qt_5 5.6.0~beta
 _ZN20QAbstractFormBuilder12createLayoutERK7QStringP7QObjectS2_@Qt_5 5.6.0~beta
 _ZN20QAbstractFormBuilder12createWidgetERK7QStringP7QWidgetS2_@Qt_5 5.6.0~beta
 _ZN20QAbstractFormBuilder12saveTabStopsEv@Qt_5 5.6.0~beta
 _ZN20QAbstractFormBuilder13addMenuActionEP7QAction@Qt_5 5.6.0~beta
 _ZN20QAbstractFormBuilder13applyTabStopsEP7QWidgetP11DomTabStops@Qt_5 5.6.0~beta
 _ZN20QAbstractFormBuilder13loadExtraInfoEP9DomWidgetP7QWidgetS3_@Qt_5 5.6.0~beta
 _ZN20QAbstractFormBuilder13saveExtraInfoEP7QWidgetP9DomWidgetS3_@Qt_5 5.6.0~beta
 _ZN20QAbstractFormBuilder13saveResourcesEv@Qt_5 5.6.0~beta
 _ZN20QAbstractFormBuilder14createPropertyEP7QObjectRK7QStringRK8QVariant@Qt_5 5.6.0~beta
 _ZN20QAbstractFormBuilder14saveColorGroupERK8QPalette@Qt_5 5.6.0~beta
 _ZN20QAbstractFormBuilder14setTextBuilderEP12QTextBuilder@Qt_5 5.6.0~beta
 _ZN20QAbstractFormBuilder15applyPropertiesEP7QObjectRK5QListIP11DomPropertyE@Qt_5 5.6.0~beta
 _ZN20QAbstractFormBuilder15saveConnectionsEv@Qt_5 5.6.0~beta
 _ZN20QAbstractFormBuilder15setupColorGroupER8QPaletteNS0_10ColorGroupEP13DomColorGroup@Qt_5 5.6.0~beta
 _ZN20QAbstractFormBuilder16saveButtonGroupsEPK7QWidget@Qt_5 5.6.0~beta
 _ZN20QAbstractFormBuilder17computePropertiesEP7QObject@Qt_5 5.6.0~beta
 _ZN20QAbstractFormBuilder17createActionGroupEP7QObjectRK7QString@Qt_5 5.6.0~beta
 _ZN20QAbstractFormBuilder17domPropertyToIconEPK11DomProperty@Qt_5 5.6.0~beta
 _ZN20QAbstractFormBuilder17domPropertyToIconEPK17DomResourcePixmap@Qt_5 5.6.0~beta
 _ZN20QAbstractFormBuilder17saveCustomWidgetsEv@Qt_5 5.6.0~beta
 _ZN20QAbstractFormBuilder18createActionRefDomEP7QAction@Qt_5 5.6.0~beta
 _ZN20QAbstractFormBuilder18setResourceBuilderEP16QResourceBuilder@Qt_5 5.6.0~beta
 _ZN20QAbstractFormBuilder19domPropertyToPixmapEPK11DomProperty@Qt_5 5.6.0~beta
 _ZN20QAbstractFormBuilder19domPropertyToPixmapEPK17DomResourcePixmap@Qt_5 5.6.0~beta
 _ZN20QAbstractFormBuilder19loadButtonExtraInfoEPK9DomWidgetP15QAbstractButtonP7QWidget@Qt_5 5.6.0~beta
 _ZN20QAbstractFormBuilder19saveButtonExtraInfoEPK15QAbstractButtonP9DomWidgetS4_@Qt_5 5.6.0~beta
 _ZN20QAbstractFormBuilder19setWorkingDirectoryERK4QDir@Qt_5 5.6.0~beta
 _ZN20QAbstractFormBuilder19toolBarAreaMetaEnumEv@Qt_5 5.6.0~beta
 _ZN20QAbstractFormBuilder21loadComboBoxExtraInfoEP9DomWidgetP9QComboBoxP7QWidget@Qt_5 5.6.0~beta
 _ZN20QAbstractFormBuilder21loadItemViewExtraInfoEP9DomWidgetP17QAbstractItemViewP7QWidget@Qt_5 5.6.0~beta
 _ZN20QAbstractFormBuilder21saveComboBoxExtraInfoEP9QComboBoxP9DomWidgetS3_@Qt_5 5.6.0~beta
 _ZN20QAbstractFormBuilder21saveItemViewExtraInfoEPK17QAbstractItemViewP9DomWidgetS4_@Qt_5 5.6.0~beta
 _ZN20QAbstractFormBuilder23applyPropertyInternallyEP7QObjectRK7QStringRK8QVariant@Qt_5 5.6.0~beta
 _ZN20QAbstractFormBuilder23loadListWidgetExtraInfoEP9DomWidgetP11QListWidgetP7QWidget@Qt_5 5.6.0~beta
 _ZN20QAbstractFormBuilder23loadTreeWidgetExtraInfoEP9DomWidgetP11QTreeWidgetP7QWidget@Qt_5 5.6.0~beta
 _ZN20QAbstractFormBuilder23saveListWidgetExtraInfoEP11QListWidgetP9DomWidgetS3_@Qt_5 5.6.0~beta
 _ZN20QAbstractFormBuilder23saveTreeWidgetExtraInfoEP11QTreeWidgetP9DomWidgetS3_@Qt_5 5.6.0~beta
 _ZN20QAbstractFormBuilder24loadTableWidgetExtraInfoEP9DomWidgetP12QTableWidgetP7QWidget@Qt_5 5.6.0~beta
 _ZN20QAbstractFormBuilder24saveTableWidgetExtraInfoEP12QTableWidgetP9DomWidgetS3_@Qt_5 5.6.0~beta
 _ZN20QAbstractFormBuilder28toolbarAreaFromDOMAttributesERK5QHashI7QStringP11DomPropertyE@Qt_5 5.6.0~beta
 _ZN20QAbstractFormBuilder4loadEP9QIODeviceP7QWidget@Qt_5 5.6.0~beta
 _ZN20QAbstractFormBuilder4saveEP9QIODeviceP7QWidget@Qt_5 5.6.0~beta
 _ZN20QAbstractFormBuilder5resetEv@Qt_5 5.6.0~beta
 _ZN20QAbstractFormBuilder6createEP13DomLayoutItemP7QLayoutP7QWidget@Qt_5 5.6.0~beta
 _ZN20QAbstractFormBuilder6createEP14DomActionGroupP7QObject@Qt_5 5.6.0~beta
 _ZN20QAbstractFormBuilder6createEP5DomUIP7QWidget@Qt_5 5.6.0~beta
 _ZN20QAbstractFormBuilder6createEP9DomActionP7QObject@Qt_5 5.6.0~beta
 _ZN20QAbstractFormBuilder6createEP9DomLayoutP7QLayoutP7QWidget@Qt_5 5.6.0~beta
 _ZN20QAbstractFormBuilder6createEP9DomWidgetP7QWidget@Qt_5 5.6.0~beta
 _ZN20QAbstractFormBuilder7addItemEP13DomLayoutItemP11QLayoutItemP7QLayout@Qt_5 5.6.0~beta
 _ZN20QAbstractFormBuilder7addItemEP9DomWidgetP7QWidgetS3_@Qt_5 5.6.0~beta
 _ZN20QAbstractFormBuilder7saveDomEP5DomUIP7QWidget@Qt_5 5.6.0~beta
 _ZN20QAbstractFormBuilder8toStringEPK9DomString@Qt_5 5.6.0~beta
 _ZN20QAbstractFormBuilder9createDomEP11QLayoutItemP9DomLayoutP9DomWidget@Qt_5 5.6.0~beta
 _ZN20QAbstractFormBuilder9createDomEP11QSpacerItemP9DomLayoutP9DomWidget@Qt_5 5.6.0~beta
 _ZN20QAbstractFormBuilder9createDomEP12QActionGroup@Qt_5 5.6.0~beta
 _ZN20QAbstractFormBuilder9createDomEP12QButtonGroup@Qt_5 5.6.0~beta
 _ZN20QAbstractFormBuilder9createDomEP7QAction@Qt_5 5.6.0~beta
 _ZN20QAbstractFormBuilder9createDomEP7QLayoutP9DomLayoutP9DomWidget@Qt_5 5.6.0~beta
 _ZN20QAbstractFormBuilder9createDomEP7QWidgetP9DomWidgetb@Qt_5 5.6.0~beta
 _ZN20QAbstractFormBuilder9domPixmapEPK11DomProperty@Qt_5 5.6.0~beta
 _ZN20QAbstractFormBuilder9saveBrushERK6QBrush@Qt_5 5.6.0~beta
 _ZN20QAbstractFormBuilder9toVariantEPK11QMetaObjectP11DomProperty@Qt_5 5.6.0~beta
 _ZN20QAbstractFormBuilderC1Ev@Qt_5 5.6.0~beta
 _ZN20QAbstractFormBuilderC2Ev@Qt_5 5.6.0~beta
 _ZN20QAbstractFormBuilderD0Ev@Qt_5 5.6.0~beta
 _ZN20QAbstractFormBuilderD1Ev@Qt_5 5.6.0~beta
 _ZN20QAbstractFormBuilderD2Ev@Qt_5 5.6.0~beta
 _ZN20QDesignerIntegration11qt_metacallEN11QMetaObject4CallEiPPv@Qt_5 5.6.0~beta
 _ZN20QDesignerIntegration11qt_metacastEPKc@Qt_5 5.6.0~beta
 _ZN20QDesignerIntegration11setFeaturesE6QFlagsIN29QDesignerIntegrationInterface11FeatureFlagEE@Qt_5 5.6.0~beta
 _ZN20QDesignerIntegration13resetPropertyERK7QString@Qt_5 5.6.0~beta
 _ZN20QDesignerIntegration14updatePropertyERK7QStringRK8QVariant@Qt_5 5.6.0~beta
 _ZN20QDesignerIntegration14updatePropertyERK7QStringRK8QVariantb@Qt_5 5.6.0~beta
 _ZN20QDesignerIntegration15setHeaderSuffixERK7QString@Qt_5 5.6.0~beta
 _ZN20QDesignerIntegration15setupFormWindowEP28QDesignerFormWindowInterface@Qt_5 5.6.0~beta
 _ZN20QDesignerIntegration15updateSelectionEv@Qt_5 5.6.0~beta
 _ZN20QDesignerIntegration16staticMetaObjectE@Qt_5 5.6.0~beta
 _ZN20QDesignerIntegration17initializePluginsEP28QDesignerFormEditorInterface@Qt_5 5.6.0~beta
 _ZN20QDesignerIntegration18addDynamicPropertyERK7QStringRK8QVariant@Qt_5 5.6.0~beta
 _ZN20QDesignerIntegration18setHeaderLowercaseEb@Qt_5 5.6.0~beta
 _ZN20QDesignerIntegration21createResourceBrowserEP7QWidget@Qt_5 5.6.0~beta
 _ZN20QDesignerIntegration21removeDynamicPropertyERK7QString@Qt_5 5.6.0~beta
 _ZN20QDesignerIntegration22updateActiveFormWindowEP28QDesignerFormWindowInterface@Qt_5 5.6.0~beta
 _ZN20QDesignerIntegration25updateCustomWidgetPluginsEv@Qt_5 5.6.0~beta
 _ZN20QDesignerIntegration31setResourceFileWatcherBehaviourEN29QDesignerIntegrationInterface28ResourceFileWatcherBehaviourE@Qt_5 5.6.0~beta
 _ZN20QDesignerIntegrationC1EP28QDesignerFormEditorInterfaceP7QObject@Qt_5 5.6.0~beta
 _ZN20QDesignerIntegrationC2EP28QDesignerFormEditorInterfaceP7QObject@Qt_5 5.6.0~beta
 _ZN20QDesignerIntegrationD0Ev@Qt_5 5.6.0~beta
 _ZN20QDesignerIntegrationD1Ev@Qt_5 5.6.0~beta
 _ZN20QDesignerIntegrationD2Ev@Qt_5 5.6.0~beta
 _ZN20QDesignerMemberSheet10setVisibleEib@Qt_5 5.6.0~beta
 _ZN20QDesignerMemberSheet11qt_metacallEN11QMetaObject4CallEiPPv@Qt_5 5.6.0~beta
 _ZN20QDesignerMemberSheet11qt_metacastEPKc@Qt_5 5.6.0~beta
 _ZN20QDesignerMemberSheet14setMemberGroupEiRK7QString@Qt_5 5.6.0~beta
 _ZN20QDesignerMemberSheet16staticMetaObjectE@Qt_5 5.6.0~beta
 _ZN20QDesignerMemberSheet17signalMatchesSlotERK7QStringS2_@Qt_5 5.6.0~beta
 _ZN20QDesignerMemberSheetC1EP7QObjectS1_@Qt_5 5.6.0~beta
 _ZN20QDesignerMemberSheetC2EP7QObjectS1_@Qt_5 5.6.0~beta
 _ZN20QDesignerMemberSheetD0Ev@Qt_5 5.6.0~beta
 _ZN20QDesignerMemberSheetD1Ev@Qt_5 5.6.0~beta
 _ZN20QDesignerMemberSheetD2Ev@Qt_5 5.6.0~beta
 _ZN20QtResourceViewDialog11qt_metacallEN11QMetaObject4CallEiPPv@Qt_5 5.6.0~beta
 _ZN20QtResourceViewDialog11qt_metacastEPKc@Qt_5 5.6.0~beta
 _ZN20QtResourceViewDialog14selectResourceERK7QString@Qt_5 5.6.0~beta
 _ZN20QtResourceViewDialog16staticMetaObjectE@Qt_5 5.6.0~beta
 _ZN20QtResourceViewDialog25setResourceEditingEnabledEb@Qt_5 5.6.0~beta
 _ZN20QtResourceViewDialogC1EP28QDesignerFormEditorInterfaceP7QWidget@Qt_5 5.6.0~beta
 _ZN20QtResourceViewDialogC2EP28QDesignerFormEditorInterfaceP7QWidget@Qt_5 5.6.0~beta
 _ZN20QtResourceViewDialogD0Ev@Qt_5 5.6.0~beta
 _ZN20QtResourceViewDialogD1Ev@Qt_5 5.6.0~beta
 _ZN20QtResourceViewDialogD2Ev@Qt_5 5.6.0~beta
 _ZN21QTabWidgetEventFilter11eventFilterEP7QObjectP6QEvent@Qt_5 5.6.0~beta
 _ZN21QTabWidgetEventFilter11qt_metacallEN11QMetaObject4CallEiPPv@Qt_5 5.6.0~beta
 _ZN21QTabWidgetEventFilter11qt_metacastEPKc@Qt_5 5.6.0~beta
 _ZN21QTabWidgetEventFilter12addPageAfterEv@Qt_5 5.6.0~beta
 _ZN21QTabWidgetEventFilter13eventFilterOfEPK10QTabWidget@Qt_5 5.6.0~beta
 _ZN21QTabWidgetEventFilter16staticMetaObjectE@Qt_5 5.6.0~beta
 _ZN21QTabWidgetEventFilter17removeCurrentPageEv@Qt_5 5.6.0~beta
 _ZN21QTabWidgetEventFilter21addContextMenuActionsEP5QMenu@Qt_5 5.6.0~beta
 _ZN21QTabWidgetEventFilter30addTabWidgetContextMenuActionsEPK10QTabWidgetP5QMenu@Qt_5 5.6.0~beta
 _ZN21QTabWidgetEventFilter7addPageEv@Qt_5 5.6.0~beta
 _ZN21QTabWidgetEventFilter7installEP10QTabWidget@Qt_5 5.6.0~beta
 _ZN21QTabWidgetEventFilterC1EP10QTabWidget@Qt_5 5.6.0~beta
 _ZN21QTabWidgetEventFilterC2EP10QTabWidget@Qt_5 5.6.0~beta
 _ZN21QTabWidgetEventFilterD0Ev@Qt_5 5.6.0~beta
 _ZN21QTabWidgetEventFilterD1Ev@Qt_5 5.6.0~beta
 _ZN21QTabWidgetEventFilterD2Ev@Qt_5 5.6.0~beta
 _ZN22QDesignerPluginManager11findPluginsERK7QString@Qt_5 5.6.0~beta
 _ZN22QDesignerPluginManager11qt_metacallEN11QMetaObject4CallEiPPv@Qt_5 5.6.0~beta
 _ZN22QDesignerPluginManager11qt_metacastEPKc@Qt_5 5.6.0~beta
 _ZN22QDesignerPluginManager12registerPathERK7QString@Qt_5 5.6.0~beta
 _ZN22QDesignerPluginManager12syncSettingsEv@Qt_5 5.6.0~beta
 _ZN22QDesignerPluginManager14registerPluginERK7QString@Qt_5 5.6.0~beta
 _ZN22QDesignerPluginManager14setPluginPathsERK11QStringList@Qt_5 5.6.0~beta
 _ZN22QDesignerPluginManager16staticMetaObjectE@Qt_5 5.6.0~beta
 _ZN22QDesignerPluginManager17ensureInitializedEv@Qt_5 5.6.0~beta
 _ZN22QDesignerPluginManager18defaultPluginPathsEv@Qt_5 5.6.0~beta
 _ZN22QDesignerPluginManager18registerNewPluginsEv@Qt_5 5.6.0~beta
 _ZN22QDesignerPluginManager18setDisabledPluginsERK11QStringList@Qt_5 5.6.0~beta
 _ZN22QDesignerPluginManager23updateRegisteredPluginsEv@Qt_5 5.6.0~beta
 _ZN22QDesignerPluginManagerC1EP28QDesignerFormEditorInterface@Qt_5 5.6.0~beta
 _ZN22QDesignerPluginManagerC2EP28QDesignerFormEditorInterface@Qt_5 5.6.0~beta
 _ZN22QDesignerPluginManagerD0Ev@Qt_5 5.6.0~beta
 _ZN22QDesignerPluginManagerD1Ev@Qt_5 5.6.0~beta
 _ZN22QDesignerPluginManagerD2Ev@Qt_5 5.6.0~beta
 _ZN22QDesignerPropertySheet10setChangedEib@Qt_5 5.6.0~beta
 _ZN22QDesignerPropertySheet10setVisibleEib@Qt_5 5.6.0~beta
 _ZN22QDesignerPropertySheet11qt_metacallEN11QMetaObject4CallEiPPv@Qt_5 5.6.0~beta
 _ZN22QDesignerPropertySheet11qt_metacastEPKc@Qt_5 5.6.0~beta
 _ZN22QDesignerPropertySheet11setPropertyEiRK8QVariant@Qt_5 5.6.0~beta
 _ZN22QDesignerPropertySheet12setAttributeEib@Qt_5 5.6.0~beta
 _ZN22QDesignerPropertySheet12setIconCacheEPN18qdesigner_internal17DesignerIconCacheE@Qt_5 5.6.0~beta
 _ZN22QDesignerPropertySheet14setPixmapCacheEPN18qdesigner_internal19DesignerPixmapCacheE@Qt_5 5.6.0~beta
 _ZN22QDesignerPropertySheet15setFakePropertyEiRK8QVariant@Qt_5 5.6.0~beta
 _ZN22QDesignerPropertySheet16setPropertyGroupEiRK7QString@Qt_5 5.6.0~beta
 _ZN22QDesignerPropertySheet16staticMetaObjectE@Qt_5 5.6.0~beta
 _ZN22QDesignerPropertySheet18addDynamicPropertyERK7QStringRK8QVariant@Qt_5 5.6.0~beta
 _ZN22QDesignerPropertySheet18createFakePropertyERK7QStringRK8QVariant@Qt_5 5.6.0~beta
 _ZN22QDesignerPropertySheet19clearFakePropertiesEv@Qt_5 5.6.0~beta
 _ZN22QDesignerPropertySheet20objectTypeFromObjectEPK7QObject@Qt_5 5.6.0~beta
 _ZN22QDesignerPropertySheet20propertyTypeFromNameERK7QString@Qt_5 5.6.0~beta
 _ZN22QDesignerPropertySheet21removeDynamicPropertyEi@Qt_5 5.6.0~beta
 _ZN22QDesignerPropertySheet32internalDynamicPropertiesEnabledEv@Qt_5 5.6.0~beta
 _ZN22QDesignerPropertySheet35setInternalDynamicPropertiesEnabledEb@Qt_5 5.6.0~beta
 _ZN22QDesignerPropertySheet5resetEi@Qt_5 5.6.0~beta
 _ZN22QDesignerPropertySheetC1EP7QObjectS1_@Qt_5 5.6.0~beta
 _ZN22QDesignerPropertySheetC2EP7QObjectS1_@Qt_5 5.6.0~beta
 _ZN22QDesignerPropertySheetD0Ev@Qt_5 5.6.0~beta
 _ZN22QDesignerPropertySheetD1Ev@Qt_5 5.6.0~beta
 _ZN22QDesignerPropertySheetD2Ev@Qt_5 5.6.0~beta
 _ZN23QTabWidgetPropertySheet11setPropertyEiRK8QVariant@Qt_5 5.6.0~beta
 _ZN23QTabWidgetPropertySheet13checkPropertyERK7QString@Qt_5 5.6.0~beta
 _ZN23QTabWidgetPropertySheet25tabWidgetPropertyFromNameERK7QString@Qt_5 5.6.0~beta
 _ZN23QTabWidgetPropertySheet5resetEi@Qt_5 5.6.0~beta
 _ZN23QTabWidgetPropertySheetC1EP10QTabWidgetP7QObject@Qt_5 5.6.0~beta
 _ZN23QTabWidgetPropertySheetC2EP10QTabWidgetP7QObject@Qt_5 5.6.0~beta
 _ZN25DomPropertySpecifications17setElementTooltipERK5QListIP18DomPropertyToolTipE@Qt_5 5.6.0~beta
 _ZN25DomPropertySpecifications37setElementStringpropertyspecificationERK5QListIP30DomStringPropertySpecificationE@Qt_5 5.6.0~beta
 _ZN25DomPropertySpecifications4readER16QXmlStreamReader@Qt_5 5.6.0~beta
 _ZN25DomPropertySpecifications5clearEb@Qt_5 5.6.0~beta
 _ZN25DomPropertySpecificationsC1Ev@Qt_5 5.6.0~beta
 _ZN25DomPropertySpecificationsC2Ev@Qt_5 5.6.0~beta
 _ZN25DomPropertySpecificationsD1Ev@Qt_5 5.6.0~beta
 _ZN25DomPropertySpecificationsD2Ev@Qt_5 5.6.0~beta
 _ZN25QDesignerCustomWidgetData8parseXmlERK7QStringS2_PS0_@Qt_5 5.6.0~beta
 _ZN25QDesignerCustomWidgetDataC1ERK7QString@Qt_5 5.6.0~beta
 _ZN25QDesignerCustomWidgetDataC1ERKS_@Qt_5 5.6.0~beta
 _ZN25QDesignerCustomWidgetDataC2ERK7QString@Qt_5 5.6.0~beta
 _ZN25QDesignerCustomWidgetDataC2ERKS_@Qt_5 5.6.0~beta
 _ZN25QDesignerCustomWidgetDataD1Ev@Qt_5 5.6.0~beta
 _ZN25QDesignerCustomWidgetDataD2Ev@Qt_5 5.6.0~beta
 _ZN25QDesignerCustomWidgetDataaSERKS_@Qt_5 5.6.0~beta
 _ZN25QStackedWidgetEventFilter11changeOrderEv@Qt_5 5.6.0~beta
 _ZN25QStackedWidgetEventFilter11qt_metacallEN11QMetaObject4CallEiPPv@Qt_5 5.6.0~beta
 _ZN25QStackedWidgetEventFilter11qt_metacastEPKc@Qt_5 5.6.0~beta
 _ZN25QStackedWidgetEventFilter12addPageAfterEv@Qt_5 5.6.0~beta
 _ZN25QStackedWidgetEventFilter13eventFilterOfEPK14QStackedWidget@Qt_5 5.6.0~beta
 _ZN25QStackedWidgetEventFilter16staticMetaObjectE@Qt_5 5.6.0~beta
 _ZN25QStackedWidgetEventFilter17removeCurrentPageEv@Qt_5 5.6.0~beta
 _ZN25QStackedWidgetEventFilter21addContextMenuActionsEP5QMenu@Qt_5 5.6.0~beta
 _ZN25QStackedWidgetEventFilter34addStackedWidgetContextMenuActionsEPK14QStackedWidgetP5QMenu@Qt_5 5.6.0~beta
 _ZN25QStackedWidgetEventFilter7addPageEv@Qt_5 5.6.0~beta
 _ZN25QStackedWidgetEventFilter7installEP14QStackedWidget@Qt_5 5.6.0~beta
 _ZN25QStackedWidgetEventFilter8gotoPageEi@Qt_5 5.6.0~beta
 _ZN25QStackedWidgetEventFilterC1EP14QStackedWidget@Qt_5 5.6.0~beta
 _ZN25QStackedWidgetEventFilterC2EP14QStackedWidget@Qt_5 5.6.0~beta
 _ZN26QDesignerMetaEnumInterfaceC1Ev@Qt_5 5.6.0~beta
 _ZN26QDesignerMetaEnumInterfaceC2Ev@Qt_5 5.6.0~beta
 _ZN26QDesignerMetaEnumInterfaceD0Ev@Qt_5 5.6.0~beta
 _ZN26QDesignerMetaEnumInterfaceD1Ev@Qt_5 5.6.0~beta
 _ZN26QDesignerMetaEnumInterfaceD2Ev@Qt_5 5.6.0~beta
 _ZN27QDesignerDialogGuiInterface20getOpenImageFileNameEP7QWidgetRK7QStringS4_S4_PS2_6QFlagsIN11QFileDialog6OptionEE@Qt_5 5.6.0~beta
 _ZN27QDesignerDialogGuiInterface21getOpenImageFileNamesEP7QWidgetRK7QStringS4_S4_PS2_6QFlagsIN11QFileDialog6OptionEE@Qt_5 5.6.0~beta
 _ZN27QDesignerDialogGuiInterfaceC1Ev@Qt_5 5.6.0~beta
 _ZN27QDesignerDialogGuiInterfaceC2Ev@Qt_5 5.6.0~beta
 _ZN27QDesignerDialogGuiInterfaceD0Ev@Qt_5 5.6.0~beta
 _ZN27QDesignerDialogGuiInterfaceD1Ev@Qt_5 5.6.0~beta
 _ZN27QDesignerDialogGuiInterfaceD2Ev@Qt_5 5.6.0~beta
 _ZN27QDesignerExtraInfoExtension19setWorkingDirectoryERK7QString@Qt_5 5.6.0~beta
 _ZN27QDesignerMemberSheetFactory11qt_metacallEN11QMetaObject4CallEiPPv@Qt_5 5.6.0~beta
 _ZN27QDesignerMemberSheetFactory11qt_metacastEPKc@Qt_5 5.6.0~beta
 _ZN27QDesignerMemberSheetFactory16staticMetaObjectE@Qt_5 5.6.0~beta
 _ZN27QDesignerMemberSheetFactoryC1EP17QExtensionManager@Qt_5 5.6.0~beta
 _ZN27QDesignerMemberSheetFactoryC2EP17QExtensionManager@Qt_5 5.6.0~beta
 _ZN27QDesignerPromotionInterfaceD0Ev@Qt_5 5.6.0~beta
 _ZN27QDesignerPromotionInterfaceD1Ev@Qt_5 5.6.0~beta
 _ZN27QDesignerPromotionInterfaceD2Ev@Qt_5 5.6.0~beta
 _ZN27QDesignerWidgetBoxInterface11qt_metacallEN11QMetaObject4CallEiPPv@Qt_5 5.6.0~beta
 _ZN27QDesignerWidgetBoxInterface11qt_metacastEPKc@Qt_5 5.6.0~beta
 _ZN27QDesignerWidgetBoxInterface16staticMetaObjectE@Qt_5 5.6.0~beta
 _ZN27QDesignerWidgetBoxInterface20findOrInsertCategoryERK7QString@Qt_5 5.6.0~beta
 _ZN27QDesignerWidgetBoxInterface6Widget11setIconNameERK7QString@Qt_5 5.6.0~beta
 _ZN27QDesignerWidgetBoxInterface6Widget7setNameERK7QString@Qt_5 5.6.0~beta
 _ZN27QDesignerWidgetBoxInterface6Widget7setTypeENS0_4TypeE@Qt_5 5.6.0~beta
 _ZN27QDesignerWidgetBoxInterface6Widget9setDomXmlERK7QString@Qt_5 5.6.0~beta
 _ZN27QDesignerWidgetBoxInterface6WidgetC1ERK7QStringS3_S3_NS0_4TypeE@Qt_5 5.6.0~beta
 _ZN27QDesignerWidgetBoxInterface6WidgetC1ERKS0_@Qt_5 5.6.0~beta
 _ZN27QDesignerWidgetBoxInterface6WidgetC2ERK7QStringS3_S3_NS0_4TypeE@Qt_5 5.6.0~beta
 _ZN27QDesignerWidgetBoxInterface6WidgetC2ERKS0_@Qt_5 5.6.0~beta
 _ZN27QDesignerWidgetBoxInterface6WidgetD1Ev@Qt_5 5.6.0~beta
 _ZN27QDesignerWidgetBoxInterface6WidgetD2Ev@Qt_5 5.6.0~beta
 _ZN27QDesignerWidgetBoxInterface6WidgetaSERKS0_@Qt_5 5.6.0~beta
 _ZN27QDesignerWidgetBoxInterfaceC1EP7QWidget6QFlagsIN2Qt10WindowTypeEE@Qt_5 5.6.0~beta
 _ZN27QDesignerWidgetBoxInterfaceC2EP7QWidget6QFlagsIN2Qt10WindowTypeEE@Qt_5 5.6.0~beta
 _ZN27QDesignerWidgetBoxInterfaceD0Ev@Qt_5 5.6.0~beta
 _ZN27QDesignerWidgetBoxInterfaceD1Ev@Qt_5 5.6.0~beta
 _ZN27QDesignerWidgetBoxInterfaceD2Ev@Qt_5 5.6.0~beta
 _ZN27QStackedWidgetPropertySheet11setPropertyEiRK8QVariant@Qt_5 5.6.0~beta
 _ZN27QStackedWidgetPropertySheet13checkPropertyERK7QString@Qt_5 5.6.0~beta
 _ZN27QStackedWidgetPropertySheet5resetEi@Qt_5 5.6.0~beta
 _ZN27QStackedWidgetPropertySheetC1EP14QStackedWidgetP7QObject@Qt_5 5.6.0~beta
 _ZN27QStackedWidgetPropertySheetC2EP14QStackedWidgetP7QObject@Qt_5 5.6.0~beta
 _ZN27QToolBoxWidgetPropertySheet11setPropertyEiRK8QVariant@Qt_5 5.6.0~beta
 _ZN27QToolBoxWidgetPropertySheet13checkPropertyERK7QString@Qt_5 5.6.0~beta
 _ZN27QToolBoxWidgetPropertySheet23toolBoxPropertyFromNameERK7QString@Qt_5 5.6.0~beta
 _ZN27QToolBoxWidgetPropertySheet5resetEi@Qt_5 5.6.0~beta
 _ZN27QToolBoxWidgetPropertySheetC1EP8QToolBoxP7QObject@Qt_5 5.6.0~beta
 _ZN27QToolBoxWidgetPropertySheetC2EP8QToolBoxP7QObject@Qt_5 5.6.0~beta
 _ZN28QDesignerFormEditorInterface10createIconERK7QString@Qt_5 5.6.0~beta
 _ZN28QDesignerFormEditorInterface11qt_metacallEN11QMetaObject4CallEiPPv@Qt_5 5.6.0~beta
 _ZN28QDesignerFormEditorInterface11qt_metacastEPKc@Qt_5 5.6.0~beta
 _ZN28QDesignerFormEditorInterface11setTopLevelEP7QWidget@Qt_5 5.6.0~beta
 _ZN28QDesignerFormEditorInterface12setDialogGuiEP27QDesignerDialogGuiInterface@Qt_5 5.6.0~beta
 _ZN28QDesignerFormEditorInterface12setPromotionEP27QDesignerPromotionInterface@Qt_5 5.6.0~beta
 _ZN28QDesignerFormEditorInterface12setWidgetBoxEP27QDesignerWidgetBoxInterface@Qt_5 5.6.0~beta
 _ZN28QDesignerFormEditorInterface14setFormManagerEP35QDesignerFormWindowManagerInterface@Qt_5 5.6.0~beta
 _ZN28QDesignerFormEditorInterface14setIntegrationEP29QDesignerIntegrationInterface@Qt_5 5.6.0~beta
 _ZN28QDesignerFormEditorInterface15setActionEditorEP30QDesignerActionEditorInterface@Qt_5 5.6.0~beta
 _ZN28QDesignerFormEditorInterface15setMetaDataBaseEP30QDesignerMetaDataBaseInterface@Qt_5 5.6.0~beta
 _ZN28QDesignerFormEditorInterface15setOptionsPagesERK5QListIP29QDesignerOptionsPageInterfaceE@Qt_5 5.6.0~beta
 _ZN28QDesignerFormEditorInterface16setIntrospectionEP31QDesignerIntrospectionInterface@Qt_5 5.6.0~beta
 _ZN28QDesignerFormEditorInterface16setPluginManagerEP22QDesignerPluginManager@Qt_5 5.6.0~beta
 _ZN28QDesignerFormEditorInterface16setResourceModelEP15QtResourceModel@Qt_5 5.6.0~beta
 _ZN28QDesignerFormEditorInterface16setWidgetFactoryEP31QDesignerWidgetFactoryInterface@Qt_5 5.6.0~beta
 _ZN28QDesignerFormEditorInterface16staticMetaObjectE@Qt_5 5.6.0~beta
 _ZN28QDesignerFormEditorInterface17setPropertyEditorEP32QDesignerPropertyEditorInterface@Qt_5 5.6.0~beta
 _ZN28QDesignerFormEditorInterface17setWidgetDataBaseEP32QDesignerWidgetDataBaseInterface@Qt_5 5.6.0~beta
 _ZN28QDesignerFormEditorInterface18setGradientManagerEP17QtGradientManager@Qt_5 5.6.0~beta
 _ZN28QDesignerFormEditorInterface18setObjectInspectorEP33QDesignerObjectInspectorInterface@Qt_5 5.6.0~beta
 _ZN28QDesignerFormEditorInterface18setSettingsManagerEP26QDesignerSettingsInterface@Qt_5 5.6.0~beta
 _ZN28QDesignerFormEditorInterface19setExtensionManagerEP17QExtensionManager@Qt_5 5.6.0~beta
 _ZN28QDesignerFormEditorInterfaceC1EP7QObject@Qt_5 5.6.0~beta
 _ZN28QDesignerFormEditorInterfaceC2EP7QObject@Qt_5 5.6.0~beta
 _ZN28QDesignerFormEditorInterfaceD0Ev@Qt_5 5.6.0~beta
 _ZN28QDesignerFormEditorInterfaceD1Ev@Qt_5 5.6.0~beta
 _ZN28QDesignerFormEditorInterfaceD2Ev@Qt_5 5.6.0~beta
 _ZN28QDesignerFormWindowInterface11qt_metacallEN11QMetaObject4CallEiPPv@Qt_5 5.6.0~beta
 _ZN28QDesignerFormWindowInterface11qt_metacastEPKc@Qt_5 5.6.0~beta
 _ZN28QDesignerFormWindowInterface11toolChangedEi@Qt_5 5.6.0~beta
 _ZN28QDesignerFormWindowInterface13objectRemovedEP7QObject@Qt_5 5.6.0~beta
 _ZN28QDesignerFormWindowInterface13widgetManagedEP7QWidget@Qt_5 5.6.0~beta
 _ZN28QDesignerFormWindowInterface13widgetRemovedEP7QWidget@Qt_5 5.6.0~beta
 _ZN28QDesignerFormWindowInterface14featureChangedE6QFlagsINS_11FeatureFlagEE@Qt_5 5.6.0~beta
 _ZN28QDesignerFormWindowInterface14findFormWindowEP7QObject@Qt_5 5.6.0~beta
 _ZN28QDesignerFormWindowInterface14findFormWindowEP7QWidget@Qt_5 5.6.0~beta
 _ZN28QDesignerFormWindowInterface15fileNameChangedERK7QString@Qt_5 5.6.0~beta
 _ZN28QDesignerFormWindowInterface15geometryChangedEv@Qt_5 5.6.0~beta
 _ZN28QDesignerFormWindowInterface15widgetUnmanagedEP7QWidget@Qt_5 5.6.0~beta
 _ZN28QDesignerFormWindowInterface16selectionChangedEv@Qt_5 5.6.0~beta
 _ZN28QDesignerFormWindowInterface16staticMetaObjectE@Qt_5 5.6.0~beta
 _ZN28QDesignerFormWindowInterface20mainContainerChangedEP7QWidget@Qt_5 5.6.0~beta
 _ZN28QDesignerFormWindowInterface20resourceFilesChangedEv@Qt_5 5.6.0~beta
 _ZN28QDesignerFormWindowInterface21aboutToUnmanageWidgetEP7QWidget@Qt_5 5.6.0~beta
 _ZN28QDesignerFormWindowInterface25activateResourceFilePathsERK11QStringListPiP7QString@Qt_5 5.6.0~beta
 _ZN28QDesignerFormWindowInterface7changedEv@Qt_5 5.6.0~beta
 _ZN28QDesignerFormWindowInterface9activatedEP7QWidget@Qt_5 5.6.0~beta
 _ZN28QDesignerFormWindowInterfaceC1EP7QWidget6QFlagsIN2Qt10WindowTypeEE@Qt_5 5.6.0~beta
 _ZN28QDesignerFormWindowInterfaceC2EP7QWidget6QFlagsIN2Qt10WindowTypeEE@Qt_5 5.6.0~beta
 _ZN28QDesignerFormWindowInterfaceD0Ev@Qt_5 5.6.0~beta
 _ZN28QDesignerFormWindowInterfaceD1Ev@Qt_5 5.6.0~beta
 _ZN28QDesignerFormWindowInterfaceD2Ev@Qt_5 5.6.0~beta
 _ZN28QDesignerMetaMethodInterfaceC1Ev@Qt_5 5.6.0~beta
 _ZN28QDesignerMetaMethodInterfaceC2Ev@Qt_5 5.6.0~beta
 _ZN28QDesignerMetaMethodInterfaceD0Ev@Qt_5 5.6.0~beta
 _ZN28QDesignerMetaMethodInterfaceD1Ev@Qt_5 5.6.0~beta
 _ZN28QDesignerMetaMethodInterfaceD2Ev@Qt_5 5.6.0~beta
 _ZN28QDesignerMetaObjectInterfaceC1Ev@Qt_5 5.6.0~beta
 _ZN28QDesignerMetaObjectInterfaceC2Ev@Qt_5 5.6.0~beta
 _ZN28QDesignerMetaObjectInterfaceD0Ev@Qt_5 5.6.0~beta
 _ZN28QDesignerMetaObjectInterfaceD1Ev@Qt_5 5.6.0~beta
 _ZN28QDesignerMetaObjectInterfaceD2Ev@Qt_5 5.6.0~beta
 _ZN29QDesignerIntegrationInterface11qt_metacallEN11QMetaObject4CallEiPPv@Qt_5 5.6.0~beta
 _ZN29QDesignerIntegrationInterface11qt_metacastEPKc@Qt_5 5.6.0~beta
 _ZN29QDesignerIntegrationInterface13helpRequestedERK7QStringS2_@Qt_5 5.6.0~beta
 _ZN29QDesignerIntegrationInterface14navigateToSlotERK7QString@Qt_5 5.6.0~beta
 _ZN29QDesignerIntegrationInterface14navigateToSlotERK7QStringS2_RK11QStringList@Qt_5 5.6.0~beta
 _ZN29QDesignerIntegrationInterface15propertyChangedEP28QDesignerFormWindowInterfaceRK7QStringRK8QVariant@Qt_5 5.6.0~beta
 _ZN29QDesignerIntegrationInterface16staticMetaObjectE@Qt_5 5.6.0~beta
 _ZN29QDesignerIntegrationInterface17emitHelpRequestedERK7QStringS2_@Qt_5 5.6.0~beta
 _ZN29QDesignerIntegrationInterface17objectNameChangedEP28QDesignerFormWindowInterfaceP7QObjectRK7QStringS6_@Qt_5 5.6.0~beta
 _ZN29QDesignerIntegrationInterface18emitNavigateToSlotERK7QString@Qt_5 5.6.0~beta
 _ZN29QDesignerIntegrationInterface18emitNavigateToSlotERK7QStringS2_RK11QStringList@Qt_5 5.6.0~beta
 _ZN29QDesignerIntegrationInterface21emitObjectNameChangedEP28QDesignerFormWindowInterfaceP7QObjectRK7QStringS6_@Qt_5 5.6.0~beta
 _ZN29QDesignerIntegrationInterfaceC1EP28QDesignerFormEditorInterfaceP7QObject@Qt_5 5.6.0~beta
 _ZN29QDesignerIntegrationInterfaceC2EP28QDesignerFormEditorInterfaceP7QObject@Qt_5 5.6.0~beta
 _ZN29QDesignerIntegrationInterfaceD0Ev@Qt_5 5.6.0~beta
 _ZN29QDesignerIntegrationInterfaceD1Ev@Qt_5 5.6.0~beta
 _ZN29QDesignerIntegrationInterfaceD2Ev@Qt_5 5.6.0~beta
 _ZN30DomStringPropertySpecification4readER16QXmlStreamReader@Qt_5 5.6.0~beta
 _ZN30DomStringPropertySpecification5clearEb@Qt_5 5.6.0~beta
 _ZN30DomStringPropertySpecificationC1Ev@Qt_5 5.6.0~beta
 _ZN30DomStringPropertySpecificationC2Ev@Qt_5 5.6.0~beta
 _ZN30DomStringPropertySpecificationD1Ev@Qt_5 5.6.0~beta
 _ZN30DomStringPropertySpecificationD2Ev@Qt_5 5.6.0~beta
 _ZN30QDesignerActionEditorInterface11qt_metacallEN11QMetaObject4CallEiPPv@Qt_5 5.6.0~beta
 _ZN30QDesignerActionEditorInterface11qt_metacastEPKc@Qt_5 5.6.0~beta
 _ZN30QDesignerActionEditorInterface16staticMetaObjectE@Qt_5 5.6.0~beta
 _ZN30QDesignerActionEditorInterfaceC1EP7QWidget6QFlagsIN2Qt10WindowTypeEE@Qt_5 5.6.0~beta
 _ZN30QDesignerActionEditorInterfaceC2EP7QWidget6QFlagsIN2Qt10WindowTypeEE@Qt_5 5.6.0~beta
 _ZN30QDesignerActionEditorInterfaceD0Ev@Qt_5 5.6.0~beta
 _ZN30QDesignerActionEditorInterfaceD1Ev@Qt_5 5.6.0~beta
 _ZN30QDesignerActionEditorInterfaceD2Ev@Qt_5 5.6.0~beta
 _ZN30QDesignerMetaDataBaseInterface11qt_metacallEN11QMetaObject4CallEiPPv@Qt_5 5.6.0~beta
 _ZN30QDesignerMetaDataBaseInterface11qt_metacastEPKc@Qt_5 5.6.0~beta
 _ZN30QDesignerMetaDataBaseInterface16staticMetaObjectE@Qt_5 5.6.0~beta
 _ZN30QDesignerMetaDataBaseInterface7changedEv@Qt_5 5.6.0~beta
 _ZN30QDesignerMetaDataBaseInterfaceC1EP7QObject@Qt_5 5.6.0~beta
 _ZN30QDesignerMetaDataBaseInterfaceC2EP7QObject@Qt_5 5.6.0~beta
 _ZN30QDesignerMetaDataBaseInterfaceD0Ev@Qt_5 5.6.0~beta
 _ZN30QDesignerMetaDataBaseInterfaceD1Ev@Qt_5 5.6.0~beta
 _ZN30QDesignerMetaDataBaseInterfaceD2Ev@Qt_5 5.6.0~beta
 _ZN30QDesignerMetaPropertyInterfaceC1Ev@Qt_5 5.6.0~beta
 _ZN30QDesignerMetaPropertyInterfaceC2Ev@Qt_5 5.6.0~beta
 _ZN30QDesignerMetaPropertyInterfaceD0Ev@Qt_5 5.6.0~beta
 _ZN30QDesignerMetaPropertyInterfaceD1Ev@Qt_5 5.6.0~beta
 _ZN30QDesignerMetaPropertyInterfaceD2Ev@Qt_5 5.6.0~beta
 _ZN31QDesignerIntrospectionInterfaceC1Ev@Qt_5 5.6.0~beta
 _ZN31QDesignerIntrospectionInterfaceC2Ev@Qt_5 5.6.0~beta
 _ZN31QDesignerIntrospectionInterfaceD0Ev@Qt_5 5.6.0~beta
 _ZN31QDesignerIntrospectionInterfaceD1Ev@Qt_5 5.6.0~beta
 _ZN31QDesignerIntrospectionInterfaceD2Ev@Qt_5 5.6.0~beta
 _ZN31QDesignerNewFormWidgetInterface11qt_metacallEN11QMetaObject4CallEiPPv@Qt_5 5.6.0~beta
 _ZN31QDesignerNewFormWidgetInterface11qt_metacastEPKc@Qt_5 5.6.0~beta
 _ZN31QDesignerNewFormWidgetInterface16staticMetaObjectE@Qt_5 5.6.0~beta
 _ZN31QDesignerNewFormWidgetInterface17templateActivatedEv@Qt_5 5.6.0~beta
 _ZN31QDesignerNewFormWidgetInterface19createNewFormWidgetEP28QDesignerFormEditorInterfaceP7QWidget@Qt_5 5.6.0~beta
 _ZN31QDesignerNewFormWidgetInterface22currentTemplateChangedEb@Qt_5 5.6.0~beta
 _ZN31QDesignerNewFormWidgetInterfaceC1EP7QWidget@Qt_5 5.6.0~beta
 _ZN31QDesignerNewFormWidgetInterfaceC2EP7QWidget@Qt_5 5.6.0~beta
 _ZN31QDesignerNewFormWidgetInterfaceD0Ev@Qt_5 5.6.0~beta
 _ZN31QDesignerNewFormWidgetInterfaceD1Ev@Qt_5 5.6.0~beta
 _ZN31QDesignerNewFormWidgetInterfaceD2Ev@Qt_5 5.6.0~beta
 _ZN31QDesignerWidgetFactoryInterface11qt_metacallEN11QMetaObject4CallEiPPv@Qt_5 5.6.0~beta
 _ZN31QDesignerWidgetFactoryInterface11qt_metacastEPKc@Qt_5 5.6.0~beta
 _ZN31QDesignerWidgetFactoryInterface16staticMetaObjectE@Qt_5 5.6.0~beta
 _ZN31QDesignerWidgetFactoryInterfaceC1EP7QObject@Qt_5 5.6.0~beta
 _ZN31QDesignerWidgetFactoryInterfaceC2EP7QObject@Qt_5 5.6.0~beta
 _ZN31QDesignerWidgetFactoryInterfaceD0Ev@Qt_5 5.6.0~beta
 _ZN31QDesignerWidgetFactoryInterfaceD1Ev@Qt_5 5.6.0~beta
 _ZN31QDesignerWidgetFactoryInterfaceD2Ev@Qt_5 5.6.0~beta
 _ZN32QDesignerFormWindowToolInterface11qt_metacallEN11QMetaObject4CallEiPPv@Qt_5 5.6.0~beta
 _ZN32QDesignerFormWindowToolInterface11qt_metacastEPKc@Qt_5 5.6.0~beta
 _ZN32QDesignerFormWindowToolInterface16staticMetaObjectE@Qt_5 5.6.0~beta
 _ZN32QDesignerFormWindowToolInterfaceC1EP7QObject@Qt_5 5.6.0~beta
 _ZN32QDesignerFormWindowToolInterfaceC2EP7QObject@Qt_5 5.6.0~beta
 _ZN32QDesignerFormWindowToolInterfaceD0Ev@Qt_5 5.6.0~beta
 _ZN32QDesignerFormWindowToolInterfaceD1Ev@Qt_5 5.6.0~beta
 _ZN32QDesignerFormWindowToolInterfaceD2Ev@Qt_5 5.6.0~beta
 _ZN32QDesignerPropertyEditorInterface11qt_metacallEN11QMetaObject4CallEiPPv@Qt_5 5.6.0~beta
 _ZN32QDesignerPropertyEditorInterface11qt_metacastEPKc@Qt_5 5.6.0~beta
 _ZN32QDesignerPropertyEditorInterface15propertyChangedERK7QStringRK8QVariant@Qt_5 5.6.0~beta
 _ZN32QDesignerPropertyEditorInterface16staticMetaObjectE@Qt_5 5.6.0~beta
 _ZN32QDesignerPropertyEditorInterfaceC1EP7QWidget6QFlagsIN2Qt10WindowTypeEE@Qt_5 5.6.0~beta
 _ZN32QDesignerPropertyEditorInterfaceC2EP7QWidget6QFlagsIN2Qt10WindowTypeEE@Qt_5 5.6.0~beta
 _ZN32QDesignerPropertyEditorInterfaceD0Ev@Qt_5 5.6.0~beta
 _ZN32QDesignerPropertyEditorInterfaceD1Ev@Qt_5 5.6.0~beta
 _ZN32QDesignerPropertyEditorInterfaceD2Ev@Qt_5 5.6.0~beta
 _ZN32QDesignerWidgetDataBaseInterface11qt_metacallEN11QMetaObject4CallEiPPv@Qt_5 5.6.0~beta
 _ZN32QDesignerWidgetDataBaseInterface11qt_metacastEPKc@Qt_5 5.6.0~beta
 _ZN32QDesignerWidgetDataBaseInterface16staticMetaObjectE@Qt_5 5.6.0~beta
 _ZN32QDesignerWidgetDataBaseInterface6appendEP36QDesignerWidgetDataBaseItemInterface@Qt_5 5.6.0~beta
 _ZN32QDesignerWidgetDataBaseInterface6insertEiP36QDesignerWidgetDataBaseItemInterface@Qt_5 5.6.0~beta
 _ZN32QDesignerWidgetDataBaseInterface7changedEv@Qt_5 5.6.0~beta
 _ZN32QDesignerWidgetDataBaseInterfaceC1EP7QObject@Qt_5 5.6.0~beta
 _ZN32QDesignerWidgetDataBaseInterfaceC2EP7QObject@Qt_5 5.6.0~beta
 _ZN32QDesignerWidgetDataBaseInterfaceD0Ev@Qt_5 5.6.0~beta
 _ZN32QDesignerWidgetDataBaseInterfaceD1Ev@Qt_5 5.6.0~beta
 _ZN32QDesignerWidgetDataBaseInterfaceD2Ev@Qt_5 5.6.0~beta
 _ZN32QStackedWidgetPreviewEventFilter11eventFilterEP7QObjectP6QEvent@Qt_5 5.6.0~beta
 _ZN32QStackedWidgetPreviewEventFilter11qt_metacallEN11QMetaObject4CallEiPPv@Qt_5 5.6.0~beta
 _ZN32QStackedWidgetPreviewEventFilter11qt_metacastEPKc@Qt_5 5.6.0~beta
 _ZN32QStackedWidgetPreviewEventFilter13updateButtonsEv@Qt_5 5.6.0~beta
 _ZN32QStackedWidgetPreviewEventFilter16staticMetaObjectE@Qt_5 5.6.0~beta
 _ZN32QStackedWidgetPreviewEventFilter19updateButtonToolTipEP7QObject@Qt_5 5.6.0~beta
 _ZN32QStackedWidgetPreviewEventFilter7installEP14QStackedWidget@Qt_5 5.6.0~beta
 _ZN32QStackedWidgetPreviewEventFilter8gotoPageEi@Qt_5 5.6.0~beta
 _ZN32QStackedWidgetPreviewEventFilter8nextPageEv@Qt_5 5.6.0~beta
 _ZN32QStackedWidgetPreviewEventFilter8prevPageEv@Qt_5 5.6.0~beta
 _ZN32QStackedWidgetPreviewEventFilterC1EP14QStackedWidget@Qt_5 5.6.0~beta
 _ZN32QStackedWidgetPreviewEventFilterC2EP14QStackedWidget@Qt_5 5.6.0~beta
 _ZN33QDesignerObjectInspectorInterface11qt_metacallEN11QMetaObject4CallEiPPv@Qt_5 5.6.0~beta
 _ZN33QDesignerObjectInspectorInterface11qt_metacastEPKc@Qt_5 5.6.0~beta
 _ZN33QDesignerObjectInspectorInterface16staticMetaObjectE@Qt_5 5.6.0~beta
 _ZN33QDesignerObjectInspectorInterfaceC1EP7QWidget6QFlagsIN2Qt10WindowTypeEE@Qt_5 5.6.0~beta
 _ZN33QDesignerObjectInspectorInterfaceC2EP7QWidget6QFlagsIN2Qt10WindowTypeEE@Qt_5 5.6.0~beta
 _ZN33QDesignerObjectInspectorInterfaceD0Ev@Qt_5 5.6.0~beta
 _ZN33QDesignerObjectInspectorInterfaceD1Ev@Qt_5 5.6.0~beta
 _ZN33QDesignerObjectInspectorInterfaceD2Ev@Qt_5 5.6.0~beta
 _ZN33QDesignerResourceBrowserInterface11qt_metacallEN11QMetaObject4CallEiPPv@Qt_5 5.6.0~beta
 _ZN33QDesignerResourceBrowserInterface11qt_metacastEPKc@Qt_5 5.6.0~beta
 _ZN33QDesignerResourceBrowserInterface13pathActivatedERK7QString@Qt_5 5.6.0~beta
 _ZN33QDesignerResourceBrowserInterface16staticMetaObjectE@Qt_5 5.6.0~beta
 _ZN33QDesignerResourceBrowserInterface18currentPathChangedERK7QString@Qt_5 5.6.0~beta
 _ZN33QDesignerResourceBrowserInterfaceC1EP7QWidget@Qt_5 5.6.0~beta
 _ZN33QDesignerResourceBrowserInterfaceC2EP7QWidget@Qt_5 5.6.0~beta
 _ZN33QDesignerResourceBrowserInterfaceD0Ev@Qt_5 5.6.0~beta
 _ZN33QDesignerResourceBrowserInterfaceD1Ev@Qt_5 5.6.0~beta
 _ZN33QDesignerResourceBrowserInterfaceD2Ev@Qt_5 5.6.0~beta
 _ZN35QDesignerFormWindowManagerInterface11qt_metacallEN11QMetaObject4CallEiPPv@Qt_5 5.6.0~beta
 _ZN35QDesignerFormWindowManagerInterface11qt_metacastEPKc@Qt_5 5.6.0~beta
 _ZN35QDesignerFormWindowManagerInterface15formWindowAddedEP28QDesignerFormWindowInterface@Qt_5 5.6.0~beta
 _ZN35QDesignerFormWindowManagerInterface16staticMetaObjectE@Qt_5 5.6.0~beta
 _ZN35QDesignerFormWindowManagerInterface17formWindowRemovedEP28QDesignerFormWindowInterface@Qt_5 5.6.0~beta
 _ZN35QDesignerFormWindowManagerInterface23activeFormWindowChangedEP28QDesignerFormWindowInterface@Qt_5 5.6.0~beta
 _ZN35QDesignerFormWindowManagerInterface25formWindowSettingsChangedEP28QDesignerFormWindowInterface@Qt_5 5.6.0~beta
 _ZN35QDesignerFormWindowManagerInterfaceC1EP7QObject@Qt_5 5.6.0~beta
 _ZN35QDesignerFormWindowManagerInterfaceC2EP7QObject@Qt_5 5.6.0~beta
 _ZN35QDesignerFormWindowManagerInterfaceD0Ev@Qt_5 5.6.0~beta
 _ZN35QDesignerFormWindowManagerInterfaceD1Ev@Qt_5 5.6.0~beta
 _ZN35QDesignerFormWindowManagerInterfaceD2Ev@Qt_5 5.6.0~beta
 _ZN37QDesignerAbstractPropertySheetFactory11qt_metacallEN11QMetaObject4CallEiPPv@Qt_5 5.6.0~beta
 _ZN37QDesignerAbstractPropertySheetFactory11qt_metacastEPKc@Qt_5 5.6.0~beta
 _ZN37QDesignerAbstractPropertySheetFactory15objectDestroyedEP7QObject@Qt_5 5.6.0~beta
 _ZN37QDesignerAbstractPropertySheetFactory16staticMetaObjectE@Qt_5 5.6.0~beta
 _ZN37QDesignerAbstractPropertySheetFactory27PropertySheetFactoryPrivateC1Ev@Qt_5 5.6.0~beta
 _ZN37QDesignerAbstractPropertySheetFactory27PropertySheetFactoryPrivateC2Ev@Qt_5 5.6.0~beta
 _ZN37QDesignerAbstractPropertySheetFactoryC1EP17QExtensionManager@Qt_5 5.6.0~beta
 _ZN37QDesignerAbstractPropertySheetFactoryC2EP17QExtensionManager@Qt_5 5.6.0~beta
 _ZN37QDesignerAbstractPropertySheetFactoryD0Ev@Qt_5 5.6.0~beta
 _ZN37QDesignerAbstractPropertySheetFactoryD1Ev@Qt_5 5.6.0~beta
 _ZN37QDesignerAbstractPropertySheetFactoryD2Ev@Qt_5 5.6.0~beta
 _ZN4Line11qt_metacallEN11QMetaObject4CallEiPPv@Qt_5 5.6.0~beta
 _ZN4Line11qt_metacastEPKc@Qt_5 5.6.0~beta
 _ZN4Line16staticMetaObjectE@Qt_5 5.6.0~beta
 _ZN5DomUI15setElementClassERK7QString@Qt_5 5.6.0~beta
 _ZN5DomUI15setElementSlotsEP8DomSlots@Qt_5 5.6.0~beta
 _ZN5DomUI16setElementAuthorERK7QString@Qt_5 5.6.0~beta
 _ZN5DomUI16setElementImagesEP9DomImages@Qt_5 5.6.0~beta
 _ZN5DomUI16setElementWidgetEP9DomWidget@Qt_5 5.6.0~beta
 _ZN5DomUI16takeElementSlotsEv@Qt_5 5.6.0~beta
 _ZN5DomUI17clearElementClassEv@Qt_5 5.6.0~beta
 _ZN5DomUI17clearElementSlotsEv@Qt_5 5.6.0~beta
 _ZN5DomUI17setElementCommentERK7QString@Qt_5 5.6.0~beta
 _ZN5DomUI17takeElementImagesEv@Qt_5 5.6.0~beta
 _ZN5DomUI17takeElementWidgetEv@Qt_5 5.6.0~beta
 _ZN5DomUI18clearElementAuthorEv@Qt_5 5.6.0~beta
 _ZN5DomUI18clearElementImagesEv@Qt_5 5.6.0~beta
 _ZN5DomUI18clearElementWidgetEv@Qt_5 5.6.0~beta
 _ZN5DomUI18setElementIncludesEP11DomIncludes@Qt_5 5.6.0~beta
 _ZN5DomUI18setElementTabStopsEP11DomTabStops@Qt_5 5.6.0~beta
 _ZN5DomUI19clearElementCommentEv@Qt_5 5.6.0~beta
 _ZN5DomUI19setElementResourcesEP12DomResources@Qt_5 5.6.0~beta
 _ZN5DomUI19takeElementIncludesEv@Qt_5 5.6.0~beta
 _ZN5DomUI19takeElementTabStopsEv@Qt_5 5.6.0~beta
 _ZN5DomUI20clearElementIncludesEv@Qt_5 5.6.0~beta
 _ZN5DomUI20clearElementTabStopsEv@Qt_5 5.6.0~beta
 _ZN5DomUI20takeElementResourcesEv@Qt_5 5.6.0~beta
 _ZN5DomUI21clearElementResourcesEv@Qt_5 5.6.0~beta
 _ZN5DomUI21setElementConnectionsEP14DomConnections@Qt_5 5.6.0~beta
 _ZN5DomUI21setElementExportMacroERK7QString@Qt_5 5.6.0~beta
 _ZN5DomUI22setElementButtonGroupsEP15DomButtonGroups@Qt_5 5.6.0~beta
 _ZN5DomUI22setElementDesignerdataEP15DomDesignerData@Qt_5 5.6.0~beta
 _ZN5DomUI22takeElementConnectionsEv@Qt_5 5.6.0~beta
 _ZN5DomUI23clearElementConnectionsEv@Qt_5 5.6.0~beta
 _ZN5DomUI23clearElementExportMacroEv@Qt_5 5.6.0~beta
 _ZN5DomUI23setElementCustomWidgetsEP16DomCustomWidgets@Qt_5 5.6.0~beta
 _ZN5DomUI23setElementLayoutDefaultEP16DomLayoutDefault@Qt_5 5.6.0~beta
 _ZN5DomUI23takeElementButtonGroupsEv@Qt_5 5.6.0~beta
 _ZN5DomUI23takeElementDesignerdataEv@Qt_5 5.6.0~beta
 _ZN5DomUI24clearElementButtonGroupsEv@Qt_5 5.6.0~beta
 _ZN5DomUI24clearElementDesignerdataEv@Qt_5 5.6.0~beta
 _ZN5DomUI24setElementLayoutFunctionEP17DomLayoutFunction@Qt_5 5.6.0~beta
 _ZN5DomUI24setElementPixmapFunctionERK7QString@Qt_5 5.6.0~beta
 _ZN5DomUI24takeElementCustomWidgetsEv@Qt_5 5.6.0~beta
 _ZN5DomUI24takeElementLayoutDefaultEv@Qt_5 5.6.0~beta
 _ZN5DomUI25clearElementCustomWidgetsEv@Qt_5 5.6.0~beta
 _ZN5DomUI25clearElementLayoutDefaultEv@Qt_5 5.6.0~beta
 _ZN5DomUI25takeElementLayoutFunctionEv@Qt_5 5.6.0~beta
 _ZN5DomUI26clearElementLayoutFunctionEv@Qt_5 5.6.0~beta
 _ZN5DomUI26clearElementPixmapFunctionEv@Qt_5 5.6.0~beta
 _ZN5DomUI4readER16QXmlStreamReader@Qt_5 5.6.0~beta
 _ZN5DomUI5clearEb@Qt_5 5.6.0~beta
 _ZN5DomUIC1Ev@Qt_5 5.6.0~beta
 _ZN5DomUIC2Ev@Qt_5 5.6.0~beta
 _ZN5DomUID1Ev@Qt_5 5.6.0~beta
 _ZN5DomUID2Ev@Qt_5 5.6.0~beta
 _ZN6DomRow18setElementPropertyERK5QListIP11DomPropertyE@Qt_5 5.6.0~beta
 _ZN6DomRow4readER16QXmlStreamReader@Qt_5 5.6.0~beta
 _ZN6DomRow5clearEb@Qt_5 5.6.0~beta
 _ZN6DomRowC1Ev@Qt_5 5.6.0~beta
 _ZN6DomRowC2Ev@Qt_5 5.6.0~beta
 _ZN6DomRowD1Ev@Qt_5 5.6.0~beta
 _ZN6DomRowD2Ev@Qt_5 5.6.0~beta
 _ZN6DomUrl16setElementStringEP9DomString@Qt_5 5.6.0~beta
 _ZN6DomUrl17takeElementStringEv@Qt_5 5.6.0~beta
 _ZN6DomUrl18clearElementStringEv@Qt_5 5.6.0~beta
 _ZN6DomUrl4readER16QXmlStreamReader@Qt_5 5.6.0~beta
 _ZN6DomUrl5clearEb@Qt_5 5.6.0~beta
 _ZN6DomUrlC1Ev@Qt_5 5.6.0~beta
 _ZN6DomUrlC2Ev@Qt_5 5.6.0~beta
 _ZN6DomUrlD1Ev@Qt_5 5.6.0~beta
 _ZN6DomUrlD2Ev@Qt_5 5.6.0~beta
 _ZN6Spacer10paintEventEP11QPaintEvent@Qt_5 5.6.0~beta
 _ZN6Spacer10updateMaskEv@Qt_5 5.6.0~beta
 _ZN6Spacer11qt_metacallEN11QMetaObject4CallEiPPv@Qt_5 5.6.0~beta
 _ZN6Spacer11qt_metacastEPKc@Qt_5 5.6.0~beta
 _ZN6Spacer11resizeEventEP12QResizeEvent@Qt_5 5.6.0~beta
 _ZN6Spacer11setSizeTypeEN11QSizePolicy6PolicyE@Qt_5 5.6.0~beta
 _ZN6Spacer13updateToolTipEv@Qt_5 5.6.0~beta
 _ZN6Spacer14setOrientationEN2Qt11OrientationE@Qt_5 5.6.0~beta
 _ZN6Spacer16staticMetaObjectE@Qt_5 5.6.0~beta
 _ZN6Spacer19setSizeHintPropertyERK5QSize@Qt_5 5.6.0~beta
 _ZN6Spacer5eventEP6QEvent@Qt_5 5.6.0~beta
 _ZN6SpacerC1EP7QWidget@Qt_5 5.6.0~beta
 _ZN6SpacerC2EP7QWidget@Qt_5 5.6.0~beta
 _ZN7DomChar17setElementUnicodeEi@Qt_5 5.6.0~beta
 _ZN7DomChar19clearElementUnicodeEv@Qt_5 5.6.0~beta
 _ZN7DomChar4readER16QXmlStreamReader@Qt_5 5.6.0~beta
 _ZN7DomChar5clearEb@Qt_5 5.6.0~beta
 _ZN7DomCharC1Ev@Qt_5 5.6.0~beta
 _ZN7DomCharC2Ev@Qt_5 5.6.0~beta
 _ZN7DomCharD1Ev@Qt_5 5.6.0~beta
 _ZN7DomCharD2Ev@Qt_5 5.6.0~beta
 _ZN7DomDate13setElementDayEi@Qt_5 5.6.0~beta
 _ZN7DomDate14setElementYearEi@Qt_5 5.6.0~beta
 _ZN7DomDate15clearElementDayEv@Qt_5 5.6.0~beta
 _ZN7DomDate15setElementMonthEi@Qt_5 5.6.0~beta
 _ZN7DomDate16clearElementYearEv@Qt_5 5.6.0~beta
 _ZN7DomDate17clearElementMonthEv@Qt_5 5.6.0~beta
 _ZN7DomDate4readER16QXmlStreamReader@Qt_5 5.6.0~beta
 _ZN7DomDate5clearEb@Qt_5 5.6.0~beta
 _ZN7DomDateC1Ev@Qt_5 5.6.0~beta
 _ZN7DomDateC2Ev@Qt_5 5.6.0~beta
 _ZN7DomDateD1Ev@Qt_5 5.6.0~beta
 _ZN7DomDateD2Ev@Qt_5 5.6.0~beta
 _ZN7DomFont14setElementBoldEb@Qt_5 5.6.0~beta
 _ZN7DomFont16clearElementBoldEv@Qt_5 5.6.0~beta
 _ZN7DomFont16setElementFamilyERK7QString@Qt_5 5.6.0~beta
 _ZN7DomFont16setElementItalicEb@Qt_5 5.6.0~beta
 _ZN7DomFont16setElementWeightEi@Qt_5 5.6.0~beta
 _ZN7DomFont17setElementKerningEb@Qt_5 5.6.0~beta
 _ZN7DomFont18clearElementFamilyEv@Qt_5 5.6.0~beta
 _ZN7DomFont18clearElementItalicEv@Qt_5 5.6.0~beta
 _ZN7DomFont18clearElementWeightEv@Qt_5 5.6.0~beta
 _ZN7DomFont19clearElementKerningEv@Qt_5 5.6.0~beta
 _ZN7DomFont19setElementPointSizeEi@Qt_5 5.6.0~beta
 _ZN7DomFont19setElementStrikeOutEb@Qt_5 5.6.0~beta
 _ZN7DomFont19setElementUnderlineEb@Qt_5 5.6.0~beta
 _ZN7DomFont21clearElementPointSizeEv@Qt_5 5.6.0~beta
 _ZN7DomFont21clearElementStrikeOutEv@Qt_5 5.6.0~beta
 _ZN7DomFont21clearElementUnderlineEv@Qt_5 5.6.0~beta
 _ZN7DomFont22setElementAntialiasingEb@Qt_5 5.6.0~beta
 _ZN7DomFont23setElementStyleStrategyERK7QString@Qt_5 5.6.0~beta
 _ZN7DomFont24clearElementAntialiasingEv@Qt_5 5.6.0~beta
 _ZN7DomFont25clearElementStyleStrategyEv@Qt_5 5.6.0~beta
 _ZN7DomFont4readER16QXmlStreamReader@Qt_5 5.6.0~beta
 _ZN7DomFont5clearEb@Qt_5 5.6.0~beta
 _ZN7DomFontC1Ev@Qt_5 5.6.0~beta
 _ZN7DomFontC2Ev@Qt_5 5.6.0~beta
 _ZN7DomFontD1Ev@Qt_5 5.6.0~beta
 _ZN7DomFontD2Ev@Qt_5 5.6.0~beta
 _ZN7DomItem14setElementItemERK5QListIPS_E@Qt_5 5.6.0~beta
 _ZN7DomItem18setElementPropertyERK5QListIP11DomPropertyE@Qt_5 5.6.0~beta
 _ZN7DomItem4readER16QXmlStreamReader@Qt_5 5.6.0~beta
 _ZN7DomItem5clearEb@Qt_5 5.6.0~beta
 _ZN7DomItemC1Ev@Qt_5 5.6.0~beta
 _ZN7DomItemC2Ev@Qt_5 5.6.0~beta
 _ZN7DomItemD1Ev@Qt_5 5.6.0~beta
 _ZN7DomItemD2Ev@Qt_5 5.6.0~beta
 _ZN7DomRect11setElementXEi@Qt_5 5.6.0~beta
 _ZN7DomRect11setElementYEi@Qt_5 5.6.0~beta
 _ZN7DomRect13clearElementXEv@Qt_5 5.6.0~beta
 _ZN7DomRect13clearElementYEv@Qt_5 5.6.0~beta
 _ZN7DomRect15setElementWidthEi@Qt_5 5.6.0~beta
 _ZN7DomRect16setElementHeightEi@Qt_5 5.6.0~beta
 _ZN7DomRect17clearElementWidthEv@Qt_5 5.6.0~beta
 _ZN7DomRect18clearElementHeightEv@Qt_5 5.6.0~beta
 _ZN7DomRect4readER16QXmlStreamReader@Qt_5 5.6.0~beta
 _ZN7DomRect5clearEb@Qt_5 5.6.0~beta
 _ZN7DomRectC1Ev@Qt_5 5.6.0~beta
 _ZN7DomRectC2Ev@Qt_5 5.6.0~beta
 _ZN7DomRectD1Ev@Qt_5 5.6.0~beta
 _ZN7DomRectD2Ev@Qt_5 5.6.0~beta
 _ZN7DomSize15setElementWidthEi@Qt_5 5.6.0~beta
 _ZN7DomSize16setElementHeightEi@Qt_5 5.6.0~beta
 _ZN7DomSize17clearElementWidthEv@Qt_5 5.6.0~beta
 _ZN7DomSize18clearElementHeightEv@Qt_5 5.6.0~beta
 _ZN7DomSize4readER16QXmlStreamReader@Qt_5 5.6.0~beta
 _ZN7DomSize5clearEb@Qt_5 5.6.0~beta
 _ZN7DomSizeC1Ev@Qt_5 5.6.0~beta
 _ZN7DomSizeC2Ev@Qt_5 5.6.0~beta
 _ZN7DomSizeD1Ev@Qt_5 5.6.0~beta
 _ZN7DomSizeD2Ev@Qt_5 5.6.0~beta
 _ZN7DomTime14setElementHourEi@Qt_5 5.6.0~beta
 _ZN7DomTime16clearElementHourEv@Qt_5 5.6.0~beta
 _ZN7DomTime16setElementMinuteEi@Qt_5 5.6.0~beta
 _ZN7DomTime16setElementSecondEi@Qt_5 5.6.0~beta
 _ZN7DomTime18clearElementMinuteEv@Qt_5 5.6.0~beta
 _ZN7DomTime18clearElementSecondEv@Qt_5 5.6.0~beta
 _ZN7DomTime4readER16QXmlStreamReader@Qt_5 5.6.0~beta
 _ZN7DomTime5clearEb@Qt_5 5.6.0~beta
 _ZN7DomTimeC1Ev@Qt_5 5.6.0~beta
 _ZN7DomTimeC2Ev@Qt_5 5.6.0~beta
 _ZN7DomTimeD1Ev@Qt_5 5.6.0~beta
 _ZN7DomTimeD2Ev@Qt_5 5.6.0~beta
 (optional=templinst|arch=arm64 hppa x32)_ZN7QObject7connectIMS_FvPS_EM37QDesignerAbstractPropertySheetFactoryFvS1_EEEN11QMetaObject10ConnectionEPKN9QtPrivate15FunctionPointerIT_E6ObjectESB_PKNSA_IT0_E6ObjectESG_N2Qt14ConnectionTypeE@Qt_5 5.6.0~rc
 _ZN8DomBrush15setElementColorEP8DomColor@Qt_5 5.6.0~beta
 _ZN8DomBrush16takeElementColorEv@Qt_5 5.6.0~beta
 _ZN8DomBrush17setElementTextureEP11DomProperty@Qt_5 5.6.0~beta
 _ZN8DomBrush18setElementGradientEP11DomGradient@Qt_5 5.6.0~beta
 _ZN8DomBrush18takeElementTextureEv@Qt_5 5.6.0~beta
 _ZN8DomBrush19takeElementGradientEv@Qt_5 5.6.0~beta
 _ZN8DomBrush4readER16QXmlStreamReader@Qt_5 5.6.0~beta
 _ZN8DomBrush5clearEb@Qt_5 5.6.0~beta
 _ZN8DomBrushC1Ev@Qt_5 5.6.0~beta
 _ZN8DomBrushC2Ev@Qt_5 5.6.0~beta
 _ZN8DomBrushD1Ev@Qt_5 5.6.0~beta
 _ZN8DomBrushD2Ev@Qt_5 5.6.0~beta
 _ZN8DomColor13setElementRedEi@Qt_5 5.6.0~beta
 _ZN8DomColor14setElementBlueEi@Qt_5 5.6.0~beta
 _ZN8DomColor15clearElementRedEv@Qt_5 5.6.0~beta
 _ZN8DomColor15setElementGreenEi@Qt_5 5.6.0~beta
 _ZN8DomColor16clearElementBlueEv@Qt_5 5.6.0~beta
 _ZN8DomColor17clearElementGreenEv@Qt_5 5.6.0~beta
 _ZN8DomColor4readER16QXmlStreamReader@Qt_5 5.6.0~beta
 _ZN8DomColor5clearEb@Qt_5 5.6.0~beta
 _ZN8DomColorC1Ev@Qt_5 5.6.0~beta
 _ZN8DomColorC2Ev@Qt_5 5.6.0~beta
 _ZN8DomColorD1Ev@Qt_5 5.6.0~beta
 _ZN8DomColorD2Ev@Qt_5 5.6.0~beta
 _ZN8DomImage14setElementDataEP12DomImageData@Qt_5 5.6.0~beta
 _ZN8DomImage15takeElementDataEv@Qt_5 5.6.0~beta
 _ZN8DomImage16clearElementDataEv@Qt_5 5.6.0~beta
 _ZN8DomImage4readER16QXmlStreamReader@Qt_5 5.6.0~beta
 _ZN8DomImage5clearEb@Qt_5 5.6.0~beta
 _ZN8DomImageC1Ev@Qt_5 5.6.0~beta
 _ZN8DomImageC2Ev@Qt_5 5.6.0~beta
 _ZN8DomImageD1Ev@Qt_5 5.6.0~beta
 _ZN8DomImageD2Ev@Qt_5 5.6.0~beta
 _ZN8DomPoint11setElementXEi@Qt_5 5.6.0~beta
 _ZN8DomPoint11setElementYEi@Qt_5 5.6.0~beta
 _ZN8DomPoint13clearElementXEv@Qt_5 5.6.0~beta
 _ZN8DomPoint13clearElementYEv@Qt_5 5.6.0~beta
 _ZN8DomPoint4readER16QXmlStreamReader@Qt_5 5.6.0~beta
 _ZN8DomPoint5clearEb@Qt_5 5.6.0~beta
 _ZN8DomPointC1Ev@Qt_5 5.6.0~beta
 _ZN8DomPointC2Ev@Qt_5 5.6.0~beta
 _ZN8DomPointD1Ev@Qt_5 5.6.0~beta
 _ZN8DomPointD2Ev@Qt_5 5.6.0~beta
 _ZN8DomRectF11setElementXEd@Qt_5 5.6.0~beta
 _ZN8DomRectF11setElementYEd@Qt_5 5.6.0~beta
 _ZN8DomRectF13clearElementXEv@Qt_5 5.6.0~beta
 _ZN8DomRectF13clearElementYEv@Qt_5 5.6.0~beta
 _ZN8DomRectF15setElementWidthEd@Qt_5 5.6.0~beta
 _ZN8DomRectF16setElementHeightEd@Qt_5 5.6.0~beta
 _ZN8DomRectF17clearElementWidthEv@Qt_5 5.6.0~beta
 _ZN8DomRectF18clearElementHeightEv@Qt_5 5.6.0~beta
 _ZN8DomRectF4readER16QXmlStreamReader@Qt_5 5.6.0~beta
 _ZN8DomRectF5clearEb@Qt_5 5.6.0~beta
 _ZN8DomRectFC1Ev@Qt_5 5.6.0~beta
 _ZN8DomRectFC2Ev@Qt_5 5.6.0~beta
 _ZN8DomRectFD1Ev@Qt_5 5.6.0~beta
 _ZN8DomRectFD2Ev@Qt_5 5.6.0~beta
 _ZN8DomSizeF15setElementWidthEd@Qt_5 5.6.0~beta
 _ZN8DomSizeF16setElementHeightEd@Qt_5 5.6.0~beta
 _ZN8DomSizeF17clearElementWidthEv@Qt_5 5.6.0~beta
 _ZN8DomSizeF18clearElementHeightEv@Qt_5 5.6.0~beta
 _ZN8DomSizeF4readER16QXmlStreamReader@Qt_5 5.6.0~beta
 _ZN8DomSizeF5clearEb@Qt_5 5.6.0~beta
 _ZN8DomSizeFC1Ev@Qt_5 5.6.0~beta
 _ZN8DomSizeFC2Ev@Qt_5 5.6.0~beta
 _ZN8DomSizeFD1Ev@Qt_5 5.6.0~beta
 _ZN8DomSizeFD2Ev@Qt_5 5.6.0~beta
 _ZN8DomSlots14setElementSlotERK11QStringList@Qt_5 5.6.0~beta
 _ZN8DomSlots16setElementSignalERK11QStringList@Qt_5 5.6.0~beta
 _ZN8DomSlots4readER16QXmlStreamReader@Qt_5 5.6.0~beta
 _ZN8DomSlots5clearEb@Qt_5 5.6.0~beta
 _ZN8DomSlotsC1Ev@Qt_5 5.6.0~beta
 _ZN8DomSlotsC2Ev@Qt_5 5.6.0~beta
 _ZN8DomSlotsD1Ev@Qt_5 5.6.0~beta
 _ZN8DomSlotsD2Ev@Qt_5 5.6.0~beta
 _ZN9DomAction18setElementPropertyERK5QListIP11DomPropertyE@Qt_5 5.6.0~beta
 _ZN9DomAction19setElementAttributeERK5QListIP11DomPropertyE@Qt_5 5.6.0~beta
 _ZN9DomAction4readER16QXmlStreamReader@Qt_5 5.6.0~beta
 _ZN9DomAction5clearEb@Qt_5 5.6.0~beta
 _ZN9DomActionC1Ev@Qt_5 5.6.0~beta
 _ZN9DomActionC2Ev@Qt_5 5.6.0~beta
 _ZN9DomActionD1Ev@Qt_5 5.6.0~beta
 _ZN9DomActionD2Ev@Qt_5 5.6.0~beta
 _ZN9DomColumn18setElementPropertyERK5QListIP11DomPropertyE@Qt_5 5.6.0~beta
 _ZN9DomColumn4readER16QXmlStreamReader@Qt_5 5.6.0~beta
 _ZN9DomColumn5clearEb@Qt_5 5.6.0~beta
 _ZN9DomColumnC1Ev@Qt_5 5.6.0~beta
 _ZN9DomColumnC2Ev@Qt_5 5.6.0~beta
 _ZN9DomColumnD1Ev@Qt_5 5.6.0~beta
 _ZN9DomColumnD2Ev@Qt_5 5.6.0~beta
 _ZN9DomHeader4readER16QXmlStreamReader@Qt_5 5.6.0~beta
 _ZN9DomHeader5clearEb@Qt_5 5.6.0~beta
 _ZN9DomHeaderC1Ev@Qt_5 5.6.0~beta
 _ZN9DomHeaderC2Ev@Qt_5 5.6.0~beta
 _ZN9DomHeaderD1Ev@Qt_5 5.6.0~beta
 _ZN9DomHeaderD2Ev@Qt_5 5.6.0~beta
 _ZN9DomImages15setElementImageERK5QListIP8DomImageE@Qt_5 5.6.0~beta
 _ZN9DomImages4readER16QXmlStreamReader@Qt_5 5.6.0~beta
 _ZN9DomImages5clearEb@Qt_5 5.6.0~beta
 _ZN9DomImagesC1Ev@Qt_5 5.6.0~beta
 _ZN9DomImagesC2Ev@Qt_5 5.6.0~beta
 _ZN9DomImagesD1Ev@Qt_5 5.6.0~beta
 _ZN9DomImagesD2Ev@Qt_5 5.6.0~beta
 _ZN9DomLayout14setElementItemERK5QListIP13DomLayoutItemE@Qt_5 5.6.0~beta
 _ZN9DomLayout18setElementPropertyERK5QListIP11DomPropertyE@Qt_5 5.6.0~beta
 _ZN9DomLayout19setElementAttributeERK5QListIP11DomPropertyE@Qt_5 5.6.0~beta
 _ZN9DomLayout4readER16QXmlStreamReader@Qt_5 5.6.0~beta
 _ZN9DomLayout5clearEb@Qt_5 5.6.0~beta
 _ZN9DomLayoutC1Ev@Qt_5 5.6.0~beta
 _ZN9DomLayoutC2Ev@Qt_5 5.6.0~beta
 _ZN9DomLayoutD1Ev@Qt_5 5.6.0~beta
 _ZN9DomLayoutD2Ev@Qt_5 5.6.0~beta
 _ZN9DomLocale4readER16QXmlStreamReader@Qt_5 5.6.0~beta
 _ZN9DomLocale5clearEb@Qt_5 5.6.0~beta
 _ZN9DomLocaleC1Ev@Qt_5 5.6.0~beta
 _ZN9DomLocaleC2Ev@Qt_5 5.6.0~beta
 _ZN9DomLocaleD1Ev@Qt_5 5.6.0~beta
 _ZN9DomLocaleD2Ev@Qt_5 5.6.0~beta
 _ZN9DomPointF11setElementXEd@Qt_5 5.6.0~beta
 _ZN9DomPointF11setElementYEd@Qt_5 5.6.0~beta
 _ZN9DomPointF13clearElementXEv@Qt_5 5.6.0~beta
 _ZN9DomPointF13clearElementYEv@Qt_5 5.6.0~beta
 _ZN9DomPointF4readER16QXmlStreamReader@Qt_5 5.6.0~beta
 _ZN9DomPointF5clearEb@Qt_5 5.6.0~beta
 _ZN9DomPointFC1Ev@Qt_5 5.6.0~beta
 _ZN9DomPointFC2Ev@Qt_5 5.6.0~beta
 _ZN9DomPointFD1Ev@Qt_5 5.6.0~beta
 _ZN9DomPointFD2Ev@Qt_5 5.6.0~beta
 _ZN9DomScript4readER16QXmlStreamReader@Qt_5 5.6.0~beta
 _ZN9DomScript5clearEb@Qt_5 5.6.0~beta
 _ZN9DomScriptC1Ev@Qt_5 5.6.0~beta
 _ZN9DomScriptC2Ev@Qt_5 5.6.0~beta
 _ZN9DomScriptD1Ev@Qt_5 5.6.0~beta
 _ZN9DomScriptD2Ev@Qt_5 5.6.0~beta
 _ZN9DomSpacer18setElementPropertyERK5QListIP11DomPropertyE@Qt_5 5.6.0~beta
 _ZN9DomSpacer4readER16QXmlStreamReader@Qt_5 5.6.0~beta
 _ZN9DomSpacer5clearEb@Qt_5 5.6.0~beta
 _ZN9DomSpacerC1Ev@Qt_5 5.6.0~beta
 _ZN9DomSpacerC2Ev@Qt_5 5.6.0~beta
 _ZN9DomSpacerD1Ev@Qt_5 5.6.0~beta
 _ZN9DomSpacerD2Ev@Qt_5 5.6.0~beta
 _ZN9DomString4readER16QXmlStreamReader@Qt_5 5.6.0~beta
 _ZN9DomString5clearEb@Qt_5 5.6.0~beta
 _ZN9DomStringC1Ev@Qt_5 5.6.0~beta
 _ZN9DomStringC2Ev@Qt_5 5.6.0~beta
 _ZN9DomStringD1Ev@Qt_5 5.6.0~beta
 _ZN9DomStringD2Ev@Qt_5 5.6.0~beta
 _ZN9DomWidget13setElementRowERK5QListIP6DomRowE@Qt_5 5.6.0~beta
 _ZN9DomWidget14setElementItemERK5QListIP7DomItemE@Qt_5 5.6.0~beta
 _ZN9DomWidget15setElementClassERK11QStringList@Qt_5 5.6.0~beta
 _ZN9DomWidget16setElementActionERK5QListIP9DomActionE@Qt_5 5.6.0~beta
 _ZN9DomWidget16setElementColumnERK5QListIP9DomColumnE@Qt_5 5.6.0~beta
 _ZN9DomWidget16setElementLayoutERK5QListIP9DomLayoutE@Qt_5 5.6.0~beta
 _ZN9DomWidget16setElementScriptERK5QListIP9DomScriptE@Qt_5 5.6.0~beta
 _ZN9DomWidget16setElementWidgetERK5QListIPS_E@Qt_5 5.6.0~beta
 _ZN9DomWidget16setElementZOrderERK11QStringList@Qt_5 5.6.0~beta
 _ZN9DomWidget18setElementPropertyERK5QListIP11DomPropertyE@Qt_5 5.6.0~beta
 _ZN9DomWidget19setElementAddActionERK5QListIP12DomActionRefE@Qt_5 5.6.0~beta
 _ZN9DomWidget19setElementAttributeERK5QListIP11DomPropertyE@Qt_5 5.6.0~beta
 _ZN9DomWidget20setElementWidgetDataERK5QListIP13DomWidgetDataE@Qt_5 5.6.0~beta
 _ZN9DomWidget21setElementActionGroupERK5QListIP14DomActionGroupE@Qt_5 5.6.0~beta
 _ZN9DomWidget4readER16QXmlStreamReader@Qt_5 5.6.0~beta
 _ZN9DomWidget5clearEb@Qt_5 5.6.0~beta
 _ZN9DomWidgetC1Ev@Qt_5 5.6.0~beta
 _ZN9DomWidgetC2Ev@Qt_5 5.6.0~beta
 _ZN9DomWidgetD1Ev@Qt_5 5.6.0~beta
 _ZN9DomWidgetD2Ev@Qt_5 5.6.0~beta
 _ZNK10DomInclude5writeER16QXmlStreamWriterRK7QString@Qt_5 5.6.0~beta
 _ZNK10DomPalette5writeER16QXmlStreamWriterRK7QString@Qt_5 5.6.0~beta
 _ZNK11DomDateTime5writeER16QXmlStreamWriterRK7QString@Qt_5 5.6.0~beta
 _ZNK11DomGradient5writeER16QXmlStreamWriterRK7QString@Qt_5 5.6.0~beta
 _ZNK11DomIncludes5writeER16QXmlStreamWriterRK7QString@Qt_5 5.6.0~beta
 _ZNK11DomProperty5writeER16QXmlStreamWriterRK7QString@Qt_5 5.6.0~beta
 _ZNK11DomResource5writeER16QXmlStreamWriterRK7QString@Qt_5 5.6.0~beta
 _ZNK11DomTabStops5writeER16QXmlStreamWriterRK7QString@Qt_5 5.6.0~beta
 _ZNK12DomActionRef5writeER16QXmlStreamWriterRK7QString@Qt_5 5.6.0~beta
 _ZNK12DomColorRole5writeER16QXmlStreamWriterRK7QString@Qt_5 5.6.0~beta
 _ZNK12DomImageData5writeER16QXmlStreamWriterRK7QString@Qt_5 5.6.0~beta
 _ZNK12DomResources5writeER16QXmlStreamWriterRK7QString@Qt_5 5.6.0~beta
 _ZNK12QFormBuilder11pluginPathsEv@Qt_5 5.6.0~beta
 _ZNK12QFormBuilder13customWidgetsEv@Qt_5 5.6.0~beta
 _ZNK12QTextBuilder13toNativeValueERK8QVariant@Qt_5 5.6.0~beta
 _ZNK12QTextBuilder8loadTextEPK11DomProperty@Qt_5 5.6.0~beta
 _ZNK12QTextBuilder8saveTextERK8QVariant@Qt_5 5.6.0~beta
 _ZNK13DomColorGroup5writeER16QXmlStreamWriterRK7QString@Qt_5 5.6.0~beta
 _ZNK13DomConnection5writeER16QXmlStreamWriterRK7QString@Qt_5 5.6.0~beta
 _ZNK13DomLayoutItem5writeER16QXmlStreamWriterRK7QString@Qt_5 5.6.0~beta
 _ZNK13DomProperties5writeER16QXmlStreamWriterRK7QString@Qt_5 5.6.0~beta
 _ZNK13DomSizePolicy5writeER16QXmlStreamWriterRK7QString@Qt_5 5.6.0~beta
 _ZNK13DomStringList5writeER16QXmlStreamWriterRK7QString@Qt_5 5.6.0~beta
 _ZNK13DomWidgetData5writeER16QXmlStreamWriterRK7QString@Qt_5 5.6.0~beta
 _ZNK13QDesignerMenu10findActionERK6QPoint@Qt_5 5.6.0~beta
 _ZNK13QDesignerMenu10formWindowEv@Qt_5 5.6.0~beta
 _ZNK13QDesignerMenu10metaObjectEv@Qt_5 5.6.0~beta
 _ZNK13QDesignerMenu10parentMenuEv@Qt_5 5.6.0~beta
 _ZNK13QDesignerMenu11checkActionEP7QAction@Qt_5 5.6.0~beta
 _ZNK13QDesignerMenu12findRootMenuEv@Qt_5 5.6.0~beta
 _ZNK13QDesignerMenu12safeActionAtEi@Qt_5 5.6.0~beta
 _ZNK13QDesignerMenu13currentActionEv@Qt_5 5.6.0~beta
 _ZNK13QDesignerMenu13parentMenuBarEv@Qt_5 5.6.0~beta
 _ZNK13QDesignerMenu14safeMenuActionEPS_@Qt_5 5.6.0~beta
 _ZNK13QDesignerMenu15realActionCountEv@Qt_5 5.6.0~beta
 _ZNK13QDesignerMenu16canCreateSubMenuEP7QAction@Qt_5 5.6.0~beta
 _ZNK13QDesignerMenu16hasSubMenuPixmapEP7QAction@Qt_5 5.6.0~beta
 _ZNK13QDesignerMenu17findActivatedMenuEv@Qt_5 5.6.0~beta
 _ZNK13QDesignerMenu17subMenuPixmapRectEP7QAction@Qt_5 5.6.0~beta
 _ZNK13QDesignerMenu8draggingEv@Qt_5 5.6.0~beta
 _ZNK13QLayoutWidget10metaObjectEv@Qt_5 5.6.0~beta
 _ZNK13QLayoutWidget15layoutTopMarginEv@Qt_5 5.6.0~beta
 _ZNK13QLayoutWidget16layoutLeftMarginEv@Qt_5 5.6.0~beta
 _ZNK13QLayoutWidget17layoutRightMarginEv@Qt_5 5.6.0~beta
 _ZNK13QLayoutWidget18layoutBottomMarginEv@Qt_5 5.6.0~beta
 _ZNK13QtResourceSet10isModifiedERK7QString@Qt_5 5.6.0~beta
 _ZNK13QtResourceSet23activeResourceFilePathsEv@Qt_5 5.6.0~beta
 _ZNK14DomActionGroup5writeER16QXmlStreamWriterRK7QString@Qt_5 5.6.0~beta
 _ZNK14DomButtonGroup5writeER16QXmlStreamWriterRK7QString@Qt_5 5.6.0~beta
 _ZNK14DomConnections5writeER16QXmlStreamWriterRK7QString@Qt_5 5.6.0~beta
 _ZNK14QToolBoxHelper10metaObjectEv@Qt_5 5.6.0~beta
 _ZNK14QToolBoxHelper21addContextMenuActionsEP5QMenu@Qt_5 5.6.0~beta
 _ZNK14QToolBoxHelper25currentItemBackgroundRoleEv@Qt_5 5.6.0~beta
 _ZNK14QtResourceView10metaObjectEv@Qt_5 5.6.0~beta
 _ZNK14QtResourceView11dragEnabledEv@Qt_5 5.6.0~beta
 _ZNK14QtResourceView11settingsKeyEv@Qt_5 5.6.0~beta
 _ZNK14QtResourceView16selectedResourceEv@Qt_5 5.6.0~beta
 _ZNK14QtResourceView24isResourceEditingEnabledEv@Qt_5 5.6.0~beta
 _ZNK14QtResourceView5modelEv@Qt_5 5.6.0~beta
 _ZNK15DomButtonGroups5writeER16QXmlStreamWriterRK7QString@Qt_5 5.6.0~beta
 _ZNK15DomCustomWidget5writeER16QXmlStreamWriterRK7QString@Qt_5 5.6.0~beta
 _ZNK15DomDesignerData5writeER16QXmlStreamWriterRK7QString@Qt_5 5.6.0~beta
 _ZNK15DomGradientStop5writeER16QXmlStreamWriterRK7QString@Qt_5 5.6.0~beta
 _ZNK15DomPropertyData5writeER16QXmlStreamWriterRK7QString@Qt_5 5.6.0~beta
 _ZNK15DomResourceIcon5writeER16QXmlStreamWriterRK7QString@Qt_5 5.6.0~beta
 _ZNK15QDesignerDialog10metaObjectEv@Qt_5 5.6.0~beta
 _ZNK15QDesignerWidget10formWindowEv@Qt_5 5.6.0~beta
 _ZNK15QDesignerWidget10metaObjectEv@Qt_5 5.6.0~beta
 _ZNK15QtResourceModel10isModifiedERK7QString@Qt_5 5.6.0~beta
 _ZNK15QtResourceModel10metaObjectEv@Qt_5 5.6.0~beta
 _ZNK15QtResourceModel12resourceSetsEv@Qt_5 5.6.0~beta
 _ZNK15QtResourceModel14loadedQrcFilesEv@Qt_5 5.6.0~beta
 _ZNK15QtResourceModel16isWatcherEnabledEv@Qt_5 5.6.0~beta
 _ZNK15QtResourceModel18currentResourceSetEv@Qt_5 5.6.0~beta
 _ZNK15QtResourceModel7qrcPathERK7QString@Qt_5 5.6.0~beta
 _ZNK15QtResourceModel8contentsEv@Qt_5 5.6.0~beta
 _ZNK16DomCustomWidgets5writeER16QXmlStreamWriterRK7QString@Qt_5 5.6.0~beta
 _ZNK16DomLayoutDefault5writeER16QXmlStreamWriterRK7QString@Qt_5 5.6.0~beta
 _ZNK16QDesignerMenuBar10findActionERK6QPoint@Qt_5 5.6.0~beta
 _ZNK16QDesignerMenuBar10formWindowEv@Qt_5 5.6.0~beta
 _ZNK16QDesignerMenuBar10metaObjectEv@Qt_5 5.6.0~beta
 _ZNK16QDesignerMenuBar11checkActionEP7QAction@Qt_5 5.6.0~beta
 _ZNK16QDesignerMenuBar12safeActionAtEi@Qt_5 5.6.0~beta
 _ZNK16QDesignerMenuBar13currentActionEv@Qt_5 5.6.0~beta
 _ZNK16QDesignerMenuBar15realActionCountEv@Qt_5 5.6.0~beta
 _ZNK16QDesignerMenuBar8draggingEv@Qt_5 5.6.0~beta
 _ZNK16QResourceBuilder12loadResourceERK4QDirPK11DomProperty@Qt_5 5.6.0~beta
 _ZNK16QResourceBuilder12saveResourceERK4QDirRK8QVariant@Qt_5 5.6.0~beta
 _ZNK16QResourceBuilder13toNativeValueERK8QVariant@Qt_5 5.6.0~beta
 _ZNK16QResourceBuilder14isResourceTypeERK8QVariant@Qt_5 5.6.0~beta
 _ZNK16QResourceBuilder18isResourcePropertyEPK11DomProperty@Qt_5 5.6.0~beta
 _ZNK17DomConnectionHint5writeER16QXmlStreamWriterRK7QString@Qt_5 5.6.0~beta
 _ZNK17DomLayoutFunction5writeER16QXmlStreamWriterRK7QString@Qt_5 5.6.0~beta
 _ZNK17DomResourcePixmap5writeER16QXmlStreamWriterRK7QString@Qt_5 5.6.0~beta
 _ZNK17DomSizePolicyData5writeER16QXmlStreamWriterRK7QString@Qt_5 5.6.0~beta
 _ZNK17QExtensionFactory10metaObjectEv@Qt_5 5.6.0~beta
 _ZNK17QExtensionFactory15createExtensionEP7QObjectRK7QStringS1_@Qt_5 5.6.0~beta
 _ZNK17QExtensionFactory16extensionManagerEv@Qt_5 5.6.0~beta
 _ZNK17QExtensionFactory9extensionEP7QObjectRK7QString@Qt_5 5.6.0~beta
 _ZNK17QExtensionManager10metaObjectEv@Qt_5 5.6.0~beta
 _ZNK17QExtensionManager9extensionEP7QObjectRK7QString@Qt_5 5.6.0~beta
 _ZNK17QFormBuilderExtra11textBuilderEv@Qt_5 5.6.0~beta
 _ZNK17QFormBuilderExtra12parentWidgetEv@Qt_5 5.6.0~beta
 _ZNK17QFormBuilderExtra15resourceBuilderEv@Qt_5 5.6.0~beta
 _ZNK17QFormBuilderExtra17parentWidgetIsSetEv@Qt_5 5.6.0~beta
 _ZNK17QFormBuilderExtra21customWidgetBaseClassERK7QString@Qt_5 5.6.0~beta
 _ZNK17QFormBuilderExtra22processingLayoutWidgetEv@Qt_5 5.6.0~beta
 _ZNK17QFormBuilderExtra23applyInternalPropertiesEv@Qt_5 5.6.0~beta
 _ZNK17QFormBuilderExtra23isCustomWidgetContainerERK7QString@Qt_5 5.6.0~beta
 _ZNK17QFormBuilderExtra25customWidgetAddPageMethodERK7QString@Qt_5 5.6.0~beta
 _ZNK18DomConnectionHints5writeER16QXmlStreamWriterRK7QString@Qt_5 5.6.0~beta
 _ZNK18DomPropertyToolTip5writeER16QXmlStreamWriterRK7QString@Qt_5 5.6.0~beta
 _ZNK18QDesignerQSettings5valueERK7QStringRK8QVariant@Qt_5 5.6.0~beta
 _ZNK18QDesignerQSettings8containsERK7QString@Qt_5 5.6.0~beta
 _ZNK18qdesigner_internal10CodeDialog10metaObjectEv@Qt_5 5.6.0~beta
 _ZNK18qdesigner_internal10CodeDialog12formFileNameEv@Qt_5 5.6.0~beta
 _ZNK18qdesigner_internal10CodeDialog4codeEv@Qt_5 5.6.0~beta
 _ZNK18qdesigner_internal10Connection10groundRectEv@Qt_5 5.6.0~beta
 _ZNK18qdesigner_internal10Connection11endPointPosENS_7CETypes8EndPoint4TypeE@Qt_5 5.6.0~beta
 _ZNK18qdesigner_internal10Connection12endPointRectENS_7CETypes8EndPoint4TypeE@Qt_5 5.6.0~beta
 _ZNK18qdesigner_internal10Connection5paintEP8QPainter@Qt_5 5.6.0~beta
 _ZNK18qdesigner_internal10Connection6groundEv@Qt_5 5.6.0~beta
 _ZNK18qdesigner_internal10Connection6regionEv@Qt_5 5.6.0~beta
 _ZNK18qdesigner_internal10Connection6updateEb@Qt_5 5.6.0~beta
 _ZNK18qdesigner_internal10Connection8containsERK6QPoint@Qt_5 5.6.0~beta
 _ZNK18qdesigner_internal10Connection8labelDirENS_7CETypes8EndPoint4TypeE@Qt_5 5.6.0~beta
 _ZNK18qdesigner_internal10Connection9isVisibleEv@Qt_5 5.6.0~beta
 _ZNK18qdesigner_internal10Connection9labelRectENS_7CETypes8EndPoint4TypeE@Qt_5 5.6.0~beta
 _ZNK18qdesigner_internal10ZoomWidget10metaObjectEv@Qt_5 5.6.0~beta
 _ZNK18qdesigner_internal10ZoomWidget10widgetSizeEv@Qt_5 5.6.0~beta
 _ZNK18qdesigner_internal10ZoomWidget14viewPortMarginEv@Qt_5 5.6.0~beta
 _ZNK18qdesigner_internal10ZoomWidget15itemAcceptDropsEv@Qt_5 5.6.0~beta
 _ZNK18qdesigner_internal10ZoomWidget15minimumSizeHintEv@Qt_5 5.6.0~beta
 _ZNK18qdesigner_internal10ZoomWidget17createProxyWidgetEP13QGraphicsItem6QFlagsIN2Qt10WindowTypeEE@Qt_5 5.6.0~beta
 _ZNK18qdesigner_internal10ZoomWidget20widgetSizeToViewSizeERK5QSizePb@Qt_5 5.6.0~beta
 _ZNK18qdesigner_internal10ZoomWidget21widgetDecorationSizeFEv@Qt_5 5.6.0~beta
 _ZNK18qdesigner_internal10ZoomWidget30isWidgetZoomContextMenuEnabledEv@Qt_5 5.6.0~beta
 _ZNK18qdesigner_internal10ZoomWidget4dumpEv@Qt_5 5.6.0~beta
 _ZNK18qdesigner_internal10ZoomWidget8sizeHintEv@Qt_5 5.6.0~beta
 _ZNK18qdesigner_internal11ActionModel10actionNameEi@Qt_5 5.6.0~beta
 _ZNK18qdesigner_internal11ActionModel10findActionEP7QAction@Qt_5 5.6.0~beta
 _ZNK18qdesigner_internal11ActionModel10metaObjectEv@Qt_5 5.6.0~beta
 _ZNK18qdesigner_internal11ActionModel8actionAtERK11QModelIndex@Qt_5 5.6.0~beta
 _ZNK18qdesigner_internal11ActionModel8mimeDataERK5QListI11QModelIndexE@Qt_5 5.6.0~beta
 _ZNK18qdesigner_internal11ActionModel9mimeTypesEv@Qt_5 5.6.0~beta
 _ZNK18qdesigner_internal11OrderDialog10metaObjectEv@Qt_5 5.6.0~beta
 _ZNK18qdesigner_internal11OrderDialog8pageListEv@Qt_5 5.6.0~beta
 _ZNK18qdesigner_internal12ActionEditor10formWindowEv@Qt_5 5.6.0~beta
 _ZNK18qdesigner_internal12ActionEditor10metaObjectEv@Qt_5 5.6.0~beta
 _ZNK18qdesigner_internal12ActionEditor12actionDeleteEv@Qt_5 5.6.0~beta
 _ZNK18qdesigner_internal12ActionEditor4coreEv@Qt_5 5.6.0~beta
 _ZNK18qdesigner_internal12ActionEditor6filterEv@Qt_5 5.6.0~beta
 _ZNK18qdesigner_internal12ActionEditor9actionNewEv@Qt_5 5.6.0~beta
 _ZNK18qdesigner_internal12IconSelector10metaObjectEv@Qt_5 5.6.0~beta
 _ZNK18qdesigner_internal12IconSelector4iconEv@Qt_5 5.6.0~beta
 _ZNK18qdesigner_internal12ListContents14createTreeItemEPNS_17DesignerIconCacheE@Qt_5 5.6.0~beta
 _ZNK18qdesigner_internal12ListContents15applyToComboBoxEP9QComboBoxPNS_17DesignerIconCacheE@Qt_5 5.6.0~beta
 _ZNK18qdesigner_internal12ListContents17applyToListWidgetEP11QListWidgetPNS_17DesignerIconCacheEb@Qt_5 5.6.0~beta
 _ZNK18qdesigner_internal12MetaDataBase10metaObjectEv@Qt_5 5.6.0~beta
 _ZNK18qdesigner_internal12MetaDataBase16metaDataBaseItemEP7QObject@Qt_5 5.6.0~beta
 _ZNK18qdesigner_internal12MetaDataBase4coreEv@Qt_5 5.6.0~beta
 _ZNK18qdesigner_internal12MetaDataBase7objectsEv@Qt_5 5.6.0~beta
 _ZNK18qdesigner_internal13DeviceProfile10fontFamilyEv@Qt_5 5.6.0~beta
 _ZNK18qdesigner_internal13DeviceProfile13fontPointSizeEv@Qt_5 5.6.0~beta
 _ZNK18qdesigner_internal13DeviceProfile4dpiXEv@Qt_5 5.6.0~beta
 _ZNK18qdesigner_internal13DeviceProfile4dpiYEv@Qt_5 5.6.0~beta
 _ZNK18qdesigner_internal13DeviceProfile4nameEv@Qt_5 5.6.0~beta
 _ZNK18qdesigner_internal13DeviceProfile5applyEPK28QDesignerFormEditorInterfaceP7QWidgetNS0_9ApplyModeE@Qt_5 5.6.0~beta
 _ZNK18qdesigner_internal13DeviceProfile5styleEv@Qt_5 5.6.0~beta
 _ZNK18qdesigner_internal13DeviceProfile5toXmlEv@Qt_5 5.6.0~beta
 _ZNK18qdesigner_internal13DeviceProfile6equalsERKS0_@Qt_5 5.6.0~beta
 _ZNK18qdesigner_internal13DeviceProfile7isEmptyEv@Qt_5 5.6.0~beta
 _ZNK18qdesigner_internal13DeviceProfile8toStringEv@Qt_5 5.6.0~beta
 _ZNK18qdesigner_internal13NewFormWidget10metaObjectEv@Qt_5 5.6.0~beta
 _ZNK18qdesigner_internal13NewFormWidget12templateSizeEv@Qt_5 5.6.0~beta
 _ZNK18qdesigner_internal13NewFormWidget14itemToTemplateEPK15QTreeWidgetItemP7QString@Qt_5 5.6.0~beta
 _ZNK18qdesigner_internal13NewFormWidget17formPreviewPixmapER9QIODeviceRK7QString@Qt_5 5.6.0~beta
 _ZNK18qdesigner_internal13NewFormWidget17formPreviewPixmapERK7QString@Qt_5 5.6.0~beta
 _ZNK18qdesigner_internal13NewFormWidget17profileComboIndexEv@Qt_5 5.6.0~beta
 _ZNK18qdesigner_internal13NewFormWidget18hasCurrentTemplateEv@Qt_5 5.6.0~beta
 _ZNK18qdesigner_internal13NewFormWidget20currentDeviceProfileEv@Qt_5 5.6.0~beta
 _ZNK18qdesigner_internal13SheetDelegate10metaObjectEv@Qt_5 5.6.0~beta
 _ZNK18qdesigner_internal13SheetDelegate5paintEP8QPainterRK20QStyleOptionViewItemRK11QModelIndex@Qt_5 5.6.0~beta
 _ZNK18qdesigner_internal13SheetDelegate8sizeHintERK20QStyleOptionViewItemRK11QModelIndex@Qt_5 5.6.0~beta
 _ZNK18qdesigner_internal13WidgetFactory10initializeEP7QObject@Qt_5 5.6.0~beta
 _ZNK18qdesigner_internal13WidgetFactory10metaObjectEv@Qt_5 5.6.0~beta
 _ZNK18qdesigner_internal13WidgetFactory12createLayoutEP7QWidgetP7QLayouti@Qt_5 5.6.0~beta
 _ZNK18qdesigner_internal13WidgetFactory12createObjectERK7QStringP7QObject@Qt_5 5.6.0~beta
 _ZNK18qdesigner_internal13WidgetFactory12createWidgetERK7QStringP7QWidget@Qt_5 5.6.0~beta
 _ZNK18qdesigner_internal13WidgetFactory16initializeCommonEP7QWidget@Qt_5 5.6.0~beta
 _ZNK18qdesigner_internal13WidgetFactory17containerOfWidgetEP7QWidget@Qt_5 5.6.0~beta
 _ZNK18qdesigner_internal13WidgetFactory17initializePreviewEP7QWidget@Qt_5 5.6.0~beta
 _ZNK18qdesigner_internal13WidgetFactory17widgetOfContainerEP7QWidget@Qt_5 5.6.0~beta
 _ZNK18qdesigner_internal13WidgetFactory18createCustomWidgetERK7QStringP7QWidgetPb@Qt_5 5.6.0~beta
 _ZNK18qdesigner_internal13WidgetFactory4coreEv@Qt_5 5.6.0~beta
 _ZNK18qdesigner_internal13WidgetFactory5styleEv@Qt_5 5.6.0~beta
 _ZNK18qdesigner_internal13WidgetFactory9styleNameEv@Qt_5 5.6.0~beta
 _ZNK18qdesigner_internal14ConnectionEdit10endPointAtERK6QPoint@Qt_5 5.6.0~beta
 _ZNK18qdesigner_internal14ConnectionEdit10metaObjectEv@Qt_5 5.6.0~beta
 _ZNK18qdesigner_internal14ConnectionEdit10widgetRectEP7QWidget@Qt_5 5.6.0~beta
 _ZNK18qdesigner_internal14ConnectionEdit12connectionAtERK6QPoint@Qt_5 5.6.0~beta
 _ZNK18qdesigner_internal14ConnectionEdit15paintConnectionEP8QPainterPNS_10ConnectionEP4QMapIP7QWidgetS7_ES9_@Qt_5 5.6.0~beta
 _ZNK18qdesigner_internal14ConnectionEdit5stateEv@Qt_5 5.6.0~beta
 _ZNK18qdesigner_internal14ConnectionEdit8selectedEPKNS_10ConnectionE@Qt_5 5.6.0~beta
 _ZNK18qdesigner_internal14ConnectionEdit8widgetAtERK6QPoint@Qt_5 5.6.0~beta
 _ZNK18qdesigner_internal14CssHighlighter10metaObjectEv@Qt_5 5.6.0~beta
 _ZNK18qdesigner_internal14FormLayoutMenu10metaObjectEv@Qt_5 5.6.0~beta
 _ZNK18qdesigner_internal14FormWindowBase10hasFeatureE6QFlagsIN28QDesignerFormWindowInterface11FeatureFlagEE@Qt_5 5.6.0~beta
 _ZNK18qdesigner_internal14FormWindowBase10metaObjectEv@Qt_5 5.6.0~beta
 _ZNK18qdesigner_internal14FormWindowBase11gridVisibleEv@Qt_5 5.6.0~beta
 _ZNK18qdesigner_internal14FormWindowBase11hasFormGridEv@Qt_5 5.6.0~beta
 _ZNK18qdesigner_internal14FormWindowBase11pixmapCacheEv@Qt_5 5.6.0~beta
 _ZNK18qdesigner_internal14FormWindowBase11resourceSetEv@Qt_5 5.6.0~beta
 _ZNK18qdesigner_internal14FormWindowBase12designerGridEv@Qt_5 5.6.0~beta
 _ZNK18qdesigner_internal14FormWindowBase13checkContentsEv@Qt_5 5.6.0~beta
 _ZNK18qdesigner_internal14FormWindowBase13deviceProfileEv@Qt_5 5.6.0~beta
 _ZNK18qdesigner_internal14FormWindowBase17deviceProfileNameEv@Qt_5 5.6.0~beta
 _ZNK18qdesigner_internal14FormWindowBase18lineTerminatorModeEv@Qt_5 5.6.0~beta
 _ZNK18qdesigner_internal14FormWindowBase20resourceFileSaveModeEv@Qt_5 5.6.0~beta
 _ZNK18qdesigner_internal14FormWindowBase4gridEv@Qt_5 5.6.0~beta
 _ZNK18qdesigner_internal14FormWindowBase8featuresEv@Qt_5 5.6.0~beta
 _ZNK18qdesigner_internal14FormWindowBase9iconCacheEv@Qt_5 5.6.0~beta
 _ZNK18qdesigner_internal14FormWindowBase9styleNameEv@Qt_5 5.6.0~beta
 _ZNK18qdesigner_internal14PreviewManager10metaObjectEv@Qt_5 5.6.0~beta
 _ZNK18qdesigner_internal14PreviewManager12previewCountEv@Qt_5 5.6.0~beta
 _ZNK18qdesigner_internal14PreviewManager18previewWindowFlagsEPK7QWidget@Qt_5 5.6.0~beta
 _ZNK18qdesigner_internal14PreviewManager25createDeviceSkinContainerEPK28QDesignerFormWindowInterface@Qt_5 5.6.0~beta
 _ZNK18qdesigner_internal14PropertyHelper10updateMaskEv@Qt_5 5.6.0~beta
 _ZNK18qdesigner_internal14PropertyHelper11integrationEP28QDesignerFormWindowInterface@Qt_5 5.6.0~beta
 _ZNK18qdesigner_internal14PropertyHelper16findDefaultValueEP28QDesignerFormWindowInterface@Qt_5 5.6.0~beta
 _ZNK18qdesigner_internal14PropertyHelper22ensureUniqueObjectNameEP28QDesignerFormWindowInterfaceP7QObject@Qt_5 5.6.0~beta
 _ZNK18qdesigner_internal14PropertyHelper8canMergeERKS0_@Qt_5 5.6.0~beta
 _ZNK18qdesigner_internal14QLayoutSupport10findItemAtERK6QPoint@Qt_5 5.6.0~beta
 _ZNK18qdesigner_internal14QLayoutSupport10gridLayoutEv@Qt_5 5.6.0~beta
 _ZNK18qdesigner_internal14QLayoutSupport10metaObjectEv@Qt_5 5.6.0~beta
 _ZNK18qdesigner_internal14QLayoutSupport6layoutEv@Qt_5 5.6.0~beta
 _ZNK18qdesigner_internal14QLayoutSupport7indexOfEP11QLayoutItem@Qt_5 5.6.0~beta
 _ZNK18qdesigner_internal14QLayoutSupport7indexOfEP7QWidget@Qt_5 5.6.0~beta
 _ZNK18qdesigner_internal14QLayoutSupport7widgetsEP7QLayout@Qt_5 5.6.0~beta
 _ZNK18qdesigner_internal14QLayoutSupport8itemInfoEi@Qt_5 5.6.0~beta
 _ZNK18qdesigner_internal14WidgetDataBase10metaObjectEv@Qt_5 5.6.0~beta
 _ZNK18qdesigner_internal14WidgetDataBase13indexOfObjectEP7QObjectb@Qt_5 5.6.0~beta
 _ZNK18qdesigner_internal14WidgetDataBase4coreEv@Qt_5 5.6.0~beta
 _ZNK18qdesigner_internal15IconThemeEditor10metaObjectEv@Qt_5 5.6.0~beta
 _ZNK18qdesigner_internal15IconThemeEditor5themeEv@Qt_5 5.6.0~beta
 _ZNK18qdesigner_internal15InvisibleWidget10metaObjectEv@Qt_5 5.6.0~beta
 _ZNK18qdesigner_internal16DesignerMetaEnum18messageParseFailedERK7QString@Qt_5 5.6.0~beta
 _ZNK18qdesigner_internal16DesignerMetaEnum21messageToStringFailedEi@Qt_5 5.6.0~beta
 _ZNK18qdesigner_internal16DesignerMetaEnum8toStringEiNS0_17SerializationModeEPb@Qt_5 5.6.0~beta
 _ZNK18qdesigner_internal16LayoutProperties15toPropertySheetEPK28QDesignerFormEditorInterfaceP7QLayoutib@Qt_5 5.6.0~beta
 _ZNK18qdesigner_internal16MetaDataBaseItem11fakeSignalsEv@Qt_5 5.6.0~beta
 _ZNK18qdesigner_internal16MetaDataBaseItem15customClassNameEv@Qt_5 5.6.0~beta
 _ZNK18qdesigner_internal16MetaDataBaseItem4nameEv@Qt_5 5.6.0~beta
 _ZNK18qdesigner_internal16MetaDataBaseItem7enabledEv@Qt_5 5.6.0~beta
 _ZNK18qdesigner_internal16MetaDataBaseItem8tabOrderEv@Qt_5 5.6.0~beta
 _ZNK18qdesigner_internal16MetaDataBaseItem9fakeSlotsEv@Qt_5 5.6.0~beta
 _ZNK18qdesigner_internal16QDesignerDnDItem10decorationEv@Qt_5 5.6.0~beta
 _ZNK18qdesigner_internal16QDesignerDnDItem4typeEv@Qt_5 5.6.0~beta
 _ZNK18qdesigner_internal16QDesignerDnDItem5domUiEv@Qt_5 5.6.0~beta
 _ZNK18qdesigner_internal16QDesignerDnDItem6sourceEv@Qt_5 5.6.0~beta
 _ZNK18qdesigner_internal16QDesignerDnDItem6widgetEv@Qt_5 5.6.0~beta
 _ZNK18qdesigner_internal16QDesignerDnDItem7hotSpotEv@Qt_5 5.6.0~beta
 _ZNK18qdesigner_internal16SignalSlotDialog10metaObjectEv@Qt_5 5.6.0~beta
 _ZNK18qdesigner_internal16StyleSheetEditor10metaObjectEv@Qt_5 5.6.0~beta
 _ZNK18qdesigner_internal17DesignerIconCache10metaObjectEv@Qt_5 5.6.0~beta
 _ZNK18qdesigner_internal17DesignerIconCache4iconERKNS_22PropertySheetIconValueE@Qt_5 5.6.0~beta
 _ZNK18qdesigner_internal17DesignerMetaFlags10parseFlagsERK7QStringPb@Qt_5 5.6.0~beta
 _ZNK18qdesigner_internal17DesignerMetaFlags18messageParseFailedERK7QString@Qt_5 5.6.0~beta
 _ZNK18qdesigner_internal17DesignerMetaFlags5flagsEi@Qt_5 5.6.0~beta
 _ZNK18qdesigner_internal17DesignerMetaFlags8toStringEiNS0_17SerializationModeE@Qt_5 5.6.0~beta
 _ZNK18qdesigner_internal17PromotionTaskMenu10formWindowEv@Qt_5 5.6.0~beta
 _ZNK18qdesigner_internal17PromotionTaskMenu10metaObjectEv@Qt_5 5.6.0~beta
 _ZNK18qdesigner_internal17PromotionTaskMenu22promotionSelectionListEP28QDesignerFormWindowInterface@Qt_5 5.6.0~beta
 _ZNK18qdesigner_internal17PromotionTaskMenu4modeEv@Qt_5 5.6.0~beta
 _ZNK18qdesigner_internal17QDesignerMimeData10metaObjectEv@Qt_5 5.6.0~beta
 _ZNK18qdesigner_internal17QDesignerMimeData11acceptEventEP10QDropEvent@Qt_5 5.6.0~beta
 _ZNK18qdesigner_internal17QDesignerMimeData14moveDecorationERK6QPoint@Qt_5 5.6.0~beta
 _ZNK18qdesigner_internal17QDesignerMimeData18proposedDropActionEv@Qt_5 5.6.0~beta
 _ZNK18qdesigner_internal17QDesignerTaskMenu10formWindowEv@Qt_5 5.6.0~beta
 _ZNK18qdesigner_internal17QDesignerTaskMenu10metaObjectEv@Qt_5 5.6.0~beta
 _ZNK18qdesigner_internal17QDesignerTaskMenu11taskActionsEv@Qt_5 5.6.0~beta
 _ZNK18qdesigner_internal17QDesignerTaskMenu17applicableObjectsEPK28QDesignerFormWindowInterfaceNS0_12PropertyModeE@Qt_5 5.6.0~beta
 _ZNK18qdesigner_internal17QDesignerTaskMenu17applicableWidgetsEPK28QDesignerFormWindowInterfaceNS0_12PropertyModeE@Qt_5 5.6.0~beta
 _ZNK18qdesigner_internal17QDesignerTaskMenu6widgetEv@Qt_5 5.6.0~beta
 _ZNK18qdesigner_internal18BreakLayoutCommand12propertyMaskEv@Qt_5 5.6.0~beta
 _ZNK18qdesigner_internal18BreakLayoutCommand16layoutPropertiesEv@Qt_5 5.6.0~beta
 _ZNK18qdesigner_internal18LowerWidgetCommand13reorderWidgetERK5QListIP7QWidgetES3_@Qt_5 5.6.0~beta
 _ZNK18qdesigner_internal18LowerWidgetCommand7reorderEP7QWidget@Qt_5 5.6.0~beta
 _ZNK18qdesigner_internal18QDesignerPromotion13canBePromotedEPK36QDesignerWidgetDataBaseItemInterface@Qt_5 5.6.0~beta
 _ZNK18qdesigner_internal18QDesignerPromotion15promotedClassesEv@Qt_5 5.6.0~beta
 _ZNK18qdesigner_internal18QDesignerPromotion20promotionBaseClassesEv@Qt_5 5.6.0~beta
 _ZNK18qdesigner_internal18QDesignerPromotion28referencedPromotedClassNamesEv@Qt_5 5.6.0~beta
 _ZNK18qdesigner_internal18QDesignerWidgetBox10metaObjectEv@Qt_5 5.6.0~beta
 _ZNK18qdesigner_internal18QDesignerWidgetBox8loadModeEv@Qt_5 5.6.0~beta
 _ZNK18qdesigner_internal18RaiseWidgetCommand13reorderWidgetERK5QListIP7QWidgetES3_@Qt_5 5.6.0~beta
 _ZNK18qdesigner_internal18RaiseWidgetCommand7reorderEP7QWidget@Qt_5 5.6.0~beta
 _ZNK18qdesigner_internal18SetPropertyCommand2idEv@Qt_5 5.6.0~beta
 _ZNK18qdesigner_internal18TextPropertyEditor10metaObjectEv@Qt_5 5.6.0~beta
 _ZNK18qdesigner_internal18TextPropertyEditor15minimumSizeHintEv@Qt_5 5.6.0~beta
 _ZNK18qdesigner_internal18TextPropertyEditor18hasAcceptableInputEv@Qt_5 5.6.0~beta
 _ZNK18qdesigner_internal18TextPropertyEditor4textEv@Qt_5 5.6.0~beta
 _ZNK18qdesigner_internal18TextPropertyEditor8sizeHintEv@Qt_5 5.6.0~beta
 _ZNK18qdesigner_internal18ToolBarEventFilter10formWindowEv@Qt_5 5.6.0~beta
 _ZNK18qdesigner_internal18ToolBarEventFilter10metaObjectEv@Qt_5 5.6.0~beta
 _ZNK18qdesigner_internal18TreeWidgetContents12ItemContents14createTreeItemEPNS_17DesignerIconCacheEb@Qt_5 5.6.0~beta
 _ZNK18qdesigner_internal18TreeWidgetContents12ItemContentseqERKS1_@Qt_5 5.6.0~beta
 _ZNK18qdesigner_internal18TreeWidgetContents17applyToTreeWidgetEP11QTreeWidgetPNS_17DesignerIconCacheEb@Qt_5 5.6.0~beta
 _ZNK18qdesigner_internal18TreeWidgetContentseqERKS0_@Qt_5 5.6.0~beta
 _ZNK18qdesigner_internal18WidgetDataBaseItem10isPromotedEv@Qt_5 5.6.0~beta
 _ZNK18qdesigner_internal18WidgetDataBaseItem10pluginPathEv@Qt_5 5.6.0~beta
 _ZNK18qdesigner_internal18WidgetDataBaseItem11fakeSignalsEv@Qt_5 5.6.0~beta
 _ZNK18qdesigner_internal18WidgetDataBaseItem11includeFileEv@Qt_5 5.6.0~beta
 _ZNK18qdesigner_internal18WidgetDataBaseItem11isContainerEv@Qt_5 5.6.0~beta
 _ZNK18qdesigner_internal18WidgetDataBaseItem13addPageMethodEv@Qt_5 5.6.0~beta
 _ZNK18qdesigner_internal18WidgetDataBaseItem21defaultPropertyValuesEv@Qt_5 5.6.0~beta
 _ZNK18qdesigner_internal18WidgetDataBaseItem4iconEv@Qt_5 5.6.0~beta
 _ZNK18qdesigner_internal18WidgetDataBaseItem4nameEv@Qt_5 5.6.0~beta
 _ZNK18qdesigner_internal18WidgetDataBaseItem5groupEv@Qt_5 5.6.0~beta
 _ZNK18qdesigner_internal18WidgetDataBaseItem7extendsEv@Qt_5 5.6.0~beta
 _ZNK18qdesigner_internal18WidgetDataBaseItem7toolTipEv@Qt_5 5.6.0~beta
 _ZNK18qdesigner_internal18WidgetDataBaseItem8isCompatEv@Qt_5 5.6.0~beta
 _ZNK18qdesigner_internal18WidgetDataBaseItem8isCustomEv@Qt_5 5.6.0~beta
 _ZNK18qdesigner_internal18WidgetDataBaseItem9fakeSlotsEv@Qt_5 5.6.0~beta
 _ZNK18qdesigner_internal18WidgetDataBaseItem9whatsThisEv@Qt_5 5.6.0~beta
 _ZNK18qdesigner_internal19DesignerPixmapCache10metaObjectEv@Qt_5 5.6.0~beta
 _ZNK18qdesigner_internal19DesignerPixmapCache6pixmapERKNS_24PropertySheetPixmapValueE@Qt_5 5.6.0~beta
 _ZNK18qdesigner_internal19PropertyListCommand12propertyNameEv@Qt_5 5.6.0~beta
 _ZNK18qdesigner_internal19PropertyListCommand13canMergeListsERK5QListI14QSharedPointerINS_14PropertyHelperEEE@Qt_5 5.6.0~beta
 _ZNK18qdesigner_internal19PropertyListCommand15specialPropertyEv@Qt_5 5.6.0~beta
 _ZNK18qdesigner_internal19PropertyListCommand19PropertyDescription5debugEv@Qt_5 5.6.0~beta
 _ZNK18qdesigner_internal19PropertyListCommand19PropertyDescription6equalsERKS1_@Qt_5 5.6.0~beta
 _ZNK18qdesigner_internal19PropertyListCommand20createPropertyHelperEP7QObjectNS_15SpecialPropertyEP31QDesignerPropertySheetExtensioni@Qt_5 5.6.0~beta
 _ZNK18qdesigner_internal19PropertyListCommand6objectEi@Qt_5 5.6.0~beta
 _ZNK18qdesigner_internal19PropertyListCommand8oldValueEi@Qt_5 5.6.0~beta
 _ZNK18qdesigner_internal19QDesignerWidgetItem10metaObjectEv@Qt_5 5.6.0~beta
 _ZNK18qdesigner_internal19QDesignerWidgetItem11minimumSizeEv@Qt_5 5.6.0~beta
 _ZNK18qdesigner_internal19QDesignerWidgetItem16containingLayoutEv@Qt_5 5.6.0~beta
 _ZNK18qdesigner_internal19QDesignerWidgetItem17nonLaidOutMinSizeEv@Qt_5 5.6.0~beta
 _ZNK18qdesigner_internal19QDesignerWidgetItem18nonLaidOutSizeHintEv@Qt_5 5.6.0~beta
 _ZNK18qdesigner_internal19QDesignerWidgetItem6expandEP5QSize@Qt_5 5.6.0~beta
 _ZNK18qdesigner_internal19QDesignerWidgetItem8sizeHintEv@Qt_5 5.6.0~beta
 _ZNK18qdesigner_internal19TableWidgetContents18applyToTableWidgetEP12QTableWidgetPNS_17DesignerIconCacheEb@Qt_5 5.6.0~beta
 _ZNK18qdesigner_internal19TableWidgetContentseqERKS0_@Qt_5 5.6.0~beta
 _ZNK18qdesigner_internal20CursorSelectionState7restoreEP28QDesignerFormWindowInterface@Qt_5 5.6.0~beta
 _ZNK18qdesigner_internal20FormBuilderClipboard5emptyEv@Qt_5 5.6.0~beta
 _ZNK18qdesigner_internal20PreviewConfiguration10deviceSkinEv@Qt_5 5.6.0~beta
 _ZNK18qdesigner_internal20PreviewConfiguration10toSettingsERK7QStringP26QDesignerSettingsInterface@Qt_5 5.6.0~beta
 _ZNK18qdesigner_internal20PreviewConfiguration21applicationStyleSheetEv@Qt_5 5.6.0~beta
 _ZNK18qdesigner_internal20PreviewConfiguration5styleEv@Qt_5 5.6.0~beta
 _ZNK18qdesigner_internal20QDesignerFormBuilder11systemStyleEv@Qt_5 5.6.0~beta
 _ZNK18qdesigner_internal20RichTextEditorDialog10metaObjectEv@Qt_5 5.6.0~beta
 _ZNK18qdesigner_internal20RichTextEditorDialog4textEN2Qt10TextFormatE@Qt_5 5.6.0~beta
 _ZNK18qdesigner_internal21PlainTextEditorDialog10metaObjectEv@Qt_5 5.6.0~beta
 _ZNK18qdesigner_internal21PlainTextEditorDialog4textEv@Qt_5 5.6.0~beta
 _ZNK18qdesigner_internal22ContainerWidgetCommand18containerExtensionEv@Qt_5 5.6.0~beta
 _ZNK18qdesigner_internal22LanguageResourceDialog10metaObjectEv@Qt_5 5.6.0~beta
 _ZNK18qdesigner_internal22LanguageResourceDialog11currentPathEv@Qt_5 5.6.0~beta
 _ZNK18qdesigner_internal22PropertySheetIconValue4maskEv@Qt_5 5.6.0~beta
 _ZNK18qdesigner_internal22PropertySheetIconValue5pathsEv@Qt_5 5.6.0~beta
 _ZNK18qdesigner_internal22PropertySheetIconValue5themeEv@Qt_5 5.6.0~beta
 _ZNK18qdesigner_internal22PropertySheetIconValue6equalsERKS0_@Qt_5 5.6.0~beta
 _ZNK18qdesigner_internal22PropertySheetIconValue6pixmapEN5QIcon4ModeENS1_5StateE@Qt_5 5.6.0~beta
 _ZNK18qdesigner_internal22PropertySheetIconValue6themedEv@Qt_5 5.6.0~beta
 _ZNK18qdesigner_internal22PropertySheetIconValue7compareERKS0_@Qt_5 5.6.0~beta
 _ZNK18qdesigner_internal22PropertySheetIconValue7isEmptyEv@Qt_5 5.6.0~beta
 _ZNK18qdesigner_internal22PropertySheetIconValue8unthemedEv@Qt_5 5.6.0~beta
 _ZNK18qdesigner_internal22PropertySheetIconValueltERKS0_@Qt_5 5.6.0~beta
 _ZNK18qdesigner_internal22QDesignerIntrospection10metaObjectEPK7QObject@Qt_5 5.6.0~beta
 _ZNK18qdesigner_internal22QDesignerIntrospection24metaObjectForQMetaObjectEPK11QMetaObject@Qt_5 5.6.0~beta
 _ZNK18qdesigner_internal22StyleSheetEditorDialog10metaObjectEv@Qt_5 5.6.0~beta
 _ZNK18qdesigner_internal22StyleSheetEditorDialog4textEv@Qt_5 5.6.0~beta
 _ZNK18qdesigner_internal22StyleSheetEditorDialog9buttonBoxEv@Qt_5 5.6.0~beta
 _ZNK18qdesigner_internal23AdjustWidgetSizeCommand15widgetForAdjustEv@Qt_5 5.6.0~beta
 _ZNK18qdesigner_internal23AdjustWidgetSizeCommand20updatePropertyEditorEv@Qt_5 5.6.0~beta
 _ZNK18qdesigner_internal23QDesignerPropertyEditor10metaObjectEv@Qt_5 5.6.0~beta
 _ZNK18qdesigner_internal23QDesignerSharedSettings11defaultGridEv@Qt_5 5.6.0~beta
 _ZNK18qdesigner_internal23QDesignerSharedSettings11newFormSizeEv@Qt_5 5.6.0~beta
 _ZNK18qdesigner_internal23QDesignerSharedSettings11zoomEnabledEv@Qt_5 5.6.0~beta
 _ZNK18qdesigner_internal23QDesignerSharedSettings12formTemplateEv@Qt_5 5.6.0~beta
 _ZNK18qdesigner_internal23QDesignerSharedSettings14deviceProfilesEv@Qt_5 5.6.0~beta
 _ZNK18qdesigner_internal23QDesignerSharedSettings15deviceProfileAtEi@Qt_5 5.6.0~beta
 _ZNK18qdesigner_internal23QDesignerSharedSettings15userDeviceSkinsEv@Qt_5 5.6.0~beta
 _ZNK18qdesigner_internal23QDesignerSharedSettings16deviceProfileXmlEv@Qt_5 5.6.0~beta
 _ZNK18qdesigner_internal23QDesignerSharedSettings17formTemplatePathsEv@Qt_5 5.6.0~beta
 _ZNK18qdesigner_internal23QDesignerSharedSettings20currentDeviceProfileEv@Qt_5 5.6.0~beta
 _ZNK18qdesigner_internal23QDesignerSharedSettings25currentDeviceProfileIndexEv@Qt_5 5.6.0~beta
 _ZNK18qdesigner_internal23QDesignerSharedSettings26customPreviewConfigurationEv@Qt_5 5.6.0~beta
 _ZNK18qdesigner_internal23QDesignerSharedSettings27additionalFormTemplatePathsEv@Qt_5 5.6.0~beta
 _ZNK18qdesigner_internal23QDesignerSharedSettings35isCustomPreviewConfigurationEnabledEv@Qt_5 5.6.0~beta
 _ZNK18qdesigner_internal23QDesignerSharedSettings4zoomEv@Qt_5 5.6.0~beta
 _ZNK18qdesigner_internal24ActionRepositoryMimeData10metaObjectEv@Qt_5 5.6.0~beta
 _ZNK18qdesigner_internal24ActionRepositoryMimeData6acceptEP14QDragMoveEvent@Qt_5 5.6.0~beta
 _ZNK18qdesigner_internal24ActionRepositoryMimeData7formatsEv@Qt_5 5.6.0~beta
 _ZNK18qdesigner_internal24ChangeCurrentPageCommand18containerExtensionEv@Qt_5 5.6.0~beta
 _ZNK18qdesigner_internal24PropertySheetPixmapValue4pathEv@Qt_5 5.6.0~beta
 _ZNK18qdesigner_internal24PropertySheetPixmapValue7compareERKS0_@Qt_5 5.6.0~beta
 _ZNK18qdesigner_internal24PropertySheetStringValue5valueEv@Qt_5 5.6.0~beta
 _ZNK18qdesigner_internal24PropertySheetStringValue6equalsERKS0_@Qt_5 5.6.0~beta
 _ZNK18qdesigner_internal24QDesignerObjectInspector10metaObjectEv@Qt_5 5.6.0~beta
 _ZNK18qdesigner_internal26PreviewConfigurationWidget10metaObjectEv@Qt_5 5.6.0~beta
 _ZNK18qdesigner_internal26PreviewConfigurationWidget33PreviewConfigurationWidgetPrivate13canRemoveSkinEi@Qt_5 5.6.0~beta
 _ZNK18qdesigner_internal26PreviewConfigurationWidget33PreviewConfigurationWidgetPrivate13storeSettingsEv@Qt_5 5.6.0~beta
 _ZNK18qdesigner_internal26PreviewConfigurationWidget33PreviewConfigurationWidgetPrivate20previewConfigurationEv@Qt_5 5.6.0~beta
 _ZNK18qdesigner_internal26PreviewConfigurationWidget33PreviewConfigurationWidgetPrivate9userSkinsEv@Qt_5 5.6.0~beta
 _ZNK18qdesigner_internal26QDesignerFormEditorCommand4coreEv@Qt_5 5.6.0~beta
 _ZNK18qdesigner_internal26QDesignerFormWindowCommand10formWindowEv@Qt_5 5.6.0~beta
 _ZNK18qdesigner_internal26QDesignerFormWindowCommand13propertySheetEP7QObject@Qt_5 5.6.0~beta
 _ZNK18qdesigner_internal26QDesignerFormWindowCommand4coreEv@Qt_5 5.6.0~beta
 _ZNK18qdesigner_internal26QDesignerFormWindowManager10metaObjectEv@Qt_5 5.6.0~beta
 _ZNK18qdesigner_internal28PropertySheetStringListValue5valueEv@Qt_5 5.6.0~beta
 _ZNK18qdesigner_internal28PropertySheetStringListValue6equalsERKS0_@Qt_5 5.6.0~beta
 _ZNK18qdesigner_internal29PropertySheetKeySequenceValue11standardKeyEv@Qt_5 5.6.0~beta
 _ZNK18qdesigner_internal29PropertySheetKeySequenceValue13isStandardKeyEv@Qt_5 5.6.0~beta
 _ZNK18qdesigner_internal29PropertySheetKeySequenceValue5valueEv@Qt_5 5.6.0~beta
 _ZNK18qdesigner_internal29PropertySheetKeySequenceValue6equalsERKS0_@Qt_5 5.6.0~beta
 _ZNK18qdesigner_internal29PropertySheetTranslatableData6equalsERKS0_@Qt_5 5.6.0~beta
 _ZNK18qdesigner_internal30StyleSheetPropertyEditorDialog10metaObjectEv@Qt_5 5.6.0~beta
 _ZNK18qdesigner_internal4Grid12toVariantMapEb@Qt_5 5.6.0~beta
 _ZNK18qdesigner_internal4Grid15addToVariantMapER4QMapI7QString8QVariantEb@Qt_5 5.6.0~beta
 _ZNK18qdesigner_internal4Grid19widgetHandleAdjustXEi@Qt_5 5.6.0~beta
 _ZNK18qdesigner_internal4Grid19widgetHandleAdjustYEi@Qt_5 5.6.0~beta
 _ZNK18qdesigner_internal4Grid5paintEP7QWidgetP11QPaintEvent@Qt_5 5.6.0~beta
 _ZNK18qdesigner_internal4Grid5paintER8QPainterPK7QWidgetP11QPaintEvent@Qt_5 5.6.0~beta
 _ZNK18qdesigner_internal4Grid6equalsERKS0_@Qt_5 5.6.0~beta
 _ZNK18qdesigner_internal4Grid9snapPointERK6QPoint@Qt_5 5.6.0~beta
 _ZNK18qdesigner_internal4Grid9snapValueEii@Qt_5 5.6.0~beta
 _ZNK18qdesigner_internal6Layout10metaObjectEv@Qt_5 5.6.0~beta
 _ZNK18qdesigner_internal8ItemData14createListItemEPNS_17DesignerIconCacheEb@Qt_5 5.6.0~beta
 _ZNK18qdesigner_internal8ItemData15createTableItemEPNS_17DesignerIconCacheEb@Qt_5 5.6.0~beta
 _ZNK18qdesigner_internal8ItemData18fillTreeItemColumnEP15QTreeWidgetItemiPNS_17DesignerIconCacheE@Qt_5 5.6.0~beta
 _ZNK18qdesigner_internal8ZoomMenu10metaObjectEv@Qt_5 5.6.0~beta
 _ZNK18qdesigner_internal8ZoomMenu4zoomEv@Qt_5 5.6.0~beta
 _ZNK18qdesigner_internal8ZoomView10metaObjectEv@Qt_5 5.6.0~beta
 _ZNK18qdesigner_internal8ZoomView10zoomFactorEv@Qt_5 5.6.0~beta
 _ZNK18qdesigner_internal8ZoomView14scrollPositionEv@Qt_5 5.6.0~beta
 _ZNK18qdesigner_internal8ZoomView24isZoomContextMenuEnabledEv@Qt_5 5.6.0~beta
 _ZNK18qdesigner_internal8ZoomView4zoomEv@Qt_5 5.6.0~beta
 _ZNK18qdesigner_internal9GridPanel10metaObjectEv@Qt_5 5.6.0~beta
 _ZNK18qdesigner_internal9GridPanel11isCheckableEv@Qt_5 5.6.0~beta
 _ZNK18qdesigner_internal9GridPanel4gridEv@Qt_5 5.6.0~beta
 _ZNK18qdesigner_internal9GridPanel9isCheckedEv@Qt_5 5.6.0~beta
 _ZNK18qdesigner_internal9MorphMenu10metaObjectEv@Qt_5 5.6.0~beta
 _ZNK18qdesigner_internal9Selection5emptyEv@Qt_5 5.6.0~beta
 _ZNK18qdesigner_internal9Selection9selectionEv@Qt_5 5.6.0~beta
 _ZNK19QDesignerDockWidget10formWindowEv@Qt_5 5.6.0~beta
 _ZNK19QDesignerDockWidget10metaObjectEv@Qt_5 5.6.0~beta
 _ZNK19QDesignerDockWidget12inMainWindowEv@Qt_5 5.6.0~beta
 _ZNK19QDesignerDockWidget14dockWidgetAreaEv@Qt_5 5.6.0~beta
 _ZNK19QDesignerDockWidget14findMainWindowEv@Qt_5 5.6.0~beta
 _ZNK19QDesignerDockWidget6dockedEv@Qt_5 5.6.0~beta
 _ZNK20QAbstractFormBuilder11errorStringEv@Qt_5 5.6.0~beta
 _ZNK20QAbstractFormBuilder11pixmapPathsERK7QPixmap@Qt_5 5.6.0~beta
 _ZNK20QAbstractFormBuilder11textBuilderEv@Qt_5 5.6.0~beta
 _ZNK20QAbstractFormBuilder12saveResourceERK8QVariant@Qt_5 5.6.0~beta
 _ZNK20QAbstractFormBuilder13checkPropertyEP7QObjectRK7QString@Qt_5 5.6.0~beta
 _ZNK20QAbstractFormBuilder15resourceBuilderEv@Qt_5 5.6.0~beta
 _ZNK20QAbstractFormBuilder15setIconPropertyER11DomPropertyRK5QPairI7QStringS3_E@Qt_5 5.6.0~beta
 _ZNK20QAbstractFormBuilder16workingDirectoryEv@Qt_5 5.6.0~beta
 _ZNK20QAbstractFormBuilder17iconToDomPropertyERK5QIcon@Qt_5 5.6.0~beta
 _ZNK20QAbstractFormBuilder17setPixmapPropertyER11DomPropertyRK5QPairI7QStringS3_E@Qt_5 5.6.0~beta
 _ZNK20QAbstractFormBuilder8saveTextERK7QStringRK8QVariant@Qt_5 5.6.0~beta
 _ZNK20QAbstractFormBuilder9iconPathsERK5QIcon@Qt_5 5.6.0~beta
 _ZNK20QDesignerIntegration10metaObjectEv@Qt_5 5.6.0~beta
 _ZNK20QDesignerIntegration12headerSuffixEv@Qt_5 5.6.0~beta
 _ZNK20QDesignerIntegration13contextHelpIdEv@Qt_5 5.6.0~beta
 _ZNK20QDesignerIntegration15containerWindowEP7QWidget@Qt_5 5.6.0~beta
 _ZNK20QDesignerIntegration17isHeaderLowercaseEv@Qt_5 5.6.0~beta
 _ZNK20QDesignerIntegration28resourceFileWatcherBehaviourEv@Qt_5 5.6.0~beta
 _ZNK20QDesignerIntegration8featuresEv@Qt_5 5.6.0~beta
 _ZNK20QDesignerMemberSheet10memberNameEi@Qt_5 5.6.0~beta
 _ZNK20QDesignerMemberSheet10metaObjectEv@Qt_5 5.6.0~beta
 _ZNK20QDesignerMemberSheet11memberGroupEi@Qt_5 5.6.0~beta
 _ZNK20QDesignerMemberSheet14parameterNamesEi@Qt_5 5.6.0~beta
 _ZNK20QDesignerMemberSheet14parameterTypesEi@Qt_5 5.6.0~beta
 _ZNK20QDesignerMemberSheet15declaredInClassEi@Qt_5 5.6.0~beta
 _ZNK20QDesignerMemberSheet19inheritedFromWidgetEi@Qt_5 5.6.0~beta
 _ZNK20QDesignerMemberSheet5countEv@Qt_5 5.6.0~beta
 _ZNK20QDesignerMemberSheet6isSlotEi@Qt_5 5.6.0~beta
 _ZNK20QDesignerMemberSheet7indexOfERK7QString@Qt_5 5.6.0~beta
 _ZNK20QDesignerMemberSheet8isSignalEi@Qt_5 5.6.0~beta
 _ZNK20QDesignerMemberSheet9isVisibleEi@Qt_5 5.6.0~beta
 _ZNK20QDesignerMemberSheet9signatureEi@Qt_5 5.6.0~beta
 _ZNK20QtResourceViewDialog10metaObjectEv@Qt_5 5.6.0~beta
 _ZNK20QtResourceViewDialog16selectedResourceEv@Qt_5 5.6.0~beta
 _ZNK20QtResourceViewDialog24isResourceEditingEnabledEv@Qt_5 5.6.0~beta
 _ZNK21QTabWidgetEventFilter10formWindowEv@Qt_5 5.6.0~beta
 _ZNK21QTabWidgetEventFilter10metaObjectEv@Qt_5 5.6.0~beta
 _ZNK21QTabWidgetEventFilter16pageFromPositionERK6QPointR5QRect@Qt_5 5.6.0~beta
 _ZNK21QTabWidgetEventFilter6tabBarEv@Qt_5 5.6.0~beta
 _ZNK22QDesignerPluginManager10metaObjectEv@Qt_5 5.6.0~beta
 _ZNK22QDesignerPluginManager11pluginPathsEv@Qt_5 5.6.0~beta
 _ZNK22QDesignerPluginManager13failedPluginsEv@Qt_5 5.6.0~beta
 _ZNK22QDesignerPluginManager13failureReasonERK7QString@Qt_5 5.6.0~beta
 _ZNK22QDesignerPluginManager15disabledPluginsEv@Qt_5 5.6.0~beta
 _ZNK22QDesignerPluginManager16customWidgetDataEP30QDesignerCustomWidgetInterface@Qt_5 5.6.0~beta
 _ZNK22QDesignerPluginManager16customWidgetDataERK7QString@Qt_5 5.6.0~beta
 _ZNK22QDesignerPluginManager17registeredPluginsEv@Qt_5 5.6.0~beta
 _ZNK22QDesignerPluginManager23registeredCustomWidgetsEv@Qt_5 5.6.0~beta
 _ZNK22QDesignerPluginManager4coreEv@Qt_5 5.6.0~beta
 _ZNK22QDesignerPluginManager8instanceERK7QString@Qt_5 5.6.0~beta
 _ZNK22QDesignerPluginManager9instancesEv@Qt_5 5.6.0~beta
 _ZNK22QDesignerPropertySheet10metaObjectEv@Qt_5 5.6.0~beta
 _ZNK22QDesignerPropertySheet10objectTypeEv@Qt_5 5.6.0~beta
 _ZNK22QDesignerPropertySheet11isAttributeEi@Qt_5 5.6.0~beta
 _ZNK22QDesignerPropertySheet11pixmapCacheEv@Qt_5 5.6.0~beta
 _ZNK22QDesignerPropertySheet12metaPropertyEi@Qt_5 5.6.0~beta
 _ZNK22QDesignerPropertySheet12propertyNameEi@Qt_5 5.6.0~beta
 _ZNK22QDesignerPropertySheet12propertyTypeEi@Qt_5 5.6.0~beta
 _ZNK22QDesignerPropertySheet13propertyGroupEi@Qt_5 5.6.0~beta
 _ZNK22QDesignerPropertySheet14formWindowBaseEv@Qt_5 5.6.0~beta
 _ZNK22QDesignerPropertySheet14isFakePropertyEi@Qt_5 5.6.0~beta
 _ZNK22QDesignerPropertySheet17isDynamicPropertyEi@Qt_5 5.6.0~beta
 _ZNK22QDesignerPropertySheet18isResourcePropertyEi@Qt_5 5.6.0~beta
 _ZNK22QDesignerPropertySheet20isAdditionalPropertyEi@Qt_5 5.6.0~beta
 _ZNK22QDesignerPropertySheet20isFakeLayoutPropertyEi@Qt_5 5.6.0~beta
 _ZNK22QDesignerPropertySheet20resolvePropertyValueEiRK8QVariant@Qt_5 5.6.0~beta
 _ZNK22QDesignerPropertySheet21canAddDynamicPropertyERK7QString@Qt_5 5.6.0~beta
 _ZNK22QDesignerPropertySheet23defaultResourcePropertyEi@Qt_5 5.6.0~beta
 _ZNK22QDesignerPropertySheet24dynamicPropertiesAllowedEv@Qt_5 5.6.0~beta
 _ZNK22QDesignerPropertySheet24isDefaultDynamicPropertyEi@Qt_5 5.6.0~beta
 _ZNK22QDesignerPropertySheet4coreEv@Qt_5 5.6.0~beta
 _ZNK22QDesignerPropertySheet5countEv@Qt_5 5.6.0~beta
 _ZNK22QDesignerPropertySheet6objectEv@Qt_5 5.6.0~beta
 _ZNK22QDesignerPropertySheet7indexOfERK7QString@Qt_5 5.6.0~beta
 _ZNK22QDesignerPropertySheet8hasResetEi@Qt_5 5.6.0~beta
 _ZNK22QDesignerPropertySheet8propertyEi@Qt_5 5.6.0~beta
 _ZNK22QDesignerPropertySheet9iconCacheEv@Qt_5 5.6.0~beta
 _ZNK22QDesignerPropertySheet9isChangedEi@Qt_5 5.6.0~beta
 _ZNK22QDesignerPropertySheet9isDynamicEi@Qt_5 5.6.0~beta
 _ZNK22QDesignerPropertySheet9isEnabledEi@Qt_5 5.6.0~beta
 _ZNK22QDesignerPropertySheet9isVisibleEi@Qt_5 5.6.0~beta
 _ZNK23QTabWidgetPropertySheet8propertyEi@Qt_5 5.6.0~beta
 _ZNK23QTabWidgetPropertySheet9isEnabledEi@Qt_5 5.6.0~beta
 _ZNK25DomPropertySpecifications5writeER16QXmlStreamWriterRK7QString@Qt_5 5.6.0~beta
 _ZNK25QDesignerCustomWidgetData10pluginPathEv@Qt_5 5.6.0~beta
 _ZNK25QDesignerCustomWidgetData10xmlExtendsEv@Qt_5 5.6.0~beta
 _ZNK25QDesignerCustomWidgetData11xmlLanguageEv@Qt_5 5.6.0~beta
 _ZNK25QDesignerCustomWidgetData12xmlClassNameEv@Qt_5 5.6.0~beta
 _ZNK25QDesignerCustomWidgetData14xmlDisplayNameEv@Qt_5 5.6.0~beta
 _ZNK25QDesignerCustomWidgetData15propertyToolTipERK7QString@Qt_5 5.6.0~beta
 _ZNK25QDesignerCustomWidgetData16xmlAddPageMethodEv@Qt_5 5.6.0~beta
 _ZNK25QDesignerCustomWidgetData21xmlStringPropertyTypeERK7QStringP5QPairIN18qdesigner_internal26TextPropertyValidationModeEbE@Qt_5 5.6.0~beta
 _ZNK25QDesignerCustomWidgetData6isNullEv@Qt_5 5.6.0~beta
 _ZNK25QStackedWidgetEventFilter10metaObjectEv@Qt_5 5.6.0~beta
 _ZNK27QDesignerExtraInfoExtension16workingDirectoryEv@Qt_5 5.6.0~beta
 _ZNK27QDesignerMemberSheetFactory10metaObjectEv@Qt_5 5.6.0~beta
 _ZNK27QDesignerMemberSheetFactory15createExtensionEP7QObjectRK7QStringS1_@Qt_5 5.6.0~beta
 _ZNK27QDesignerWidgetBoxInterface10metaObjectEv@Qt_5 5.6.0~beta
 _ZNK27QDesignerWidgetBoxInterface6Widget4nameEv@Qt_5 5.6.0~beta
 _ZNK27QDesignerWidgetBoxInterface6Widget4typeEv@Qt_5 5.6.0~beta
 _ZNK27QDesignerWidgetBoxInterface6Widget6domXmlEv@Qt_5 5.6.0~beta
 _ZNK27QDesignerWidgetBoxInterface6Widget6isNullEv@Qt_5 5.6.0~beta
 _ZNK27QDesignerWidgetBoxInterface6Widget8iconNameEv@Qt_5 5.6.0~beta
 _ZNK27QStackedWidgetPropertySheet8propertyEi@Qt_5 5.6.0~beta
 _ZNK27QStackedWidgetPropertySheet9isEnabledEi@Qt_5 5.6.0~beta
 _ZNK27QToolBoxWidgetPropertySheet8propertyEi@Qt_5 5.6.0~beta
 _ZNK27QToolBoxWidgetPropertySheet9isEnabledEi@Qt_5 5.6.0~beta
 _ZNK28QDesignerFormEditorInterface10metaObjectEv@Qt_5 5.6.0~beta
 _ZNK28QDesignerFormEditorInterface11integrationEv@Qt_5 5.6.0~beta
 _ZNK28QDesignerFormEditorInterface12actionEditorEv@Qt_5 5.6.0~beta
 _ZNK28QDesignerFormEditorInterface12metaDataBaseEv@Qt_5 5.6.0~beta
 _ZNK28QDesignerFormEditorInterface12optionsPagesEv@Qt_5 5.6.0~beta
 _ZNK28QDesignerFormEditorInterface13introspectionEv@Qt_5 5.6.0~beta
 _ZNK28QDesignerFormEditorInterface13pluginManagerEv@Qt_5 5.6.0~beta
 _ZNK28QDesignerFormEditorInterface13resourceModelEv@Qt_5 5.6.0~beta
 _ZNK28QDesignerFormEditorInterface13widgetFactoryEv@Qt_5 5.6.0~beta
 _ZNK28QDesignerFormEditorInterface14propertyEditorEv@Qt_5 5.6.0~beta
 _ZNK28QDesignerFormEditorInterface14widgetDataBaseEv@Qt_5 5.6.0~beta
 _ZNK28QDesignerFormEditorInterface15gradientManagerEv@Qt_5 5.6.0~beta
 _ZNK28QDesignerFormEditorInterface15objectInspectorEv@Qt_5 5.6.0~beta
 _ZNK28QDesignerFormEditorInterface15pluginInstancesEv@Qt_5 5.6.0~beta
 _ZNK28QDesignerFormEditorInterface15settingsManagerEv@Qt_5 5.6.0~beta
 _ZNK28QDesignerFormEditorInterface16extensionManagerEv@Qt_5 5.6.0~beta
 _ZNK28QDesignerFormEditorInterface16resourceLocationEv@Qt_5 5.6.0~beta
 _ZNK28QDesignerFormEditorInterface17formWindowManagerEv@Qt_5 5.6.0~beta
 _ZNK28QDesignerFormEditorInterface8topLevelEv@Qt_5 5.6.0~beta
 _ZNK28QDesignerFormEditorInterface9dialogGuiEv@Qt_5 5.6.0~beta
 _ZNK28QDesignerFormEditorInterface9promotionEv@Qt_5 5.6.0~beta
 _ZNK28QDesignerFormEditorInterface9widgetBoxEv@Qt_5 5.6.0~beta
 _ZNK28QDesignerFormWindowInterface10metaObjectEv@Qt_5 5.6.0~beta
 _ZNK28QDesignerFormWindowInterface23activeResourceFilePathsEv@Qt_5 5.6.0~beta
 _ZNK28QDesignerFormWindowInterface4coreEv@Qt_5 5.6.0~beta
 _ZNK29QDesignerIntegrationInterface10hasFeatureE6QFlagsINS_11FeatureFlagEE@Qt_5 5.6.0~beta
 _ZNK29QDesignerIntegrationInterface10metaObjectEv@Qt_5 5.6.0~beta
 _ZNK29QDesignerIntegrationInterface4coreEv@Qt_5 5.6.0~beta
 _ZNK30DomStringPropertySpecification5writeER16QXmlStreamWriterRK7QString@Qt_5 5.6.0~beta
 _ZNK30QDesignerActionEditorInterface10metaObjectEv@Qt_5 5.6.0~beta
 _ZNK30QDesignerActionEditorInterface4coreEv@Qt_5 5.6.0~beta
 _ZNK30QDesignerMetaDataBaseInterface10metaObjectEv@Qt_5 5.6.0~beta
 _ZNK31QDesignerNewFormWidgetInterface10metaObjectEv@Qt_5 5.6.0~beta
 _ZNK31QDesignerWidgetFactoryInterface10metaObjectEv@Qt_5 5.6.0~beta
 _ZNK32QDesignerFormWindowToolInterface10metaObjectEv@Qt_5 5.6.0~beta
 _ZNK32QDesignerPropertyEditorInterface10metaObjectEv@Qt_5 5.6.0~beta
 _ZNK32QDesignerPropertyEditorInterface4coreEv@Qt_5 5.6.0~beta
 _ZNK32QDesignerWidgetDataBaseInterface10metaObjectEv@Qt_5 5.6.0~beta
 _ZNK32QDesignerWidgetDataBaseInterface11isContainerEP7QObjectb@Qt_5 5.6.0~beta
 _ZNK32QDesignerWidgetDataBaseInterface13indexOfObjectEP7QObjectb@Qt_5 5.6.0~beta
 _ZNK32QDesignerWidgetDataBaseInterface16indexOfClassNameERK7QStringb@Qt_5 5.6.0~beta
 _ZNK32QDesignerWidgetDataBaseInterface4coreEv@Qt_5 5.6.0~beta
 _ZNK32QDesignerWidgetDataBaseInterface4itemEi@Qt_5 5.6.0~beta
 _ZNK32QDesignerWidgetDataBaseInterface5countEv@Qt_5 5.6.0~beta
 _ZNK32QDesignerWidgetDataBaseInterface7indexOfEP36QDesignerWidgetDataBaseItemInterface@Qt_5 5.6.0~beta
 _ZNK32QDesignerWidgetDataBaseInterface8isCustomEP7QObjectb@Qt_5 5.6.0~beta
 _ZNK32QStackedWidgetPreviewEventFilter10metaObjectEv@Qt_5 5.6.0~beta
 _ZNK33QDesignerObjectInspectorInterface10metaObjectEv@Qt_5 5.6.0~beta
 _ZNK33QDesignerObjectInspectorInterface4coreEv@Qt_5 5.6.0~beta
 _ZNK33QDesignerResourceBrowserInterface10metaObjectEv@Qt_5 5.6.0~beta
 _ZNK34QDesignerFormWindowCursorInterface16isWidgetSelectedEP7QWidget@Qt_5 5.6.0~beta
 _ZNK35QDesignerFormWindowManagerInterface10actionCopyEv@Qt_5 5.6.0~beta
 _ZNK35QDesignerFormWindowManagerInterface10actionRedoEv@Qt_5 5.6.0~beta
 _ZNK35QDesignerFormWindowManagerInterface10actionUndoEv@Qt_5 5.6.0~beta
 _ZNK35QDesignerFormWindowManagerInterface10metaObjectEv@Qt_5 5.6.0~beta
 _ZNK35QDesignerFormWindowManagerInterface11actionLowerEv@Qt_5 5.6.0~beta
 _ZNK35QDesignerFormWindowManagerInterface11actionPasteEv@Qt_5 5.6.0~beta
 _ZNK35QDesignerFormWindowManagerInterface11actionRaiseEv@Qt_5 5.6.0~beta
 _ZNK35QDesignerFormWindowManagerInterface12actionDeleteEv@Qt_5 5.6.0~beta
 _ZNK35QDesignerFormWindowManagerInterface15actionSelectAllEv@Qt_5 5.6.0~beta
 _ZNK35QDesignerFormWindowManagerInterface16actionAdjustSizeEv@Qt_5 5.6.0~beta
 _ZNK35QDesignerFormWindowManagerInterface16actionFormLayoutEv@Qt_5 5.6.0~beta
 _ZNK35QDesignerFormWindowManagerInterface16actionGridLayoutEv@Qt_5 5.6.0~beta
 _ZNK35QDesignerFormWindowManagerInterface17actionBreakLayoutEv@Qt_5 5.6.0~beta
 _ZNK35QDesignerFormWindowManagerInterface19actionSplitVerticalEv@Qt_5 5.6.0~beta
 _ZNK35QDesignerFormWindowManagerInterface20actionSimplifyLayoutEv@Qt_5 5.6.0~beta
 _ZNK35QDesignerFormWindowManagerInterface20actionVerticalLayoutEv@Qt_5 5.6.0~beta
 _ZNK35QDesignerFormWindowManagerInterface21actionSplitHorizontalEv@Qt_5 5.6.0~beta
 _ZNK35QDesignerFormWindowManagerInterface22actionHorizontalLayoutEv@Qt_5 5.6.0~beta
 _ZNK35QDesignerFormWindowManagerInterface9actionCutEv@Qt_5 5.6.0~beta
 _ZNK37QDesignerAbstractPropertySheetFactory10metaObjectEv@Qt_5 5.6.0~beta
 _ZNK37QDesignerAbstractPropertySheetFactory9extensionEP7QObjectRK7QString@Qt_5 5.6.0~beta
 _ZNK4Line10metaObjectEv@Qt_5 5.6.0~beta
 _ZNK5DomUI5writeER16QXmlStreamWriterRK7QString@Qt_5 5.6.0~beta
 _ZNK6DomRow5writeER16QXmlStreamWriterRK7QString@Qt_5 5.6.0~beta
 _ZNK6DomUrl5writeER16QXmlStreamWriterRK7QString@Qt_5 5.6.0~beta
 _ZNK6Spacer10isInLayoutEv@Qt_5 5.6.0~beta
 _ZNK6Spacer10metaObjectEv@Qt_5 5.6.0~beta
 _ZNK6Spacer11orientationEv@Qt_5 5.6.0~beta
 _ZNK6Spacer16sizeHintPropertyEv@Qt_5 5.6.0~beta
 _ZNK6Spacer8sizeHintEv@Qt_5 5.6.0~beta
 _ZNK6Spacer8sizeTypeEv@Qt_5 5.6.0~beta
 _ZNK6Spacer9alignmentEv@Qt_5 5.6.0~beta
 _ZNK7DomChar5writeER16QXmlStreamWriterRK7QString@Qt_5 5.6.0~beta
 _ZNK7DomDate5writeER16QXmlStreamWriterRK7QString@Qt_5 5.6.0~beta
 _ZNK7DomFont5writeER16QXmlStreamWriterRK7QString@Qt_5 5.6.0~beta
 _ZNK7DomItem5writeER16QXmlStreamWriterRK7QString@Qt_5 5.6.0~beta
 _ZNK7DomRect5writeER16QXmlStreamWriterRK7QString@Qt_5 5.6.0~beta
 _ZNK7DomSize5writeER16QXmlStreamWriterRK7QString@Qt_5 5.6.0~beta
 _ZNK7DomTime5writeER16QXmlStreamWriterRK7QString@Qt_5 5.6.0~beta
 _ZNK8DomBrush5writeER16QXmlStreamWriterRK7QString@Qt_5 5.6.0~beta
 _ZNK8DomColor5writeER16QXmlStreamWriterRK7QString@Qt_5 5.6.0~beta
 _ZNK8DomImage5writeER16QXmlStreamWriterRK7QString@Qt_5 5.6.0~beta
 _ZNK8DomPoint5writeER16QXmlStreamWriterRK7QString@Qt_5 5.6.0~beta
 _ZNK8DomRectF5writeER16QXmlStreamWriterRK7QString@Qt_5 5.6.0~beta
 _ZNK8DomSizeF5writeER16QXmlStreamWriterRK7QString@Qt_5 5.6.0~beta
 _ZNK8DomSlots5writeER16QXmlStreamWriterRK7QString@Qt_5 5.6.0~beta
 _ZNK9DomAction5writeER16QXmlStreamWriterRK7QString@Qt_5 5.6.0~beta
 _ZNK9DomColumn5writeER16QXmlStreamWriterRK7QString@Qt_5 5.6.0~beta
 _ZNK9DomHeader5writeER16QXmlStreamWriterRK7QString@Qt_5 5.6.0~beta
 _ZNK9DomImages5writeER16QXmlStreamWriterRK7QString@Qt_5 5.6.0~beta
 _ZNK9DomLayout5writeER16QXmlStreamWriterRK7QString@Qt_5 5.6.0~beta
 _ZNK9DomLocale5writeER16QXmlStreamWriterRK7QString@Qt_5 5.6.0~beta
 _ZNK9DomPointF5writeER16QXmlStreamWriterRK7QString@Qt_5 5.6.0~beta
 _ZNK9DomScript5writeER16QXmlStreamWriterRK7QString@Qt_5 5.6.0~beta
 _ZNK9DomSpacer5writeER16QXmlStreamWriterRK7QString@Qt_5 5.6.0~beta
 _ZNK9DomString5writeER16QXmlStreamWriterRK7QString@Qt_5 5.6.0~beta
 _ZNK9DomWidget5writeER16QXmlStreamWriterRK7QString@Qt_5 5.6.0~beta
 (optional=templinst)_ZNSt3_V28__rotateIPiEET_S2_S2_S2_St26random_access_iterator_tag@Qt_5 5.6.0~beta
 (optional=templinst|subst)_ZSt17__rotate_adaptiveIPiS0_{ssize_t}ET_S1_S1_S1_T1_S2_T0_S2_@Qt_5 5.6.0~beta
 (optional=templinst|arch=armel armhf hurd-i386 i386 kfreebsd-i386 mips mipsel powerpc)_ZSt4swapIN8QVariant7PrivateEEvRT_S3_@Qt_5 5.6.0~beta
 _ZTI12QFormBuilder@Qt_5 5.6.0~beta
 _ZTI12QTextBuilder@Qt_5 5.6.0~beta
 _ZTI13QDesignerMenu@Qt_5 5.6.0~beta
 _ZTI13QLayoutWidget@Qt_5 5.6.0~beta
 _ZTI14QToolBoxHelper@Qt_5 5.6.0~beta
 _ZTI14QtResourceView@Qt_5 5.6.0~beta
 _ZTI15QDesignerDialog@Qt_5 5.6.0~beta
 _ZTI15QDesignerWidget@Qt_5 5.6.0~beta
 _ZTI15QtResourceModel@Qt_5 5.6.0~beta
 _ZTI16QDesignerMenuBar@Qt_5 5.6.0~beta
 _ZTI16QResourceBuilder@Qt_5 5.6.0~beta
 _ZTI17QExtensionFactory@Qt_5 5.6.0~beta
 _ZTI17QExtensionManager@Qt_5 5.6.0~beta
 _ZTI18QDesignerQSettings@Qt_5 5.6.0~beta
 _ZTI19QDesignerDockWidget@Qt_5 5.6.0~beta
 _ZTI20QAbstractFormBuilder@Qt_5 5.6.0~beta
 _ZTI20QDesignerIntegration@Qt_5 5.6.0~beta
 _ZTI20QDesignerMemberSheet@Qt_5 5.6.0~beta
 _ZTI20QtResourceViewDialog@Qt_5 5.6.0~beta
 _ZTI21QTabWidgetEventFilter@Qt_5 5.6.0~beta
 _ZTI22QDesignerPluginManager@Qt_5 5.6.0~beta
 _ZTI22QDesignerPropertySheet@Qt_5 5.6.0~beta
 _ZTI23QTabWidgetPropertySheet@Qt_5 5.6.0~beta
 _ZTI25QDesignerDnDItemInterface@Qt_5 5.6.0~beta
 _ZTI25QStackedWidgetEventFilter@Qt_5 5.6.0~beta
 _ZTI26QDesignerMetaEnumInterface@Qt_5 5.6.0~beta
 _ZTI26QDesignerSettingsInterface@Qt_5 5.6.0~beta
 _ZTI27QDesignerDialogGuiInterface@Qt_5 5.6.0~beta
 _ZTI27QDesignerMemberSheetFactory@Qt_5 5.6.0~beta
 _ZTI27QDesignerPromotionInterface@Qt_5 5.6.0~beta
 _ZTI27QDesignerWidgetBoxInterface@Qt_5 5.6.0~beta
 _ZTI27QStackedWidgetPropertySheet@Qt_5 5.6.0~beta
 _ZTI27QToolBoxWidgetPropertySheet@Qt_5 5.6.0~beta
 _ZTI28QDesignerFormEditorInterface@Qt_5 5.6.0~beta
 _ZTI28QDesignerFormWindowInterface@Qt_5 5.6.0~beta
 _ZTI28QDesignerMetaMethodInterface@Qt_5 5.6.0~beta
 _ZTI28QDesignerMetaObjectInterface@Qt_5 5.6.0~beta
 _ZTI29QDesignerIntegrationInterface@Qt_5 5.6.0~beta
 _ZTI30QDesignerActionEditorInterface@Qt_5 5.6.0~beta
 _ZTI30QDesignerMetaDataBaseInterface@Qt_5 5.6.0~beta
 _ZTI30QDesignerMetaPropertyInterface@Qt_5 5.6.0~beta
 _ZTI31QDesignerIntrospectionInterface@Qt_5 5.6.0~beta
 _ZTI31QDesignerNewFormWidgetInterface@Qt_5 5.6.0~beta
 _ZTI31QDesignerWidgetFactoryInterface@Qt_5 5.6.0~beta
 _ZTI32QDesignerFormWindowToolInterface@Qt_5 5.6.0~beta
 _ZTI32QDesignerPropertyEditorInterface@Qt_5 5.6.0~beta
 _ZTI32QDesignerWidgetDataBaseInterface@Qt_5 5.6.0~beta
 _ZTI32QStackedWidgetPreviewEventFilter@Qt_5 5.6.0~beta
 _ZTI33QDesignerObjectInspectorInterface@Qt_5 5.6.0~beta
 _ZTI33QDesignerResourceBrowserInterface@Qt_5 5.6.0~beta
 _ZTI35QDesignerFormWindowManagerInterface@Qt_5 5.6.0~beta
 _ZTI37QDesignerAbstractPropertySheetFactory@Qt_5 5.6.0~beta
 _ZTI4Line@Qt_5 5.6.0~beta
 _ZTI6Spacer@Qt_5 5.6.0~beta
 _ZTIN18qdesigner_internal10CodeDialogE@Qt_5 5.6.0~beta
 _ZTIN18qdesigner_internal10ConnectionE@Qt_5 5.6.0~beta
 _ZTIN18qdesigner_internal10ZoomWidgetE@Qt_5 5.6.0~beta
 _ZTIN18qdesigner_internal11ActionModelE@Qt_5 5.6.0~beta
 _ZTIN18qdesigner_internal11OrderDialogE@Qt_5 5.6.0~beta
 _ZTIN18qdesigner_internal12ActionEditorE@Qt_5 5.6.0~beta
 _ZTIN18qdesigner_internal12IconSelectorE@Qt_5 5.6.0~beta
 _ZTIN18qdesigner_internal12MetaDataBaseE@Qt_5 5.6.0~beta
 _ZTIN18qdesigner_internal13LayoutCommandE@Qt_5 5.6.0~beta
 _ZTIN18qdesigner_internal13NewFormWidgetE@Qt_5 5.6.0~beta
 _ZTIN18qdesigner_internal13SheetDelegateE@Qt_5 5.6.0~beta
 _ZTIN18qdesigner_internal13WidgetFactoryE@Qt_5 5.6.0~beta
 _ZTIN18qdesigner_internal14ConnectionEditE@Qt_5 5.6.0~beta
 _ZTIN18qdesigner_internal14CssHighlighterE@Qt_5 5.6.0~beta
 _ZTIN18qdesigner_internal14FormLayoutMenuE@Qt_5 5.6.0~beta
 _ZTIN18qdesigner_internal14FormWindowBaseE@Qt_5 5.6.0~beta
 _ZTIN18qdesigner_internal14PreviewManagerE@Qt_5 5.6.0~beta
 _ZTIN18qdesigner_internal14PropertyHelperE@Qt_5 5.6.0~beta
 _ZTIN18qdesigner_internal14QLayoutSupportE@Qt_5 5.6.0~beta
 _ZTIN18qdesigner_internal14ToolBoxCommandE@Qt_5 5.6.0~beta
 _ZTIN18qdesigner_internal14WidgetDataBaseE@Qt_5 5.6.0~beta
 _ZTIN18qdesigner_internal15IconThemeEditorE@Qt_5 5.6.0~beta
 _ZTIN18qdesigner_internal15InvisibleWidgetE@Qt_5 5.6.0~beta
 _ZTIN18qdesigner_internal15QSimpleResourceE@Qt_5 5.6.0~beta
 _ZTIN18qdesigner_internal15TabOrderCommandE@Qt_5 5.6.0~beta
 _ZTIN18qdesigner_internal15ZoomProxyWidgetE@Qt_5 5.6.0~beta
 _ZTIN18qdesigner_internal16AddActionCommandE@Qt_5 5.6.0~beta
 _ZTIN18qdesigner_internal16MetaDataBaseItemE@Qt_5 5.6.0~beta
 _ZTIN18qdesigner_internal16QDesignerDnDItemE@Qt_5 5.6.0~beta
 _ZTIN18qdesigner_internal16SignalSlotDialogE@Qt_5 5.6.0~beta
 _ZTIN18qdesigner_internal16StyleSheetEditorE@Qt_5 5.6.0~beta
 _ZTIN18qdesigner_internal16TabWidgetCommandE@Qt_5 5.6.0~beta
 _ZTIN18qdesigner_internal17AddTabPageCommandE@Qt_5 5.6.0~beta
 _ZTIN18qdesigner_internal17AddToolBarCommandE@Qt_5 5.6.0~beta
 _ZTIN18qdesigner_internal17DesignerIconCacheE@Qt_5 5.6.0~beta
 _ZTIN18qdesigner_internal17DockWidgetCommandE@Qt_5 5.6.0~beta
 _ZTIN18qdesigner_internal17MenuActionCommandE@Qt_5 5.6.0~beta
 _ZTIN18qdesigner_internal17PromotionTaskMenuE@Qt_5 5.6.0~beta
 _ZTIN18qdesigner_internal17QDesignerMimeDataE@Qt_5 5.6.0~beta
 _ZTIN18qdesigner_internal17QDesignerTaskMenuE@Qt_5 5.6.0~beta
 _ZTIN18qdesigner_internal18BreakLayoutCommandE@Qt_5 5.6.0~beta
 _ZTIN18qdesigner_internal18LowerWidgetCommandE@Qt_5 5.6.0~beta
 _ZTIN18qdesigner_internal18MorphLayoutCommandE@Qt_5 5.6.0~beta
 _ZTIN18qdesigner_internal18MoveTabPageCommandE@Qt_5 5.6.0~beta
 _ZTIN18qdesigner_internal18QDesignerPromotionE@Qt_5 5.6.0~beta
 _ZTIN18qdesigner_internal18QDesignerWidgetBoxE@Qt_5 5.6.0~beta
 _ZTIN18qdesigner_internal18RaiseWidgetCommandE@Qt_5 5.6.0~beta
 _ZTIN18qdesigner_internal18SetPropertyCommandE@Qt_5 5.6.0~beta
 _ZTIN18qdesigner_internal18TextPropertyEditorE@Qt_5 5.6.0~beta
 _ZTIN18qdesigner_internal18ToolBarEventFilterE@Qt_5 5.6.0~beta
 _ZTIN18qdesigner_internal18WidgetDataBaseItemE@Qt_5 5.6.0~beta
 _ZTIN18qdesigner_internal19ChangeZOrderCommandE@Qt_5 5.6.0~beta
 _ZTIN18qdesigner_internal19DeleteWidgetCommandE@Qt_5 5.6.0~beta
 _ZTIN18qdesigner_internal19DesignerPixmapCacheE@Qt_5 5.6.0~beta
 _ZTIN18qdesigner_internal19InsertWidgetCommandE@Qt_5 5.6.0~beta
 _ZTIN18qdesigner_internal19PropertyListCommandE@Qt_5 5.6.0~beta
 _ZTIN18qdesigner_internal19QDesignerWidgetItemE@Qt_5 5.6.0~beta
 _ZTIN18qdesigner_internal19RemoveActionCommandE@Qt_5 5.6.0~beta
 _ZTIN18qdesigner_internal20AddConnectionCommandE@Qt_5 5.6.0~beta
 _ZTIN18qdesigner_internal20AddDockWidgetCommandE@Qt_5 5.6.0~beta
 _ZTIN18qdesigner_internal20AddMenuActionCommandE@Qt_5 5.6.0~beta
 _ZTIN18qdesigner_internal20CreateMenuBarCommandE@Qt_5 5.6.0~beta
 _ZTIN18qdesigner_internal20CreateSubmenuCommandE@Qt_5 5.6.0~beta
 _ZTIN18qdesigner_internal20DeleteMenuBarCommandE@Qt_5 5.6.0~beta
 _ZTIN18qdesigner_internal20DeleteTabPageCommandE@Qt_5 5.6.0~beta
 _ZTIN18qdesigner_internal20DeleteToolBarCommandE@Qt_5 5.6.0~beta
 _ZTIN18qdesigner_internal20QDesignerFormBuilderE@Qt_5 5.6.0~beta
 _ZTIN18qdesigner_internal20ResetPropertyCommandE@Qt_5 5.6.0~beta
 _ZTIN18qdesigner_internal20RichTextEditorDialogE@Qt_5 5.6.0~beta
 _ZTIN18qdesigner_internal20StackedWidgetCommandE@Qt_5 5.6.0~beta
 _ZTIN18qdesigner_internal21AddToolBoxPageCommandE@Qt_5 5.6.0~beta
 _ZTIN18qdesigner_internal21PlainTextEditorDialogE@Qt_5 5.6.0~beta
 _ZTIN18qdesigner_internal21ReparentWidgetCommandE@Qt_5 5.6.0~beta
 _ZTIN18qdesigner_internal21SimplifyLayoutCommandE@Qt_5 5.6.0~beta
 _ZTIN18qdesigner_internal22ActionInsertionCommandE@Qt_5 5.6.0~beta
 _ZTIN18qdesigner_internal22ContainerWidgetCommandE@Qt_5 5.6.0~beta
 _ZTIN18qdesigner_internal22CreateStatusBarCommandE@Qt_5 5.6.0~beta
 _ZTIN18qdesigner_internal22DeleteStatusBarCommandE@Qt_5 5.6.0~beta
 _ZTIN18qdesigner_internal22LanguageResourceDialogE@Qt_5 5.6.0~beta
 _ZTIN18qdesigner_internal22MoveToolBoxPageCommandE@Qt_5 5.6.0~beta
 _ZTIN18qdesigner_internal22QDesignerIntrospectionE@Qt_5 5.6.0~beta
 _ZTIN18qdesigner_internal22StyleSheetEditorDialogE@Qt_5 5.6.0~beta
 _ZTIN18qdesigner_internal23AdjustWidgetSizeCommandE@Qt_5 5.6.0~beta
 _ZTIN18qdesigner_internal23InsertActionIntoCommandE@Qt_5 5.6.0~beta
 _ZTIN18qdesigner_internal23QDesignerPropertyEditorE@Qt_5 5.6.0~beta
 _ZTIN18qdesigner_internal23RemoveActionFromCommandE@Qt_5 5.6.0~beta
 _ZTIN18qdesigner_internal23RemoveMenuActionCommandE@Qt_5 5.6.0~beta
 _ZTIN18qdesigner_internal24ActionRepositoryMimeDataE@Qt_5 5.6.0~beta
 _ZTIN18qdesigner_internal24ChangeCurrentPageCommandE@Qt_5 5.6.0~beta
 _ZTIN18qdesigner_internal24ChangeLayoutItemGeometryE@Qt_5 5.6.0~beta
 _ZTIN18qdesigner_internal24DeleteConnectionsCommandE@Qt_5 5.6.0~beta
 _ZTIN18qdesigner_internal24DeleteToolBoxPageCommandE@Qt_5 5.6.0~beta
 _ZTIN18qdesigner_internal24MoveStackedWidgetCommandE@Qt_5 5.6.0~beta
 _ZTIN18qdesigner_internal24NewFormWidgetFormBuilderE@Qt_5 5.6.0~beta
 _ZTIN18qdesigner_internal24QDesignerObjectInspectorE@Qt_5 5.6.0~beta
 _ZTIN18qdesigner_internal25AddDynamicPropertyCommandE@Qt_5 5.6.0~beta
 _ZTIN18qdesigner_internal25ChangeListContentsCommandE@Qt_5 5.6.0~beta
 _ZTIN18qdesigner_internal25ChangeTreeContentsCommandE@Qt_5 5.6.0~beta
 _ZTIN18qdesigner_internal26ChangeTableContentsCommandE@Qt_5 5.6.0~beta
 _ZTIN18qdesigner_internal26PreviewConfigurationWidgetE@Qt_5 5.6.0~beta
 _ZTIN18qdesigner_internal26QDesignerFormEditorCommandE@Qt_5 5.6.0~beta
 _ZTIN18qdesigner_internal26QDesignerFormWindowCommandE@Qt_5 5.6.0~beta
 _ZTIN18qdesigner_internal26QDesignerFormWindowManagerE@Qt_5 5.6.0~beta
 _ZTIN18qdesigner_internal27AddStackedWidgetPageCommandE@Qt_5 5.6.0~beta
 _ZTIN18qdesigner_internal28PromoteToCustomWidgetCommandE@Qt_5 5.6.0~beta
 _ZTIN18qdesigner_internal28RemoveDynamicPropertyCommandE@Qt_5 5.6.0~beta
 _ZTIN18qdesigner_internal29AddContainerWidgetPageCommandE@Qt_5 5.6.0~beta
 _ZTIN18qdesigner_internal29DemoteFromCustomWidgetCommandE@Qt_5 5.6.0~beta
 _ZTIN18qdesigner_internal30DeleteStackedWidgetPageCommandE@Qt_5 5.6.0~beta
 _ZTIN18qdesigner_internal30StyleSheetPropertyEditorDialogE@Qt_5 5.6.0~beta
 _ZTIN18qdesigner_internal31ChangeFormLayoutItemRoleCommandE@Qt_5 5.6.0~beta
 _ZTIN18qdesigner_internal32DeleteContainerWidgetPageCommandE@Qt_5 5.6.0~beta
 _ZTIN18qdesigner_internal6LayoutE@Qt_5 5.6.0~beta
 _ZTIN18qdesigner_internal7CETypesE@Qt_5 5.6.0~beta
 _ZTIN18qdesigner_internal8ZoomMenuE@Qt_5 5.6.0~beta
 _ZTIN18qdesigner_internal8ZoomViewE@Qt_5 5.6.0~beta
 _ZTIN18qdesigner_internal9CECommandE@Qt_5 5.6.0~beta
 _ZTIN18qdesigner_internal9DialogGuiE@Qt_5 5.6.0~beta
 _ZTIN18qdesigner_internal9GridPanelE@Qt_5 5.6.0~beta
 _ZTIN18qdesigner_internal9MorphMenuE@Qt_5 5.6.0~beta
 _ZTS12QFormBuilder@Qt_5 5.6.0~beta
 _ZTS12QTextBuilder@Qt_5 5.6.0~beta
 _ZTS13QDesignerMenu@Qt_5 5.6.0~beta
 _ZTS13QLayoutWidget@Qt_5 5.6.0~beta
 _ZTS14QToolBoxHelper@Qt_5 5.6.0~beta
 _ZTS14QtResourceView@Qt_5 5.6.0~beta
 _ZTS15QDesignerDialog@Qt_5 5.6.0~beta
 _ZTS15QDesignerWidget@Qt_5 5.6.0~beta
 _ZTS15QtResourceModel@Qt_5 5.6.0~beta
 _ZTS16QDesignerMenuBar@Qt_5 5.6.0~beta
 _ZTS16QResourceBuilder@Qt_5 5.6.0~beta
 _ZTS17QExtensionFactory@Qt_5 5.6.0~beta
 _ZTS17QExtensionManager@Qt_5 5.6.0~beta
 _ZTS18QDesignerQSettings@Qt_5 5.6.0~beta
 _ZTS19QDesignerDockWidget@Qt_5 5.6.0~beta
 _ZTS20QAbstractFormBuilder@Qt_5 5.6.0~beta
 _ZTS20QDesignerIntegration@Qt_5 5.6.0~beta
 _ZTS20QDesignerMemberSheet@Qt_5 5.6.0~beta
 _ZTS20QtResourceViewDialog@Qt_5 5.6.0~beta
 _ZTS21QTabWidgetEventFilter@Qt_5 5.6.0~beta
 _ZTS22QDesignerPluginManager@Qt_5 5.6.0~beta
 _ZTS22QDesignerPropertySheet@Qt_5 5.6.0~beta
 _ZTS23QTabWidgetPropertySheet@Qt_5 5.6.0~beta
 _ZTS25QDesignerDnDItemInterface@Qt_5 5.6.0~beta
 _ZTS25QStackedWidgetEventFilter@Qt_5 5.6.0~beta
 _ZTS26QDesignerMetaEnumInterface@Qt_5 5.6.0~beta
 _ZTS26QDesignerSettingsInterface@Qt_5 5.6.0~beta
 _ZTS27QDesignerDialogGuiInterface@Qt_5 5.6.0~beta
 _ZTS27QDesignerMemberSheetFactory@Qt_5 5.6.0~beta
 _ZTS27QDesignerPromotionInterface@Qt_5 5.6.0~beta
 _ZTS27QDesignerWidgetBoxInterface@Qt_5 5.6.0~beta
 _ZTS27QStackedWidgetPropertySheet@Qt_5 5.6.0~beta
 _ZTS27QToolBoxWidgetPropertySheet@Qt_5 5.6.0~beta
 _ZTS28QDesignerFormEditorInterface@Qt_5 5.6.0~beta
 _ZTS28QDesignerFormWindowInterface@Qt_5 5.6.0~beta
 _ZTS28QDesignerMetaMethodInterface@Qt_5 5.6.0~beta
 _ZTS28QDesignerMetaObjectInterface@Qt_5 5.6.0~beta
 _ZTS29QDesignerIntegrationInterface@Qt_5 5.6.0~beta
 _ZTS30QDesignerActionEditorInterface@Qt_5 5.6.0~beta
 _ZTS30QDesignerMetaDataBaseInterface@Qt_5 5.6.0~beta
 _ZTS30QDesignerMetaPropertyInterface@Qt_5 5.6.0~beta
 _ZTS31QDesignerIntrospectionInterface@Qt_5 5.6.0~beta
 _ZTS31QDesignerNewFormWidgetInterface@Qt_5 5.6.0~beta
 _ZTS31QDesignerWidgetFactoryInterface@Qt_5 5.6.0~beta
 _ZTS32QDesignerFormWindowToolInterface@Qt_5 5.6.0~beta
 _ZTS32QDesignerPropertyEditorInterface@Qt_5 5.6.0~beta
 _ZTS32QDesignerWidgetDataBaseInterface@Qt_5 5.6.0~beta
 _ZTS32QStackedWidgetPreviewEventFilter@Qt_5 5.6.0~beta
 _ZTS33QDesignerObjectInspectorInterface@Qt_5 5.6.0~beta
 _ZTS33QDesignerResourceBrowserInterface@Qt_5 5.6.0~beta
 _ZTS35QDesignerFormWindowManagerInterface@Qt_5 5.6.0~beta
 _ZTS37QDesignerAbstractPropertySheetFactory@Qt_5 5.6.0~beta
 _ZTS4Line@Qt_5 5.6.0~beta
 _ZTS6Spacer@Qt_5 5.6.0~beta
 _ZTSN18qdesigner_internal10CodeDialogE@Qt_5 5.6.0~beta
 _ZTSN18qdesigner_internal10ConnectionE@Qt_5 5.6.0~beta
 _ZTSN18qdesigner_internal10ZoomWidgetE@Qt_5 5.6.0~beta
 _ZTSN18qdesigner_internal11ActionModelE@Qt_5 5.6.0~beta
 _ZTSN18qdesigner_internal11OrderDialogE@Qt_5 5.6.0~beta
 _ZTSN18qdesigner_internal12ActionEditorE@Qt_5 5.6.0~beta
 _ZTSN18qdesigner_internal12IconSelectorE@Qt_5 5.6.0~beta
 _ZTSN18qdesigner_internal12MetaDataBaseE@Qt_5 5.6.0~beta
 _ZTSN18qdesigner_internal13LayoutCommandE@Qt_5 5.6.0~beta
 _ZTSN18qdesigner_internal13NewFormWidgetE@Qt_5 5.6.0~beta
 _ZTSN18qdesigner_internal13SheetDelegateE@Qt_5 5.6.0~beta
 _ZTSN18qdesigner_internal13WidgetFactoryE@Qt_5 5.6.0~beta
 _ZTSN18qdesigner_internal14ConnectionEditE@Qt_5 5.6.0~beta
 _ZTSN18qdesigner_internal14CssHighlighterE@Qt_5 5.6.0~beta
 _ZTSN18qdesigner_internal14FormLayoutMenuE@Qt_5 5.6.0~beta
 _ZTSN18qdesigner_internal14FormWindowBaseE@Qt_5 5.6.0~beta
 _ZTSN18qdesigner_internal14PreviewManagerE@Qt_5 5.6.0~beta
 _ZTSN18qdesigner_internal14PropertyHelperE@Qt_5 5.6.0~beta
 _ZTSN18qdesigner_internal14QLayoutSupportE@Qt_5 5.6.0~beta
 _ZTSN18qdesigner_internal14ToolBoxCommandE@Qt_5 5.6.0~beta
 _ZTSN18qdesigner_internal14WidgetDataBaseE@Qt_5 5.6.0~beta
 _ZTSN18qdesigner_internal15IconThemeEditorE@Qt_5 5.6.0~beta
 _ZTSN18qdesigner_internal15InvisibleWidgetE@Qt_5 5.6.0~beta
 _ZTSN18qdesigner_internal15QSimpleResourceE@Qt_5 5.6.0~beta
 _ZTSN18qdesigner_internal15TabOrderCommandE@Qt_5 5.6.0~beta
 _ZTSN18qdesigner_internal15ZoomProxyWidgetE@Qt_5 5.6.0~beta
 _ZTSN18qdesigner_internal16AddActionCommandE@Qt_5 5.6.0~beta
 _ZTSN18qdesigner_internal16MetaDataBaseItemE@Qt_5 5.6.0~beta
 _ZTSN18qdesigner_internal16QDesignerDnDItemE@Qt_5 5.6.0~beta
 _ZTSN18qdesigner_internal16SignalSlotDialogE@Qt_5 5.6.0~beta
 _ZTSN18qdesigner_internal16StyleSheetEditorE@Qt_5 5.6.0~beta
 _ZTSN18qdesigner_internal16TabWidgetCommandE@Qt_5 5.6.0~beta
 _ZTSN18qdesigner_internal17AddTabPageCommandE@Qt_5 5.6.0~beta
 _ZTSN18qdesigner_internal17AddToolBarCommandE@Qt_5 5.6.0~beta
 _ZTSN18qdesigner_internal17DesignerIconCacheE@Qt_5 5.6.0~beta
 _ZTSN18qdesigner_internal17DockWidgetCommandE@Qt_5 5.6.0~beta
 _ZTSN18qdesigner_internal17MenuActionCommandE@Qt_5 5.6.0~beta
 _ZTSN18qdesigner_internal17PromotionTaskMenuE@Qt_5 5.6.0~beta
 _ZTSN18qdesigner_internal17QDesignerMimeDataE@Qt_5 5.6.0~beta
 _ZTSN18qdesigner_internal17QDesignerTaskMenuE@Qt_5 5.6.0~beta
 _ZTSN18qdesigner_internal18BreakLayoutCommandE@Qt_5 5.6.0~beta
 _ZTSN18qdesigner_internal18LowerWidgetCommandE@Qt_5 5.6.0~beta
 _ZTSN18qdesigner_internal18MorphLayoutCommandE@Qt_5 5.6.0~beta
 _ZTSN18qdesigner_internal18MoveTabPageCommandE@Qt_5 5.6.0~beta
 _ZTSN18qdesigner_internal18QDesignerPromotionE@Qt_5 5.6.0~beta
 _ZTSN18qdesigner_internal18QDesignerWidgetBoxE@Qt_5 5.6.0~beta
 _ZTSN18qdesigner_internal18RaiseWidgetCommandE@Qt_5 5.6.0~beta
 _ZTSN18qdesigner_internal18SetPropertyCommandE@Qt_5 5.6.0~beta
 _ZTSN18qdesigner_internal18TextPropertyEditorE@Qt_5 5.6.0~beta
 _ZTSN18qdesigner_internal18ToolBarEventFilterE@Qt_5 5.6.0~beta
 _ZTSN18qdesigner_internal18WidgetDataBaseItemE@Qt_5 5.6.0~beta
 _ZTSN18qdesigner_internal19ChangeZOrderCommandE@Qt_5 5.6.0~beta
 _ZTSN18qdesigner_internal19DeleteWidgetCommandE@Qt_5 5.6.0~beta
 _ZTSN18qdesigner_internal19DesignerPixmapCacheE@Qt_5 5.6.0~beta
 _ZTSN18qdesigner_internal19InsertWidgetCommandE@Qt_5 5.6.0~beta
 _ZTSN18qdesigner_internal19PropertyListCommandE@Qt_5 5.6.0~beta
 _ZTSN18qdesigner_internal19QDesignerWidgetItemE@Qt_5 5.6.0~beta
 _ZTSN18qdesigner_internal19RemoveActionCommandE@Qt_5 5.6.0~beta
 _ZTSN18qdesigner_internal20AddConnectionCommandE@Qt_5 5.6.0~beta
 _ZTSN18qdesigner_internal20AddDockWidgetCommandE@Qt_5 5.6.0~beta
 _ZTSN18qdesigner_internal20AddMenuActionCommandE@Qt_5 5.6.0~beta
 _ZTSN18qdesigner_internal20CreateMenuBarCommandE@Qt_5 5.6.0~beta
 _ZTSN18qdesigner_internal20CreateSubmenuCommandE@Qt_5 5.6.0~beta
 _ZTSN18qdesigner_internal20DeleteMenuBarCommandE@Qt_5 5.6.0~beta
 _ZTSN18qdesigner_internal20DeleteTabPageCommandE@Qt_5 5.6.0~beta
 _ZTSN18qdesigner_internal20DeleteToolBarCommandE@Qt_5 5.6.0~beta
 _ZTSN18qdesigner_internal20QDesignerFormBuilderE@Qt_5 5.6.0~beta
 _ZTSN18qdesigner_internal20ResetPropertyCommandE@Qt_5 5.6.0~beta
 _ZTSN18qdesigner_internal20RichTextEditorDialogE@Qt_5 5.6.0~beta
 _ZTSN18qdesigner_internal20StackedWidgetCommandE@Qt_5 5.6.0~beta
 _ZTSN18qdesigner_internal21AddToolBoxPageCommandE@Qt_5 5.6.0~beta
 _ZTSN18qdesigner_internal21PlainTextEditorDialogE@Qt_5 5.6.0~beta
 _ZTSN18qdesigner_internal21ReparentWidgetCommandE@Qt_5 5.6.0~beta
 _ZTSN18qdesigner_internal21SimplifyLayoutCommandE@Qt_5 5.6.0~beta
 _ZTSN18qdesigner_internal22ActionInsertionCommandE@Qt_5 5.6.0~beta
 _ZTSN18qdesigner_internal22ContainerWidgetCommandE@Qt_5 5.6.0~beta
 _ZTSN18qdesigner_internal22CreateStatusBarCommandE@Qt_5 5.6.0~beta
 _ZTSN18qdesigner_internal22DeleteStatusBarCommandE@Qt_5 5.6.0~beta
 _ZTSN18qdesigner_internal22LanguageResourceDialogE@Qt_5 5.6.0~beta
 _ZTSN18qdesigner_internal22MoveToolBoxPageCommandE@Qt_5 5.6.0~beta
 _ZTSN18qdesigner_internal22QDesignerIntrospectionE@Qt_5 5.6.0~beta
 _ZTSN18qdesigner_internal22StyleSheetEditorDialogE@Qt_5 5.6.0~beta
 _ZTSN18qdesigner_internal23AdjustWidgetSizeCommandE@Qt_5 5.6.0~beta
 _ZTSN18qdesigner_internal23InsertActionIntoCommandE@Qt_5 5.6.0~beta
 _ZTSN18qdesigner_internal23QDesignerPropertyEditorE@Qt_5 5.6.0~beta
 _ZTSN18qdesigner_internal23RemoveActionFromCommandE@Qt_5 5.6.0~beta
 _ZTSN18qdesigner_internal23RemoveMenuActionCommandE@Qt_5 5.6.0~beta
 _ZTSN18qdesigner_internal24ActionRepositoryMimeDataE@Qt_5 5.6.0~beta
 _ZTSN18qdesigner_internal24ChangeCurrentPageCommandE@Qt_5 5.6.0~beta
 _ZTSN18qdesigner_internal24ChangeLayoutItemGeometryE@Qt_5 5.6.0~beta
 _ZTSN18qdesigner_internal24DeleteConnectionsCommandE@Qt_5 5.6.0~beta
 _ZTSN18qdesigner_internal24DeleteToolBoxPageCommandE@Qt_5 5.6.0~beta
 _ZTSN18qdesigner_internal24MoveStackedWidgetCommandE@Qt_5 5.6.0~beta
 _ZTSN18qdesigner_internal24NewFormWidgetFormBuilderE@Qt_5 5.6.0~beta
 _ZTSN18qdesigner_internal24QDesignerObjectInspectorE@Qt_5 5.6.0~beta
 _ZTSN18qdesigner_internal25AddDynamicPropertyCommandE@Qt_5 5.6.0~beta
 _ZTSN18qdesigner_internal25ChangeListContentsCommandE@Qt_5 5.6.0~beta
 _ZTSN18qdesigner_internal25ChangeTreeContentsCommandE@Qt_5 5.6.0~beta
 _ZTSN18qdesigner_internal26ChangeTableContentsCommandE@Qt_5 5.6.0~beta
 _ZTSN18qdesigner_internal26PreviewConfigurationWidgetE@Qt_5 5.6.0~beta
 _ZTSN18qdesigner_internal26QDesignerFormEditorCommandE@Qt_5 5.6.0~beta
 _ZTSN18qdesigner_internal26QDesignerFormWindowCommandE@Qt_5 5.6.0~beta
 _ZTSN18qdesigner_internal26QDesignerFormWindowManagerE@Qt_5 5.6.0~beta
 _ZTSN18qdesigner_internal27AddStackedWidgetPageCommandE@Qt_5 5.6.0~beta
 _ZTSN18qdesigner_internal28PromoteToCustomWidgetCommandE@Qt_5 5.6.0~beta
 _ZTSN18qdesigner_internal28RemoveDynamicPropertyCommandE@Qt_5 5.6.0~beta
 _ZTSN18qdesigner_internal29AddContainerWidgetPageCommandE@Qt_5 5.6.0~beta
 _ZTSN18qdesigner_internal29DemoteFromCustomWidgetCommandE@Qt_5 5.6.0~beta
 _ZTSN18qdesigner_internal30DeleteStackedWidgetPageCommandE@Qt_5 5.6.0~beta
 _ZTSN18qdesigner_internal30StyleSheetPropertyEditorDialogE@Qt_5 5.6.0~beta
 _ZTSN18qdesigner_internal31ChangeFormLayoutItemRoleCommandE@Qt_5 5.6.0~beta
 _ZTSN18qdesigner_internal32DeleteContainerWidgetPageCommandE@Qt_5 5.6.0~beta
 _ZTSN18qdesigner_internal6LayoutE@Qt_5 5.6.0~beta
 _ZTSN18qdesigner_internal7CETypesE@Qt_5 5.6.0~beta
 _ZTSN18qdesigner_internal8ZoomMenuE@Qt_5 5.6.0~beta
 _ZTSN18qdesigner_internal8ZoomViewE@Qt_5 5.6.0~beta
 _ZTSN18qdesigner_internal9CECommandE@Qt_5 5.6.0~beta
 _ZTSN18qdesigner_internal9DialogGuiE@Qt_5 5.6.0~beta
 _ZTSN18qdesigner_internal9GridPanelE@Qt_5 5.6.0~beta
 _ZTSN18qdesigner_internal9MorphMenuE@Qt_5 5.6.0~beta
 _ZTV12QFormBuilder@Qt_5 5.6.0~beta
 _ZTV12QTextBuilder@Qt_5 5.6.0~beta
 _ZTV13QDesignerMenu@Qt_5 5.6.0~beta
 _ZTV13QLayoutWidget@Qt_5 5.6.0~beta
 _ZTV14QToolBoxHelper@Qt_5 5.6.0~beta
 _ZTV14QtResourceView@Qt_5 5.6.0~beta
 _ZTV15QDesignerDialog@Qt_5 5.6.0~beta
 _ZTV15QDesignerWidget@Qt_5 5.6.0~beta
 _ZTV15QtResourceModel@Qt_5 5.6.0~beta
 _ZTV16QDesignerMenuBar@Qt_5 5.6.0~beta
 _ZTV16QResourceBuilder@Qt_5 5.6.0~beta
 _ZTV17QExtensionFactory@Qt_5 5.6.0~beta
 _ZTV17QExtensionManager@Qt_5 5.6.0~beta
 _ZTV18QDesignerQSettings@Qt_5 5.6.0~beta
 _ZTV19QDesignerDockWidget@Qt_5 5.6.0~beta
 _ZTV20QAbstractFormBuilder@Qt_5 5.6.0~beta
 _ZTV20QDesignerIntegration@Qt_5 5.6.0~beta
 _ZTV20QDesignerMemberSheet@Qt_5 5.6.0~beta
 _ZTV20QtResourceViewDialog@Qt_5 5.6.0~beta
 _ZTV21QTabWidgetEventFilter@Qt_5 5.6.0~beta
 _ZTV22QDesignerPluginManager@Qt_5 5.6.0~beta
 _ZTV22QDesignerPropertySheet@Qt_5 5.6.0~beta
 _ZTV23QTabWidgetPropertySheet@Qt_5 5.6.0~beta
 _ZTV25QStackedWidgetEventFilter@Qt_5 5.6.0~beta
 _ZTV26QDesignerMetaEnumInterface@Qt_5 5.6.0~beta
 _ZTV27QDesignerDialogGuiInterface@Qt_5 5.6.0~beta
 _ZTV27QDesignerMemberSheetFactory@Qt_5 5.6.0~beta
 _ZTV27QDesignerPromotionInterface@Qt_5 5.6.0~beta
 _ZTV27QDesignerWidgetBoxInterface@Qt_5 5.6.0~beta
 _ZTV27QStackedWidgetPropertySheet@Qt_5 5.6.0~beta
 _ZTV27QToolBoxWidgetPropertySheet@Qt_5 5.6.0~beta
 _ZTV28QDesignerFormEditorInterface@Qt_5 5.6.0~beta
 _ZTV28QDesignerFormWindowInterface@Qt_5 5.6.0~beta
 _ZTV28QDesignerMetaMethodInterface@Qt_5 5.6.0~beta
 _ZTV28QDesignerMetaObjectInterface@Qt_5 5.6.0~beta
 _ZTV29QDesignerIntegrationInterface@Qt_5 5.6.0~beta
 _ZTV30QDesignerActionEditorInterface@Qt_5 5.6.0~beta
 _ZTV30QDesignerMetaDataBaseInterface@Qt_5 5.6.0~beta
 _ZTV30QDesignerMetaPropertyInterface@Qt_5 5.6.0~beta
 _ZTV31QDesignerIntrospectionInterface@Qt_5 5.6.0~beta
 _ZTV31QDesignerNewFormWidgetInterface@Qt_5 5.6.0~beta
 _ZTV31QDesignerWidgetFactoryInterface@Qt_5 5.6.0~beta
 _ZTV32QDesignerFormWindowToolInterface@Qt_5 5.6.0~beta
 _ZTV32QDesignerPropertyEditorInterface@Qt_5 5.6.0~beta
 _ZTV32QDesignerWidgetDataBaseInterface@Qt_5 5.6.0~beta
 _ZTV32QStackedWidgetPreviewEventFilter@Qt_5 5.6.0~beta
 _ZTV33QDesignerObjectInspectorInterface@Qt_5 5.6.0~beta
 _ZTV33QDesignerResourceBrowserInterface@Qt_5 5.6.0~beta
 _ZTV35QDesignerFormWindowManagerInterface@Qt_5 5.6.0~beta
 _ZTV37QDesignerAbstractPropertySheetFactory@Qt_5 5.6.0~beta
 _ZTV4Line@Qt_5 5.6.0~beta
 _ZTV6Spacer@Qt_5 5.6.0~beta
 _ZTVN18qdesigner_internal10CodeDialogE@Qt_5 5.6.0~beta
 _ZTVN18qdesigner_internal10ConnectionE@Qt_5 5.6.0~beta
 _ZTVN18qdesigner_internal10ZoomWidgetE@Qt_5 5.6.0~beta
 _ZTVN18qdesigner_internal11ActionModelE@Qt_5 5.6.0~beta
 _ZTVN18qdesigner_internal11OrderDialogE@Qt_5 5.6.0~beta
 _ZTVN18qdesigner_internal12ActionEditorE@Qt_5 5.6.0~beta
 _ZTVN18qdesigner_internal12IconSelectorE@Qt_5 5.6.0~beta
 _ZTVN18qdesigner_internal12MetaDataBaseE@Qt_5 5.6.0~beta
 _ZTVN18qdesigner_internal13LayoutCommandE@Qt_5 5.6.0~beta
 _ZTVN18qdesigner_internal13NewFormWidgetE@Qt_5 5.6.0~beta
 _ZTVN18qdesigner_internal13SheetDelegateE@Qt_5 5.6.0~beta
 _ZTVN18qdesigner_internal13WidgetFactoryE@Qt_5 5.6.0~beta
 _ZTVN18qdesigner_internal14ConnectionEditE@Qt_5 5.6.0~beta
 _ZTVN18qdesigner_internal14CssHighlighterE@Qt_5 5.6.0~beta
 _ZTVN18qdesigner_internal14FormLayoutMenuE@Qt_5 5.6.0~beta
 _ZTVN18qdesigner_internal14FormWindowBaseE@Qt_5 5.6.0~beta
 _ZTVN18qdesigner_internal14PreviewManagerE@Qt_5 5.6.0~beta
 _ZTVN18qdesigner_internal14PropertyHelperE@Qt_5 5.6.0~beta
 _ZTVN18qdesigner_internal14QLayoutSupportE@Qt_5 5.6.0~beta
 _ZTVN18qdesigner_internal14ToolBoxCommandE@Qt_5 5.6.0~beta
 _ZTVN18qdesigner_internal14WidgetDataBaseE@Qt_5 5.6.0~beta
 _ZTVN18qdesigner_internal15IconThemeEditorE@Qt_5 5.6.0~beta
 _ZTVN18qdesigner_internal15InvisibleWidgetE@Qt_5 5.6.0~beta
 _ZTVN18qdesigner_internal15QSimpleResourceE@Qt_5 5.6.0~beta
 _ZTVN18qdesigner_internal15TabOrderCommandE@Qt_5 5.6.0~beta
 _ZTVN18qdesigner_internal15ZoomProxyWidgetE@Qt_5 5.6.0~beta
 _ZTVN18qdesigner_internal16AddActionCommandE@Qt_5 5.6.0~beta
 _ZTVN18qdesigner_internal16MetaDataBaseItemE@Qt_5 5.6.0~beta
 _ZTVN18qdesigner_internal16QDesignerDnDItemE@Qt_5 5.6.0~beta
 _ZTVN18qdesigner_internal16SignalSlotDialogE@Qt_5 5.6.0~beta
 _ZTVN18qdesigner_internal16StyleSheetEditorE@Qt_5 5.6.0~beta
 _ZTVN18qdesigner_internal16TabWidgetCommandE@Qt_5 5.6.0~beta
 _ZTVN18qdesigner_internal17AddTabPageCommandE@Qt_5 5.6.0~beta
 _ZTVN18qdesigner_internal17AddToolBarCommandE@Qt_5 5.6.0~beta
 _ZTVN18qdesigner_internal17DesignerIconCacheE@Qt_5 5.6.0~beta
 _ZTVN18qdesigner_internal17DockWidgetCommandE@Qt_5 5.6.0~beta
 _ZTVN18qdesigner_internal17MenuActionCommandE@Qt_5 5.6.0~beta
 _ZTVN18qdesigner_internal17PromotionTaskMenuE@Qt_5 5.6.0~beta
 _ZTVN18qdesigner_internal17QDesignerMimeDataE@Qt_5 5.6.0~beta
 _ZTVN18qdesigner_internal17QDesignerTaskMenuE@Qt_5 5.6.0~beta
 _ZTVN18qdesigner_internal18BreakLayoutCommandE@Qt_5 5.6.0~beta
 _ZTVN18qdesigner_internal18LowerWidgetCommandE@Qt_5 5.6.0~beta
 _ZTVN18qdesigner_internal18MorphLayoutCommandE@Qt_5 5.6.0~beta
 _ZTVN18qdesigner_internal18MoveTabPageCommandE@Qt_5 5.6.0~beta
 _ZTVN18qdesigner_internal18QDesignerPromotionE@Qt_5 5.6.0~beta
 _ZTVN18qdesigner_internal18QDesignerWidgetBoxE@Qt_5 5.6.0~beta
 _ZTVN18qdesigner_internal18RaiseWidgetCommandE@Qt_5 5.6.0~beta
 _ZTVN18qdesigner_internal18SetPropertyCommandE@Qt_5 5.6.0~beta
 _ZTVN18qdesigner_internal18TextPropertyEditorE@Qt_5 5.6.0~beta
 _ZTVN18qdesigner_internal18ToolBarEventFilterE@Qt_5 5.6.0~beta
 _ZTVN18qdesigner_internal18WidgetDataBaseItemE@Qt_5 5.6.0~beta
 _ZTVN18qdesigner_internal19ChangeZOrderCommandE@Qt_5 5.6.0~beta
 _ZTVN18qdesigner_internal19DeleteWidgetCommandE@Qt_5 5.6.0~beta
 _ZTVN18qdesigner_internal19DesignerPixmapCacheE@Qt_5 5.6.0~beta
 _ZTVN18qdesigner_internal19InsertWidgetCommandE@Qt_5 5.6.0~beta
 _ZTVN18qdesigner_internal19PropertyListCommandE@Qt_5 5.6.0~beta
 _ZTVN18qdesigner_internal19QDesignerWidgetItemE@Qt_5 5.6.0~beta
 _ZTVN18qdesigner_internal19RemoveActionCommandE@Qt_5 5.6.0~beta
 _ZTVN18qdesigner_internal20AddConnectionCommandE@Qt_5 5.6.0~beta
 _ZTVN18qdesigner_internal20AddDockWidgetCommandE@Qt_5 5.6.0~beta
 _ZTVN18qdesigner_internal20AddMenuActionCommandE@Qt_5 5.6.0~beta
 _ZTVN18qdesigner_internal20CreateMenuBarCommandE@Qt_5 5.6.0~beta
 _ZTVN18qdesigner_internal20CreateSubmenuCommandE@Qt_5 5.6.0~beta
 _ZTVN18qdesigner_internal20DeleteMenuBarCommandE@Qt_5 5.6.0~beta
 _ZTVN18qdesigner_internal20DeleteTabPageCommandE@Qt_5 5.6.0~beta
 _ZTVN18qdesigner_internal20DeleteToolBarCommandE@Qt_5 5.6.0~beta
 _ZTVN18qdesigner_internal20QDesignerFormBuilderE@Qt_5 5.6.0~beta
 _ZTVN18qdesigner_internal20ResetPropertyCommandE@Qt_5 5.6.0~beta
 _ZTVN18qdesigner_internal20RichTextEditorDialogE@Qt_5 5.6.0~beta
 _ZTVN18qdesigner_internal20StackedWidgetCommandE@Qt_5 5.6.0~beta
 _ZTVN18qdesigner_internal21AddToolBoxPageCommandE@Qt_5 5.6.0~beta
 _ZTVN18qdesigner_internal21PlainTextEditorDialogE@Qt_5 5.6.0~beta
 _ZTVN18qdesigner_internal21ReparentWidgetCommandE@Qt_5 5.6.0~beta
 _ZTVN18qdesigner_internal21SimplifyLayoutCommandE@Qt_5 5.6.0~beta
 _ZTVN18qdesigner_internal22ActionInsertionCommandE@Qt_5 5.6.0~beta
 _ZTVN18qdesigner_internal22ContainerWidgetCommandE@Qt_5 5.6.0~beta
 _ZTVN18qdesigner_internal22CreateStatusBarCommandE@Qt_5 5.6.0~beta
 _ZTVN18qdesigner_internal22DeleteStatusBarCommandE@Qt_5 5.6.0~beta
 _ZTVN18qdesigner_internal22LanguageResourceDialogE@Qt_5 5.6.0~beta
 _ZTVN18qdesigner_internal22MoveToolBoxPageCommandE@Qt_5 5.6.0~beta
 _ZTVN18qdesigner_internal22QDesignerIntrospectionE@Qt_5 5.6.0~beta
 _ZTVN18qdesigner_internal22StyleSheetEditorDialogE@Qt_5 5.6.0~beta
 _ZTVN18qdesigner_internal23AdjustWidgetSizeCommandE@Qt_5 5.6.0~beta
 _ZTVN18qdesigner_internal23InsertActionIntoCommandE@Qt_5 5.6.0~beta
 _ZTVN18qdesigner_internal23QDesignerPropertyEditorE@Qt_5 5.6.0~beta
 _ZTVN18qdesigner_internal23RemoveActionFromCommandE@Qt_5 5.6.0~beta
 _ZTVN18qdesigner_internal23RemoveMenuActionCommandE@Qt_5 5.6.0~beta
 _ZTVN18qdesigner_internal24ActionRepositoryMimeDataE@Qt_5 5.6.0~beta
 _ZTVN18qdesigner_internal24ChangeCurrentPageCommandE@Qt_5 5.6.0~beta
 _ZTVN18qdesigner_internal24ChangeLayoutItemGeometryE@Qt_5 5.6.0~beta
 _ZTVN18qdesigner_internal24DeleteConnectionsCommandE@Qt_5 5.6.0~beta
 _ZTVN18qdesigner_internal24DeleteToolBoxPageCommandE@Qt_5 5.6.0~beta
 _ZTVN18qdesigner_internal24MoveStackedWidgetCommandE@Qt_5 5.6.0~beta
 _ZTVN18qdesigner_internal24NewFormWidgetFormBuilderE@Qt_5 5.6.0~beta
 _ZTVN18qdesigner_internal24QDesignerObjectInspectorE@Qt_5 5.6.0~beta
 _ZTVN18qdesigner_internal25AddDynamicPropertyCommandE@Qt_5 5.6.0~beta
 _ZTVN18qdesigner_internal25ChangeListContentsCommandE@Qt_5 5.6.0~beta
 _ZTVN18qdesigner_internal25ChangeTreeContentsCommandE@Qt_5 5.6.0~beta
 _ZTVN18qdesigner_internal26ChangeTableContentsCommandE@Qt_5 5.6.0~beta
 _ZTVN18qdesigner_internal26PreviewConfigurationWidgetE@Qt_5 5.6.0~beta
 _ZTVN18qdesigner_internal26QDesignerFormEditorCommandE@Qt_5 5.6.0~beta
 _ZTVN18qdesigner_internal26QDesignerFormWindowCommandE@Qt_5 5.6.0~beta
 _ZTVN18qdesigner_internal26QDesignerFormWindowManagerE@Qt_5 5.6.0~beta
 _ZTVN18qdesigner_internal27AddStackedWidgetPageCommandE@Qt_5 5.6.0~beta
 _ZTVN18qdesigner_internal28PromoteToCustomWidgetCommandE@Qt_5 5.6.0~beta
 _ZTVN18qdesigner_internal28RemoveDynamicPropertyCommandE@Qt_5 5.6.0~beta
 _ZTVN18qdesigner_internal29AddContainerWidgetPageCommandE@Qt_5 5.6.0~beta
 _ZTVN18qdesigner_internal29DemoteFromCustomWidgetCommandE@Qt_5 5.6.0~beta
 _ZTVN18qdesigner_internal30DeleteStackedWidgetPageCommandE@Qt_5 5.6.0~beta
 _ZTVN18qdesigner_internal30StyleSheetPropertyEditorDialogE@Qt_5 5.6.0~beta
 _ZTVN18qdesigner_internal31ChangeFormLayoutItemRoleCommandE@Qt_5 5.6.0~beta
 _ZTVN18qdesigner_internal32DeleteContainerWidgetPageCommandE@Qt_5 5.6.0~beta
 _ZTVN18qdesigner_internal6LayoutE@Qt_5 5.6.0~beta
 _ZTVN18qdesigner_internal8ZoomMenuE@Qt_5 5.6.0~beta
 _ZTVN18qdesigner_internal8ZoomViewE@Qt_5 5.6.0~beta
 _ZTVN18qdesigner_internal9CECommandE@Qt_5 5.6.0~beta
 _ZTVN18qdesigner_internal9DialogGuiE@Qt_5 5.6.0~beta
 _ZTVN18qdesigner_internal9GridPanelE@Qt_5 5.6.0~beta
 _ZTVN18qdesigner_internal9MorphMenuE@Qt_5 5.6.0~beta
 (c++)"non-virtual thunk to QDesignerAbstractPropertySheetFactory::extension(QObject*, QString const&) const@Qt_5" 5.6.0~beta
 (c++)"non-virtual thunk to QDesignerAbstractPropertySheetFactory::~QDesignerAbstractPropertySheetFactory()@Qt_5" 5.6.0~beta
 (c++)"non-virtual thunk to QDesignerActionEditorInterface::~QDesignerActionEditorInterface()@Qt_5" 5.6.0~beta
 (c++)"non-virtual thunk to QDesignerDockWidget::~QDesignerDockWidget()@Qt_5" 5.6.0~beta
 (c++)"non-virtual thunk to QDesignerFormWindowInterface::~QDesignerFormWindowInterface()@Qt_5" 5.6.0~beta
 (c++)"non-virtual thunk to QDesignerMemberSheet::count() const@Qt_5" 5.6.0~beta
 (c++)"non-virtual thunk to QDesignerMemberSheet::declaredInClass(int) const@Qt_5" 5.6.0~beta
 (c++)"non-virtual thunk to QDesignerMemberSheet::indexOf(QString const&) const@Qt_5" 5.6.0~beta
 (c++)"non-virtual thunk to QDesignerMemberSheet::inheritedFromWidget(int) const@Qt_5" 5.6.0~beta
 (c++)"non-virtual thunk to QDesignerMemberSheet::isSignal(int) const@Qt_5" 5.6.0~beta
 (c++)"non-virtual thunk to QDesignerMemberSheet::isSlot(int) const@Qt_5" 5.6.0~beta
 (c++)"non-virtual thunk to QDesignerMemberSheet::isVisible(int) const@Qt_5" 5.6.0~beta
 (c++)"non-virtual thunk to QDesignerMemberSheet::memberGroup(int) const@Qt_5" 5.6.0~beta
 (c++)"non-virtual thunk to QDesignerMemberSheet::memberName(int) const@Qt_5" 5.6.0~beta
 (c++)"non-virtual thunk to QDesignerMemberSheet::parameterNames(int) const@Qt_5" 5.6.0~beta
 (c++)"non-virtual thunk to QDesignerMemberSheet::parameterTypes(int) const@Qt_5" 5.6.0~beta
 (c++)"non-virtual thunk to QDesignerMemberSheet::setMemberGroup(int, QString const&)@Qt_5" 5.6.0~beta
 (c++)"non-virtual thunk to QDesignerMemberSheet::setVisible(int, bool)@Qt_5" 5.6.0~beta
 (c++)"non-virtual thunk to QDesignerMemberSheet::signature(int) const@Qt_5" 5.6.0~beta
 (c++)"non-virtual thunk to QDesignerMemberSheet::~QDesignerMemberSheet()@Qt_5" 5.6.0~beta
 (c++)"non-virtual thunk to QDesignerMenu::~QDesignerMenu()@Qt_5" 5.6.0~beta
 (c++)"non-virtual thunk to QDesignerMenuBar::~QDesignerMenuBar()@Qt_5" 5.6.0~beta
 (c++)"non-virtual thunk to QDesignerNewFormWidgetInterface::~QDesignerNewFormWidgetInterface()@Qt_5" 5.6.0~beta
 (c++)"non-virtual thunk to QDesignerObjectInspectorInterface::~QDesignerObjectInspectorInterface()@Qt_5" 5.6.0~beta
 (c++)"non-virtual thunk to QDesignerPropertyEditorInterface::~QDesignerPropertyEditorInterface()@Qt_5" 5.6.0~beta
 (c++)"non-virtual thunk to QDesignerPropertySheet::addDynamicProperty(QString const&, QVariant const&)@Qt_5" 5.6.0~beta
 (c++)"non-virtual thunk to QDesignerPropertySheet::canAddDynamicProperty(QString const&) const@Qt_5" 5.6.0~beta
 (c++)"non-virtual thunk to QDesignerPropertySheet::count() const@Qt_5" 5.6.0~beta
 (c++)"non-virtual thunk to QDesignerPropertySheet::dynamicPropertiesAllowed() const@Qt_5" 5.6.0~beta
 (c++)"non-virtual thunk to QDesignerPropertySheet::hasReset(int) const@Qt_5" 5.6.0~beta
 (c++)"non-virtual thunk to QDesignerPropertySheet::indexOf(QString const&) const@Qt_5" 5.6.0~beta
 (c++)"non-virtual thunk to QDesignerPropertySheet::isAttribute(int) const@Qt_5" 5.6.0~beta
 (c++)"non-virtual thunk to QDesignerPropertySheet::isChanged(int) const@Qt_5" 5.6.0~beta
 (c++)"non-virtual thunk to QDesignerPropertySheet::isDynamicProperty(int) const@Qt_5" 5.6.0~beta
 (c++)"non-virtual thunk to QDesignerPropertySheet::isEnabled(int) const@Qt_5" 5.6.0~beta
 (c++)"non-virtual thunk to QDesignerPropertySheet::isVisible(int) const@Qt_5" 5.6.0~beta
 (c++)"non-virtual thunk to QDesignerPropertySheet::property(int) const@Qt_5" 5.6.0~beta
 (c++)"non-virtual thunk to QDesignerPropertySheet::propertyGroup(int) const@Qt_5" 5.6.0~beta
 (c++)"non-virtual thunk to QDesignerPropertySheet::propertyName(int) const@Qt_5" 5.6.0~beta
 (c++)"non-virtual thunk to QDesignerPropertySheet::removeDynamicProperty(int)@Qt_5" 5.6.0~beta
 (c++)"non-virtual thunk to QDesignerPropertySheet::reset(int)@Qt_5" 5.6.0~beta
 (c++)"non-virtual thunk to QDesignerPropertySheet::setAttribute(int, bool)@Qt_5" 5.6.0~beta
 (c++)"non-virtual thunk to QDesignerPropertySheet::setChanged(int, bool)@Qt_5" 5.6.0~beta
 (c++)"non-virtual thunk to QDesignerPropertySheet::setProperty(int, QVariant const&)@Qt_5" 5.6.0~beta
 (c++)"non-virtual thunk to QDesignerPropertySheet::setPropertyGroup(int, QString const&)@Qt_5" 5.6.0~beta
 (c++)"non-virtual thunk to QDesignerPropertySheet::setVisible(int, bool)@Qt_5" 5.6.0~beta
 (c++)"non-virtual thunk to QDesignerPropertySheet::~QDesignerPropertySheet()@Qt_5" 5.6.0~beta
 (c++)"non-virtual thunk to QDesignerResourceBrowserInterface::~QDesignerResourceBrowserInterface()@Qt_5" 5.6.0~beta
 (c++)"non-virtual thunk to QDesignerWidget::~QDesignerWidget()@Qt_5" 5.6.0~beta
 (c++)"non-virtual thunk to QDesignerWidgetBoxInterface::~QDesignerWidgetBoxInterface()@Qt_5" 5.6.0~beta
 (c++)"non-virtual thunk to QExtensionFactory::extension(QObject*, QString const&) const@Qt_5" 5.6.0~beta
 (c++)"non-virtual thunk to QExtensionManager::extension(QObject*, QString const&) const@Qt_5" 5.6.0~beta
 (c++)"non-virtual thunk to QExtensionManager::registerExtensions(QAbstractExtensionFactory*, QString const&)@Qt_5" 5.6.0~beta
 (c++)"non-virtual thunk to QExtensionManager::unregisterExtensions(QAbstractExtensionFactory*, QString const&)@Qt_5" 5.6.0~beta
 (c++)"non-virtual thunk to QExtensionManager::~QExtensionManager()@Qt_5" 5.6.0~beta
 (c++)"non-virtual thunk to QStackedWidgetPropertySheet::isEnabled(int) const@Qt_5" 5.6.0~beta
 (c++)"non-virtual thunk to QStackedWidgetPropertySheet::property(int) const@Qt_5" 5.6.0~beta
 (c++)"non-virtual thunk to QStackedWidgetPropertySheet::reset(int)@Qt_5" 5.6.0~beta
 (c++)"non-virtual thunk to QStackedWidgetPropertySheet::setProperty(int, QVariant const&)@Qt_5" 5.6.0~beta
 (c++)"non-virtual thunk to QTabWidgetPropertySheet::isEnabled(int) const@Qt_5" 5.6.0~beta
 (c++)"non-virtual thunk to QTabWidgetPropertySheet::property(int) const@Qt_5" 5.6.0~beta
 (c++)"non-virtual thunk to QTabWidgetPropertySheet::reset(int)@Qt_5" 5.6.0~beta
 (c++)"non-virtual thunk to QTabWidgetPropertySheet::setProperty(int, QVariant const&)@Qt_5" 5.6.0~beta
 (c++)"non-virtual thunk to QToolBoxWidgetPropertySheet::isEnabled(int) const@Qt_5" 5.6.0~beta
 (c++)"non-virtual thunk to QToolBoxWidgetPropertySheet::property(int) const@Qt_5" 5.6.0~beta
 (c++)"non-virtual thunk to QToolBoxWidgetPropertySheet::reset(int)@Qt_5" 5.6.0~beta
 (c++)"non-virtual thunk to QToolBoxWidgetPropertySheet::setProperty(int, QVariant const&)@Qt_5" 5.6.0~beta
 (c++)"non-virtual thunk to QtResourceView::~QtResourceView()@Qt_5" 5.6.0~beta
 (c++)"non-virtual thunk to QtResourceViewDialog::~QtResourceViewDialog()@Qt_5" 5.6.0~beta
 (c++)"non-virtual thunk to qdesigner_internal::ActionEditor::~ActionEditor()@Qt_5" 5.6.0~beta
 (c++)"non-virtual thunk to qdesigner_internal::CodeDialog::~CodeDialog()@Qt_5" 5.6.0~beta
 (c++)"non-virtual thunk to qdesigner_internal::ConnectionEdit::~ConnectionEdit()@Qt_5" 5.6.0~beta
 (c++)"non-virtual thunk to qdesigner_internal::FormWindowBase::~FormWindowBase()@Qt_5" 5.6.0~beta
 (c++)"non-virtual thunk to qdesigner_internal::GridPanel::~GridPanel()@Qt_5" 5.6.0~beta
 (c++)"non-virtual thunk to qdesigner_internal::IconSelector::~IconSelector()@Qt_5" 5.6.0~beta
 (c++)"non-virtual thunk to qdesigner_internal::IconThemeEditor::~IconThemeEditor()@Qt_5" 5.6.0~beta
 (c++)"non-virtual thunk to qdesigner_internal::LanguageResourceDialog::~LanguageResourceDialog()@Qt_5" 5.6.0~beta
 (c++)"non-virtual thunk to qdesigner_internal::NewFormWidget::~NewFormWidget()@Qt_5" 5.6.0~beta
 (c++)"non-virtual thunk to qdesigner_internal::OrderDialog::~OrderDialog()@Qt_5" 5.6.0~beta
 (c++)"non-virtual thunk to qdesigner_internal::PlainTextEditorDialog::~PlainTextEditorDialog()@Qt_5" 5.6.0~beta
 (c++)"non-virtual thunk to qdesigner_internal::PreviewConfigurationWidget::~PreviewConfigurationWidget()@Qt_5" 5.6.0~beta
 (c++)"non-virtual thunk to qdesigner_internal::QDesignerTaskMenu::taskActions() const@Qt_5" 5.6.0~beta
 (c++)"non-virtual thunk to qdesigner_internal::QDesignerTaskMenu::~QDesignerTaskMenu()@Qt_5" 5.6.0~beta
 (c++)"non-virtual thunk to qdesigner_internal::QDesignerWidgetItem::minimumSize() const@Qt_5" 5.6.0~beta
 (c++)"non-virtual thunk to qdesigner_internal::QDesignerWidgetItem::sizeHint() const@Qt_5" 5.6.0~beta
 (c++)"non-virtual thunk to qdesigner_internal::QLayoutSupport::adjustIndicator(QPoint const&, int)@Qt_5" 5.6.0~beta
 (c++)"non-virtual thunk to qdesigner_internal::QLayoutSupport::findItemAt(QPoint const&) const@Qt_5" 5.6.0~beta
 (c++)"non-virtual thunk to qdesigner_internal::QLayoutSupport::indexOf(QLayoutItem*) const@Qt_5" 5.6.0~beta
 (c++)"non-virtual thunk to qdesigner_internal::QLayoutSupport::indexOf(QWidget*) const@Qt_5" 5.6.0~beta
 (c++)"non-virtual thunk to qdesigner_internal::QLayoutSupport::itemInfo(int) const@Qt_5" 5.6.0~beta
 (c++)"non-virtual thunk to qdesigner_internal::QLayoutSupport::widgets(QLayout*) const@Qt_5" 5.6.0~beta
 (c++)"non-virtual thunk to qdesigner_internal::QLayoutSupport::~QLayoutSupport()@Qt_5" 5.6.0~beta
 (c++)"non-virtual thunk to qdesigner_internal::RichTextEditorDialog::~RichTextEditorDialog()@Qt_5" 5.6.0~beta
 (c++)"non-virtual thunk to qdesigner_internal::SignalSlotDialog::~SignalSlotDialog()@Qt_5" 5.6.0~beta
 (c++)"non-virtual thunk to qdesigner_internal::StyleSheetEditorDialog::~StyleSheetEditorDialog()@Qt_5" 5.6.0~beta
 (c++)"non-virtual thunk to qdesigner_internal::ZoomProxyWidget::itemChange(QGraphicsItem::GraphicsItemChange, QVariant const&)@Qt_5" 5.6.0~beta
