libQt5DesignerComponents.so.5 libqt5designercomponents5 #MINVER#
 Qt_5_PRIVATE_API@Qt_5_PRIVATE_API 5.6.0
 _ZN18qdesigner_internal24PropertySheetStringValueD1Ev@Qt_5_PRIVATE_API 5.6.0
 _ZN18qdesigner_internal24PropertySheetStringValueD2Ev@Qt_5_PRIVATE_API 5.6.0
 _ZN18qdesigner_internal28PropertySheetStringListValueD1Ev@Qt_5_PRIVATE_API 5.6.0
 _ZN18qdesigner_internal28PropertySheetStringListValueD2Ev@Qt_5_PRIVATE_API 5.6.0
 _ZN18qdesigner_internal29PropertySheetKeySequenceValueC1ERKS0_@Qt_5_PRIVATE_API 5.6.0
 _ZN18qdesigner_internal29PropertySheetKeySequenceValueC2ERKS0_@Qt_5_PRIVATE_API 5.6.0
 _ZN18qdesigner_internal29PropertySheetKeySequenceValueD1Ev@Qt_5_PRIVATE_API 5.6.0
 _ZN18qdesigner_internal29PropertySheetKeySequenceValueD2Ev@Qt_5_PRIVATE_API 5.6.0
 _ZN18qdesigner_internal29PropertySheetTranslatableDataC1ERKS0_@Qt_5_PRIVATE_API 5.6.0
 _ZN18qdesigner_internal29PropertySheetTranslatableDataC2ERKS0_@Qt_5_PRIVATE_API 5.6.0
 _ZN18qdesigner_internal9CECommandD0Ev@Qt_5_PRIVATE_API 5.6.0
 _ZN18qdesigner_internal9CECommandD1Ev@Qt_5_PRIVATE_API 5.6.0
 _ZN18qdesigner_internal9CECommandD2Ev@Qt_5_PRIVATE_API 5.6.0
 _ZN19QDesignerComponents14createTaskMenuEP28QDesignerFormEditorInterfaceP7QObject@Qt_5_PRIVATE_API 5.6.0
 _ZN19QDesignerComponents15createWidgetBoxEP28QDesignerFormEditorInterfaceP7QWidget@Qt_5_PRIVATE_API 5.6.0
 _ZN19QDesignerComponents16createFormEditorEP7QObject@Qt_5_PRIVATE_API 5.6.0
 _ZN19QDesignerComponents17initializePluginsEP28QDesignerFormEditorInterface@Qt_5_PRIVATE_API 5.6.0
 _ZN19QDesignerComponents18createActionEditorEP28QDesignerFormEditorInterfaceP7QWidget@Qt_5_PRIVATE_API 5.6.0
 _ZN19QDesignerComponents19initializeResourcesEv@Qt_5_PRIVATE_API 5.6.0
 _ZN19QDesignerComponents20createPropertyEditorEP28QDesignerFormEditorInterfaceP7QWidget@Qt_5_PRIVATE_API 5.6.0
 _ZN19QDesignerComponents20createResourceEditorEP28QDesignerFormEditorInterfaceP7QWidget@Qt_5_PRIVATE_API 5.6.0
 _ZN19QDesignerComponents21createObjectInspectorEP28QDesignerFormEditorInterfaceP7QWidget@Qt_5_PRIVATE_API 5.6.0
 _ZN19QDesignerComponents22createSignalSlotEditorEP28QDesignerFormEditorInterfaceP7QWidget@Qt_5_PRIVATE_API 5.6.0
 _ZTI29QDesignerOptionsPageInterface@Qt_5_PRIVATE_API 5.6.0
 _ZTI34QDesignerFormEditorPluginInterface@Qt_5_PRIVATE_API 5.6.0
 _ZTI34QDesignerFormWindowCursorInterface@Qt_5_PRIVATE_API 5.6.0
 _ZTIN18qdesigner_internal18QEditorFormBuilderE@Qt_5_PRIVATE_API 5.6.0
 _ZTIN18qdesigner_internal7CETypesE@Qt_5_PRIVATE_API 5.6.0
 _ZTIN18qdesigner_internal9CECommandE@Qt_5_PRIVATE_API 5.6.0
 _ZTS29QDesignerOptionsPageInterface@Qt_5_PRIVATE_API 5.6.0
 _ZTS34QDesignerFormEditorPluginInterface@Qt_5_PRIVATE_API 5.6.0
 _ZTS34QDesignerFormWindowCursorInterface@Qt_5_PRIVATE_API 5.6.0
 _ZTSN18qdesigner_internal18QEditorFormBuilderE@Qt_5_PRIVATE_API 5.6.0
 _ZTSN18qdesigner_internal7CETypesE@Qt_5_PRIVATE_API 5.6.0
 _ZTSN18qdesigner_internal9CECommandE@Qt_5_PRIVATE_API 5.6.0
 _ZTV29QDesignerOptionsPageInterface@Qt_5_PRIVATE_API 5.6.0
 _ZTV34QDesignerFormEditorPluginInterface@Qt_5_PRIVATE_API 5.6.0
 _ZTV34QDesignerFormWindowCursorInterface@Qt_5_PRIVATE_API 5.6.0
 _ZTVN18qdesigner_internal18QEditorFormBuilderE@Qt_5_PRIVATE_API 5.6.0
 _ZTVN18qdesigner_internal9CECommandE@Qt_5_PRIVATE_API 5.6.0
