# SymbolsHelper-Confirmed: 5.6.1 arm64 hppa x32
libQt5DesignerComponents.so.5 libqt5designercomponents5 #MINVER#
* Build-Depends-Package: qttools5-private-dev
 Qt_5_PRIVATE_API@Qt_5_PRIVATE_API 5.6.0~beta
 _ZN19QDesignerComponents14createTaskMenuEP28QDesignerFormEditorInterfaceP7QObject@Qt_5_PRIVATE_API 5.6.0~beta
 _ZN19QDesignerComponents15createWidgetBoxEP28QDesignerFormEditorInterfaceP7QWidget@Qt_5_PRIVATE_API 5.6.0~beta
 _ZN19QDesignerComponents16createFormEditorEP7QObject@Qt_5_PRIVATE_API 5.6.0~beta
 _ZN19QDesignerComponents17initializePluginsEP28QDesignerFormEditorInterface@Qt_5_PRIVATE_API 5.6.0~beta
 _ZN19QDesignerComponents18createActionEditorEP28QDesignerFormEditorInterfaceP7QWidget@Qt_5_PRIVATE_API 5.6.0~beta
 _ZN19QDesignerComponents19initializeResourcesEv@Qt_5_PRIVATE_API 5.6.0~beta
 _ZN19QDesignerComponents20createPropertyEditorEP28QDesignerFormEditorInterfaceP7QWidget@Qt_5_PRIVATE_API 5.6.0~beta
 _ZN19QDesignerComponents20createResourceEditorEP28QDesignerFormEditorInterfaceP7QWidget@Qt_5_PRIVATE_API 5.6.0~beta
 _ZN19QDesignerComponents21createObjectInspectorEP28QDesignerFormEditorInterfaceP7QWidget@Qt_5_PRIVATE_API 5.6.0~beta
 _ZN19QDesignerComponents22createSignalSlotEditorEP28QDesignerFormEditorInterfaceP7QWidget@Qt_5_PRIVATE_API 5.6.0~beta
 (optional=templinst|arch=arm64 hppa x32)_ZN7QObject7connectIM16QDialogButtonBoxFvvEM7QDialogFvvEEEN11QMetaObject10ConnectionEPKN9QtPrivate15FunctionPointerIT_E6ObjectESB_PKNSA_IT0_E6ObjectESG_N2Qt14ConnectionTypeE@Qt_5_PRIVATE_API 5.6.0~rc
 (optional=templinst|arch=armel armhf hurd-i386 i386 kfreebsd-i386 mips mipsel powerpc)_ZSt4swapIN8QVariant7PrivateEEvRT_S3_@Qt_5_PRIVATE_API 5.6.0~beta
 _ZTI29QDesignerOptionsPageInterface@Qt_5_PRIVATE_API 5.6.0~beta
 _ZTI34QDesignerFormEditorPluginInterface@Qt_5_PRIVATE_API 5.6.0~beta
 _ZTI34QDesignerFormWindowCursorInterface@Qt_5_PRIVATE_API 5.6.0~beta
 _ZTIN18qdesigner_internal18QEditorFormBuilderE@Qt_5_PRIVATE_API 5.6.0~beta
 _ZTIN18qdesigner_internal7CETypesE@Qt_5_PRIVATE_API 5.6.0~beta
 _ZTIN18qdesigner_internal9CECommandE@Qt_5_PRIVATE_API 5.6.0~beta
 _ZTS29QDesignerOptionsPageInterface@Qt_5_PRIVATE_API 5.6.0~beta
 _ZTS34QDesignerFormEditorPluginInterface@Qt_5_PRIVATE_API 5.6.0~beta
 _ZTS34QDesignerFormWindowCursorInterface@Qt_5_PRIVATE_API 5.6.0~beta
 _ZTSN18qdesigner_internal18QEditorFormBuilderE@Qt_5_PRIVATE_API 5.6.0~beta
 _ZTSN18qdesigner_internal7CETypesE@Qt_5_PRIVATE_API 5.6.0~beta
 _ZTSN18qdesigner_internal9CECommandE@Qt_5_PRIVATE_API 5.6.0~beta
 _ZTVN18qdesigner_internal18QEditorFormBuilderE@Qt_5_PRIVATE_API 5.6.0~beta
 _ZTVN18qdesigner_internal9CECommandE@Qt_5_PRIVATE_API 5.6.0~beta
